 HeatBox_HV_128

 Timestamp is 698d4496 (Thu Feb 12 11:10:14 2026)

 Preferred load address is 00400000

 Start         Length     Name                   Class
 0001:00000000 00160f5aH .textbss                DATA
 0002:00000000 002c5d24H .text                   CODE
 0002:002c5d30 0001628eH .text$x                 CODE
 0002:002dbfc0 00003e51H .text$yc                CODE
 0002:002dfe20 000029b6H .text$yd                CODE
 0003:00000000 00000104H .CRT$XCA                DATA
 0003:00000104 0000011cH .CRT$XCC                DATA
 0003:00000220 000001f4H .CRT$XCL                DATA
 0003:00000414 000002faH .CRT$XCU                DATA
 0003:00000710 00000104H .CRT$XCZ                DATA
 0003:00000814 00000104H .CRT$XIA                DATA
 0003:00000918 00000118H .CRT$XIC                DATA
 0003:00000a30 00000104H .CRT$XIY                DATA
 0003:00000b34 00000104H .CRT$XIZ                DATA
 0003:00000c38 00000104H .CRT$XPA                DATA
 0003:00000d3c 00000109H .CRT$XPX                DATA
 0003:00000e48 00000104H .CRT$XPXA               DATA
 0003:00000f4c 00000104H .CRT$XPZ                DATA
 0003:00001050 00000104H .CRT$XTA                DATA
 0003:00001154 00000104H .CRT$XTZ                DATA
 0003:00001260 00050a34H .rdata                  DATA
 0003:00051c94 00000155H .rdata$debug            DATA
 0003:00051dec 00008ce6H .rdata$r                DATA
 0003:0005aad4 00000104H .rtc$IAA                DATA
 0003:0005abd8 000001c0H .rtc$IMZ                DATA
 0003:0005ad98 00000104H .rtc$IZZ                DATA
 0003:0005ae9c 00000104H .rtc$TAA                DATA
 0003:0005afa0 000001c0H .rtc$TMZ                DATA
 0003:0005b160 00000104H .rtc$TZZ                DATA
 0003:0005b268 00017660H .xdata$x                DATA
 0003:000728c8 00000104H ATL$__a                 DATA
 0003:000729cc 00000104H ATL$__z                 DATA
 0003:00072ad0 00000000H .edata                  DATA
 0004:00000000 0000d645H .data                   DATA
 0004:0000d660 0062f824H .bss                    DATA
 0005:00000000 00000118H .idata$2                DATA
 0005:00000118 00000014H .idata$3                DATA
 0005:0000012c 0000133cH .idata$4                DATA
 0005:00001468 0000133cH .idata$5                DATA
 0005:000027a4 00004136H .idata$6                DATA
 0006:00000000 00000020H .didat$2                DATA
 0006:00000020 00000020H .didat$3                DATA
 0006:00000040 00000038H .didat$4                DATA
 0006:00000078 00000038H .didat$5                DATA
 0006:000000b0 00000155H .didat$6                DATA
 0006:00000208 00000111H .didat$7                DATA
 0007:00000000 00001dccH .rsrc$01                DATA
 0007:00001dd0 000e0bc0H .rsrc$02                DATA

  Address         Publics by Value              Rva+Base       Lib:Object

 0000:00000000       __except_list              00000000     <absolute>
 0000:00000000       ___safe_se_handler_count   00000000     <absolute>
 0000:00000000       ___safe_se_handler_table   00000000     <absolute>
 0000:00000000       ___ImageBase               00400000     <linker-defined>
 0001:00000000       __enc$textbss$begin        00401000     <linker-defined>
 0001:00160f5a       __enc$textbss$end          00561f5a     <linker-defined>
 0002:0001ce00       ??0CAdjustWizardDlg@@QAE@PAVCWnd@@@Z 0057ee00 f   AdjustWizardDlg.obj
 0002:0001cf70       ??_GCAdjustWizardDlg@@UAEPAXI@Z 0057ef70 f i AdjustWizardDlg.obj
 0002:0001cf70       ??_ECAdjustWizardDlg@@UAEPAXI@Z 0057ef70 f i AdjustWizardDlg.obj
 0002:0001cfe0       ??1CAdjustWizardDlg@@UAE@XZ 0057efe0 f i AdjustWizardDlg.obj
 0002:0001d0b0       ?DoDataExchange@CAdjustWizardDlg@@MAEXPAVCDataExchange@@@Z 0057f0b0 f   AdjustWizardDlg.obj
 0002:0001d360       ?GetMessageMap@CAdjustWizardDlg@@MBEPBUAFX_MSGMAP@@XZ 0057f360 f   AdjustWizardDlg.obj
 0002:0001d3b0       ?GetThisMessageMap@CAdjustWizardDlg@@KGPBUAFX_MSGMAP@@XZ 0057f3b0 f   AdjustWizardDlg.obj
 0002:0001d3f0       ??0?$CStringT@_WV?$StrTraitMFC@_WV?$ChTraitsCRT@_W@ATL@@@@@ATL@@QAE@XZ 0057f3f0 f i AdjustWizardDlg.obj
 0002:0001d450       ??1?$CStringT@_WV?$StrTraitMFC@_WV?$ChTraitsCRT@_W@ATL@@@@@ATL@@QAE@XZ 0057f450 f i AdjustWizardDlg.obj
 0002:0001d4a0       ??4?$CStringT@_WV?$StrTraitMFC@_WV?$ChTraitsCRT@_W@ATL@@@@@ATL@@QAEAAV01@PB_W@Z 0057f4a0 f i AdjustWizardDlg.obj
 0002:0001d500       ??0?$CSimpleStringT@_W$0A@@ATL@@QAE@PAUIAtlStringMgr@1@@Z 0057f500 f i AdjustWizardDlg.obj
 0002:0001d5e0       ?AtlThrowImpl@ATL@@YGXJ@Z  0057f5e0 f i AdjustWizardDlg.obj
 0002:0001d690       ??0CTraceFileAndLineInfo@ATL@@QAE@PBDH@Z 0057f690 f i AdjustWizardDlg.obj
 0002:0001d6e0       ??RCTraceFileAndLineInfo@ATL@@QBAXKIPB_WZZ 0057f6e0 f i AdjustWizardDlg.obj
 0002:0001d770       ?TraceV@CTrace@ATL@@QBAXPBDHKIPB_WPAD@Z 0057f770 f i AdjustWizardDlg.obj
 0002:0001d7e0       ??BCTraceCategory@ATL@@QBEKXZ 0057f7e0 f i AdjustWizardDlg.obj
 0002:0001d820       ??1?$CSimpleStringT@_W$0A@@ATL@@QAE@XZ 0057f820 f i AdjustWizardDlg.obj
 0002:0001d880       ?Release@CStringData@ATL@@QAEXXZ 0057f880 f i AdjustWizardDlg.obj
 0002:0001d940       ??4?$CSimpleStringT@_W$0A@@ATL@@QAEAAV01@PB_W@Z 0057f940 f i AdjustWizardDlg.obj
 0002:0001d9a0       ?GetData@?$CSimpleStringT@_W$0A@@ATL@@ABEPAUCStringData@2@XZ 0057f9a0 f i AdjustWizardDlg.obj
 0002:0001d9e0       ?GetDefaultManager@?$StrTraitMFC@_WV?$ChTraitsCRT@_W@ATL@@@@SAPAUIAtlStringMgr@ATL@@XZ 0057f9e0 f i AdjustWizardDlg.obj
 0002:0001da30       ?SetString@?$CSimpleStringT@_W$0A@@ATL@@QAEXPB_W@Z 0057fa30 f i AdjustWizardDlg.obj
 0002:0001daa0       ?Attach@?$CSimpleStringT@_W$0A@@ATL@@AAEXPAUCStringData@2@@Z 0057faa0 f i AdjustWizardDlg.obj
 0002:0001db00       ?data@CStringData@ATL@@QAEPAXXZ 0057fb00 f i AdjustWizardDlg.obj
 0002:0001db40       ?SetString@?$CSimpleStringT@_W$0A@@ATL@@QAEXPB_WH@Z 0057fb40 f i AdjustWizardDlg.obj
 0002:0001dc60       ?GetLength@?$CSimpleStringT@_W$0A@@ATL@@QBEHXZ 0057fc60 f i AdjustWizardDlg.obj
 0002:0001dcc0       ?GetString@?$CSimpleStringT@_W$0A@@ATL@@QBEPB_WXZ 0057fcc0 f i AdjustWizardDlg.obj
 0002:0001dd00       ?GetBuffer@?$CSimpleStringT@_W$0A@@ATL@@QAEPA_WH@Z 0057fd00 f i AdjustWizardDlg.obj
 0002:0001dd60       ?PrepareWrite@?$CSimpleStringT@_W$0A@@ATL@@AAEPA_WH@Z 0057fd60 f i AdjustWizardDlg.obj
 0002:0001de00       ?Empty@?$CSimpleStringT@_W$0A@@ATL@@QAEXXZ 0057fe00 f i AdjustWizardDlg.obj
 0002:0001ded0       ?IsLocked@CStringData@ATL@@QBE_NXZ 0057fed0 f i AdjustWizardDlg.obj
 0002:0001df20       ?SetLength@?$CSimpleStringT@_W$0A@@ATL@@AAEXH@Z 0057ff20 f i AdjustWizardDlg.obj
 0002:0001e020       ?ReleaseBufferSetLength@?$CSimpleStringT@_W$0A@@ATL@@QAEXH@Z 00580020 f i AdjustWizardDlg.obj
 0002:0001e0b0       ?PrepareWrite2@?$CSimpleStringT@_W$0A@@ATL@@AAEXH@Z 005800b0 f i AdjustWizardDlg.obj
 0002:0001e1b0       ?IsShared@CStringData@ATL@@QBE_NXZ 005801b0 f i AdjustWizardDlg.obj
 0002:0001e200       ?CopyChars@?$CSimpleStringT@_W$0A@@ATL@@SAXPA_WIPB_WH@Z 00580200 f i AdjustWizardDlg.obj
 0002:0001e270       ?StringLength@?$CSimpleStringT@_W$0A@@ATL@@SAHPB_W@Z 00580270 f i AdjustWizardDlg.obj
 0002:0001e2d0       ?Fork@?$CSimpleStringT@_W$0A@@ATL@@AAEXH@Z 005802d0 f i AdjustWizardDlg.obj
 0002:0001e420       ?ThrowMemoryException@?$CSimpleStringT@_W$0A@@ATL@@KAXXZ 00580420 f i AdjustWizardDlg.obj
 0002:0001e470       ?Reallocate@?$CSimpleStringT@_W$0A@@ATL@@AAEXH@Z 00580470 f i AdjustWizardDlg.obj
 0002:0001e570       ?GetAllocLength@?$CSimpleStringT@_W$0A@@ATL@@QBEHXZ 00580570 f i AdjustWizardDlg.obj
 0002:0001e5d0       ?CopyCharsOverlapped@?$CSimpleStringT@_W$0A@@ATL@@SAXPA_WIPB_WH@Z 005805d0 f i AdjustWizardDlg.obj
 0002:0001e640       ?GetRuntimeClass@CChanLiangTongJiDlg@@UBEPAUCRuntimeClass@@XZ 00580640 f   ChanLiangTongJiDlg.obj
 0002:0001e680       ??0CChanLiangTongJiDlg@@QAE@PAVCWnd@@@Z 00580680 f   ChanLiangTongJiDlg.obj
 0002:0001e770       ??_ECChanLiangTongJiDlg@@UAEPAXI@Z 00580770 f i ChanLiangTongJiDlg.obj
 0002:0001e770       ??_GCChanLiangTongJiDlg@@UAEPAXI@Z 00580770 f i ChanLiangTongJiDlg.obj
 0002:0001e7e0       ??1CChanLiangTongJiDlg@@UAE@XZ 005807e0 f   ChanLiangTongJiDlg.obj
 0002:0001e8b0       ?DoDataExchange@CChanLiangTongJiDlg@@MAEXPAVCDataExchange@@@Z 005808b0 f   ChanLiangTongJiDlg.obj
 0002:0001e940       ?GetMessageMap@CChanLiangTongJiDlg@@MBEPBUAFX_MSGMAP@@XZ 00580940 f   ChanLiangTongJiDlg.obj
 0002:0001e990       ?GetThisMessageMap@CChanLiangTongJiDlg@@KGPBUAFX_MSGMAP@@XZ 00580990 f   ChanLiangTongJiDlg.obj
 0002:0001e9d0       ?OnBnClickedButtonView@CChanLiangTongJiDlg@@QAEXXZ 005809d0 f   ChanLiangTongJiDlg.obj
 0002:0001f370       ??0CFileStatus@@QAE@XZ     00581370 f i ChanLiangTongJiDlg.obj
 0002:0001f3e0       ??Y?$CStringT@_WV?$StrTraitMFC@_WV?$ChTraitsCRT@_W@ATL@@@@@ATL@@QAEAAV01@PB_W@Z 005813e0 f i ChanLiangTongJiDlg.obj
 0002:0001f440       ??HATL@@YA?AV?$CStringT@_WV?$StrTraitMFC@_WV?$ChTraitsCRT@_W@ATL@@@@@0@ABV10@0@Z 00581440 f i ChanLiangTongJiDlg.obj
 0002:0001f590       ??0?$CStringT@_WV?$StrTraitMFC@_WV?$ChTraitsCRT@_W@ATL@@@@@ATL@@QAE@PAUIAtlStringMgr@1@@Z 00581590 f i ChanLiangTongJiDlg.obj
 0002:0001f5f0       ?GetManager@?$CStringT@_WV?$StrTraitMFC@_WV?$ChTraitsCRT@_W@ATL@@@@@ATL@@QBEPAUIAtlStringMgr@2@XZ 005815f0 f i ChanLiangTongJiDlg.obj
 0002:0001f680       ??Y?$CSimpleStringT@_W$0A@@ATL@@QAEAAV01@PB_W@Z 00581680 f i ChanLiangTongJiDlg.obj
 0002:0001f6e0       ?Concatenate@?$CSimpleStringT@_W$0A@@ATL@@KAXAAV12@PB_WH1H@Z 005816e0 f i ChanLiangTongJiDlg.obj
 0002:0001f790       ?Append@?$CSimpleStringT@_W$0A@@ATL@@QAEXPB_W@Z 00581790 f i ChanLiangTongJiDlg.obj
 0002:0001f800       ?GetManager@?$CSimpleStringT@_W$0A@@ATL@@QBEPAUIAtlStringMgr@2@XZ 00581800 f i ChanLiangTongJiDlg.obj
 0002:0001f8a0       ?Append@?$CSimpleStringT@_W$0A@@ATL@@QAEXPB_WH@Z 005818a0 f i ChanLiangTongJiDlg.obj
 0002:0001fa90       ?Format@?$CStringT@_WV?$StrTraitMFC@_WV?$ChTraitsCRT@_W@ATL@@@@@ATL@@QAAXPB_WZZ 00581a90 f i ChanLiangTongJiDlg.obj
 0002:0001fb40       ?FormatV@?$CStringT@_WV?$StrTraitMFC@_WV?$ChTraitsCRT@_W@ATL@@@@@ATL@@QAEXPB_WPAD@Z 00581b40 f i ChanLiangTongJiDlg.obj
 0002:0001fc40       ?AtlIsValidString@ATL@@YAHPB_WI@Z 00581c40 f i ChanLiangTongJiDlg.obj
 0002:0001fc80       ?GetFormattedLength@?$ChTraitsCRT@_W@ATL@@SAHPB_WPAD@Z 00581c80 f i ChanLiangTongJiDlg.obj
 0002:0001fce0       ?Format@?$ChTraitsCRT@_W@ATL@@SAHPA_WIPB_WPAD@Z 00581ce0 f i ChanLiangTongJiDlg.obj
 0002:0001fd40       ??0?$CStringT@_WV?$StrTraitMFC@_WV?$ChTraitsCRT@_W@ATL@@@@@ATL@@QAE@ABV01@@Z 00581d40 f i ChanLiangTongJiDlg.obj
 0002:0001fda0       ??B?$CSimpleStringT@_W$0A@@ATL@@QBEPB_WXZ 00581da0 f i ChanLiangTongJiDlg.obj
 0002:0001fde0       ??0?$CSimpleStringT@_W$0A@@ATL@@QAE@ABV01@@Z 00581de0 f i ChanLiangTongJiDlg.obj
 0002:0001fe60       ?CloneData@?$CSimpleStringT@_W$0A@@ATL@@CAPAUCStringData@2@PAU32@@Z 00581e60 f i ChanLiangTongJiDlg.obj
 0002:0001ff90       ?AddRef@CStringData@ATL@@QAEXXZ 00581f90 f i ChanLiangTongJiDlg.obj
 0002:00020020       ??4?$CStringT@_WV?$StrTraitMFC@_WV?$ChTraitsCRT@_W@ATL@@@@@ATL@@QAEAAV01@ABV01@@Z 00582020 f i ChanLiangTongJiDlg.obj
 0002:00020080       ??4?$CSimpleStringT@_W$0A@@ATL@@QAEAAV01@ABV01@@Z 00582080 f i ChanLiangTongJiDlg.obj
 0002:00020170       ??0CColorListCtrl@@QAE@XZ  00582170 f   ColorListCtrl.obj
 0002:00020210       ??_GCColorListCtrl@@UAEPAXI@Z 00582210 f i ColorListCtrl.obj
 0002:00020210       ??_ECColorListCtrl@@UAEPAXI@Z 00582210 f i ColorListCtrl.obj
 0002:00020280       ?SetColumnSize@CColorListCtrl@@QAEXH@Z 00582280 f   ColorListCtrl.obj
 0002:000202d0       ??1CColorListCtrl@@UAE@XZ  005822d0 f   ColorListCtrl.obj
 0002:00020330       ?GetMessageMap@CColorListCtrl@@MBEPBUAFX_MSGMAP@@XZ 00582330 f   ColorListCtrl.obj
 0002:00020380       ?GetThisMessageMap@CColorListCtrl@@KGPBUAFX_MSGMAP@@XZ 00582380 f   ColorListCtrl.obj
 0002:000203c0       ?OnDestroy@CColorListCtrl@@IAEXXZ 005823c0 f   ColorListCtrl.obj
 0002:00020420       ?SetColumnType@CColorListCtrl@@QAEXH@Z 00582420 f   ColorListCtrl.obj
 0002:000204a0       ?SetRectType@CColorListCtrl@@QAEXH@Z 005824a0 f   ColorListCtrl.obj
 0002:00020520       ?SetFocusType@CColorListCtrl@@QAEXH@Z 00582520 f   ColorListCtrl.obj
 0002:000205a0       ?GetMyLParam@CColorListCtrl@@AAEPAVCMyLParam@@H@Z 005825a0 f   ColorListCtrl.obj
 0002:00020650       ?GetFullCellRect@CColorListCtrl@@AAE?AVCRect@@HH@Z 00582650 f   ColorListCtrl.obj
 0002:00020760       ?GetCellRect@CColorListCtrl@@AAE?AVCRect@@HHH@Z 00582760 f   ColorListCtrl.obj
 0002:00020930       ?InvalidateFullItem@CColorListCtrl@@AAEXHH@Z 00582930 f   ColorListCtrl.obj
 0002:000209f0       ?InitCtrl@CColorListCtrl@@QAEHPAVCStringArray@@PAVCByteArray@@@Z 005829f0 f   ColorListCtrl.obj
 0002:00020bc0       ?AddItem@CColorListCtrl@@QAEHPAVCStringArray@@H@Z 00582bc0 f   ColorListCtrl.obj
 0002:00020e70       ??0CMyLParam@@QAE@H@Z      00582e70 f i ColorListCtrl.obj
 0002:00020fc0       ??_ECMyLParam@@UAEPAXI@Z   00582fc0 f i ColorListCtrl.obj
 0002:00020fc0       ??_GCMyLParam@@UAEPAXI@Z   00582fc0 f i ColorListCtrl.obj
 0002:00021030       ??1CMyLParam@@UAE@XZ       00583030 f i ColorListCtrl.obj
 0002:000210e0       ?DeleteAllItems@CColorListCtrl@@QAEHXZ 005830e0 f   ColorListCtrl.obj
 0002:00021160       ?DeleteItem@CColorListCtrl@@QAEHH@Z 00583160 f   ColorListCtrl.obj
 0002:00021270       ?GetData@CMyLParam@@QAEKXZ 00583270 f i ColorListCtrl.obj
 0002:000212b0       ?GetItemData@CColorListCtrl@@QBEKH@Z 005832b0 f   ColorListCtrl.obj
 0002:00021330       ?SetItemData@CColorListCtrl@@QAEHHK@Z 00583330 f   ColorListCtrl.obj
 0002:000213b0       ?SetData@CMyLParam@@QAEXK@Z 005833b0 f i ColorListCtrl.obj
 0002:00021400       ?SetItemBackgndColor@CColorListCtrl@@QAEHKHH@Z 00583400 f   ColorListCtrl.obj
 0002:000214a0       ?SetBackColor@CMyLParam@@QAEHKH@Z 005834a0 f i ColorListCtrl.obj
 0002:00021510       ?SetItemTextColor@CColorListCtrl@@QAEHKHH@Z 00583510 f   ColorListCtrl.obj
 0002:000215c0       ?SetTextColor@CMyLParam@@QAEHKH@Z 005835c0 f i ColorListCtrl.obj
 0002:00021630       ?GetItemBackgndColor@CColorListCtrl@@QAEKHH@Z 00583630 f   ColorListCtrl.obj
 0002:000216b0       ?GetBackColor@CMyLParam@@QAEKH@Z 005836b0 f i ColorListCtrl.obj
 0002:00021730       ?GetItemTextColor@CColorListCtrl@@QAEKHH@Z 00583730 f   ColorListCtrl.obj
 0002:000217b0       ?GetTextColor@CMyLParam@@QAEKH@Z 005837b0 f i ColorListCtrl.obj
 0002:00021830       ?OnPaint@CColorListCtrl@@IAEXXZ 00583830 f   ColorListCtrl.obj
 0002:00021b50       ?RepaintSelectedItems@CColorListCtrl@@QAEXXZ 00583b50 f   ColorListCtrl.obj
 0002:00021c20       ?SetSel@CColorListCtrl@@QAEHHH@Z 00583c20 f   ColorListCtrl.obj
 0002:00021ce0       ?SetItemState@CColorListCtrl@@QAEHHII@Z 00583ce0 f i ColorListCtrl.obj
 0002:00021d60       ?OnKillFocus@CColorListCtrl@@IAEXPAVCWnd@@@Z 00583d60 f   ColorListCtrl.obj
 0002:00021e00       ?OnSetFocus@CColorListCtrl@@IAEXPAVCWnd@@@Z 00583e00 f   ColorListCtrl.obj
 0002:00021e90       ?DrawItem@CColorListCtrl@@MAEXPAUtagDRAWITEMSTRUCT@@@Z 00583e90 f   ColorListCtrl.obj
 0002:000229e0       ?OnSize@CColorListCtrl@@IAEXIHH@Z 005849e0 f   ColorListCtrl.obj
 0002:00022a60       ?SetRowHeight@CColorListCtrl@@QAEXH@Z 00584a60 f   ColorListCtrl.obj
 0002:00022b60       ?MeasureItem@CColorListCtrl@@QAEXPAUtagMEASUREITEMSTRUCT@@@Z 00584b60 f   ColorListCtrl.obj
 0002:00022bc0       ?OnMeasureItem@CColorListCtrl@@QAEXHPAUtagMEASUREITEMSTRUCT@@@Z 00584bc0 f   ColorListCtrl.obj
 0002:00022c20       ??0CCopyRight@@QAE@XZ      00584c20 f   CopyRight.obj
 0002:00022d60       ??_GCCopyRight@@UAEPAXI@Z  00584d60 f i CopyRight.obj
 0002:00022d60       ??_ECCopyRight@@UAEPAXI@Z  00584d60 f i CopyRight.obj
 0002:00022dd0       ??1CCopyRight@@UAE@XZ      00584dd0 f   CopyRight.obj
 0002:00022e10       ?ReadSN@CCopyRight@@QAEXHPAVCStringArray@@@Z 00584e10 f   CopyRight.obj
 0002:00022e50       ?SetCmdString@CCopyRight@@QAEXPAV?$CStringT@_WV?$StrTraitMFC@_WV?$ChTraitsCRT@_W@ATL@@@@@ATL@@HW4COMMAND_ID@@QAD@Z 00584e50 f   CopyRight.obj
 0002:00022e90       ?IsCopyRightCheckTime@CCopyRight@@QAE_NXZ 00584e90 f   CopyRight.obj
 0002:00022f60       ?ReadAuthor@CCopyRight@@QAEXHPAVCStringArray@@@Z 00584f60 f   CopyRight.obj
 0002:00022fa0       ?ReadProductDate@CCopyRight@@QAEXHPAVCStringArray@@@Z 00584fa0 f   CopyRight.obj
 0002:00022fe0       ?ReadBuildDate@CCopyRight@@QAEXHPAVCStringArray@@@Z 00584fe0 f   CopyRight.obj
 0002:00023020       ?IsCopyRightOK@CCopyRight@@QAE_NXZ 00585020 f   CopyRight.obj
 0002:00023540       ?SaveSN@CCopyRight@@QAEXHPAD@Z 00585540 f   CopyRight.obj
 0002:00023580       ?SaveAuthor@CCopyRight@@QAEXHPAD@Z 00585580 f   CopyRight.obj
 0002:000235c0       ?SaveProductDate@CCopyRight@@QAEXHPAD@Z 005855c0 f   CopyRight.obj
 0002:00023600       ?SaveBuildDate@CCopyRight@@QAEXHPAD@Z 00585600 f   CopyRight.obj
 0002:00023640       ??0CCreateModifyParaDlg@@QAE@PAVCWnd@@@Z 00585640 f   CreateModifyParaDlg.obj
 0002:00023960       ??_GCCreateModifyParaDlg@@UAEPAXI@Z 00585960 f i CreateModifyParaDlg.obj
 0002:00023960       ??_ECCreateModifyParaDlg@@UAEPAXI@Z 00585960 f i CreateModifyParaDlg.obj
 0002:000239d0       ??1CCreateModifyParaDlg@@UAE@XZ 005859d0 f i CreateModifyParaDlg.obj
 0002:00023ac0       ?DoDataExchange@CCreateModifyParaDlg@@MAEXPAVCDataExchange@@@Z 00585ac0 f   CreateModifyParaDlg.obj
 0002:00023fb0       ?GetMessageMap@CCreateModifyParaDlg@@MBEPBUAFX_MSGMAP@@XZ 00585fb0 f   CreateModifyParaDlg.obj
 0002:00024000       ?GetThisMessageMap@CCreateModifyParaDlg@@KGPBUAFX_MSGMAP@@XZ 00586000 f   CreateModifyParaDlg.obj
 0002:00024040       ?OnSave@CCreateModifyParaDlg@@IAEXXZ 00586040 f   CreateModifyParaDlg.obj
 0002:00024a00       ??1CInputDlg@@UAE@XZ       00586a00 f i CreateModifyParaDlg.obj
 0002:00024a70       ?Show_BOX_128_ONLY_OPENTEMP_TEST@CCreateModifyParaDlg@@QAEXXZ 00586a70 f   CreateModifyParaDlg.obj
 0002:00024f80       ?OnInitDialog@CCreateModifyParaDlg@@MAEHXZ 00586f80 f   CreateModifyParaDlg.obj
 0002:00025020       ?OnSelchangeListParaName@CCreateModifyParaDlg@@IAEXXZ 00587020 f   CreateModifyParaDlg.obj
 0002:00025940       ?UpdateParaNameList@CCreateModifyParaDlg@@QAEXXZ 00587940 f   CreateModifyParaDlg.obj
 0002:00025d00       ?OnDelete@CCreateModifyParaDlg@@IAEXXZ 00587d00 f   CreateModifyParaDlg.obj
 0002:00026080       ?OnCbnSelchangeComboParaType@CCreateModifyParaDlg@@QAEXXZ 00588080 f   CreateModifyParaDlg.obj
 0002:000260f0       ?ShowItems@CCreateModifyParaDlg@@QAEXH@Z 005880f0 f   CreateModifyParaDlg.obj
 0002:000267d0       ?OnEnSetfocusEdit_2@CCreateModifyParaDlg@@QAEXI@Z 005887d0 f   CreateModifyParaDlg.obj
 0002:00026aa0       ?OnEnSetfocusEdit@CCreateModifyParaDlg@@QAEXI@Z 00588aa0 f   CreateModifyParaDlg.obj
 0002:00026e80       ?OnCbnSetfocusComboParaType@CCreateModifyParaDlg@@QAEXXZ 00588e80 f   CreateModifyParaDlg.obj
 0002:00026ec0       ?OnEnSetfocusEditParaName@CCreateModifyParaDlg@@QAEXXZ 00588ec0 f   CreateModifyParaDlg.obj
 0002:00026f40       ?OnEnKillfocusEditParaName@CCreateModifyParaDlg@@QAEXXZ 00588f40 f   CreateModifyParaDlg.obj
 0002:00026f80       ?OnEnChangeEditLowLevelSpanPlus5@CCreateModifyParaDlg@@QAEXXZ 00588f80 f   CreateModifyParaDlg.obj
 0002:00026fc0       ?Find@?$CStringT@_WV?$StrTraitMFC@_WV?$ChTraitsCRT@_W@ATL@@@@@ATL@@QBEHPB_WH@Z 00588fc0 f i CreateModifyParaDlg.obj
 0002:00027110       ?Trim@?$CStringT@_WV?$StrTraitMFC@_WV?$ChTraitsCRT@_W@ATL@@@@@ATL@@QAEAAV12@XZ 00589110 f i CreateModifyParaDlg.obj
 0002:00027170       ?Left@?$CStringT@_WV?$StrTraitMFC@_WV?$ChTraitsCRT@_W@ATL@@@@@ATL@@QBE?AV12@H@Z 00589170 f i CreateModifyParaDlg.obj
 0002:00027250       ??HATL@@YA?AV?$CStringT@_WV?$StrTraitMFC@_WV?$ChTraitsCRT@_W@ATL@@@@@0@ABV10@PB_W@Z 00589250 f i CreateModifyParaDlg.obj
 0002:000273a0       ??0?$CStringT@_WV?$StrTraitMFC@_WV?$ChTraitsCRT@_W@ATL@@@@@ATL@@QAE@PB_WHPAUIAtlStringMgr@1@@Z 005893a0 f i CreateModifyParaDlg.obj
 0002:00027410       ?TrimRight@?$CStringT@_WV?$StrTraitMFC@_WV?$ChTraitsCRT@_W@ATL@@@@@ATL@@QAEAAV12@XZ 00589410 f i CreateModifyParaDlg.obj
 0002:000274f0       ?TrimLeft@?$CStringT@_WV?$StrTraitMFC@_WV?$ChTraitsCRT@_W@ATL@@@@@ATL@@QAEAAV12@XZ 005894f0 f i CreateModifyParaDlg.obj
 0002:00027610       ??0?$CSimpleStringT@_W$0A@@ATL@@QAE@PB_WHPAUIAtlStringMgr@1@@Z 00589610 f i CreateModifyParaDlg.obj
 0002:00027750       ?Truncate@?$CSimpleStringT@_W$0A@@ATL@@QAEXH@Z 00589750 f i CreateModifyParaDlg.obj
 0002:000277f0       ?memmove_s@Checked@ATL@@YAXPAXIPBXI@Z 005897f0 f i CreateModifyParaDlg.obj
 0002:00027860       ?AfxCrtErrorCheck@@YAHH@Z  00589860 f i CreateModifyParaDlg.obj
 0002:00027970       ?CharNextW@?$ChTraitsCRT@_W@ATL@@SAPA_WPB_W@Z 00589970 f i CreateModifyParaDlg.obj
 0002:000279b0       ?IsSpace@?$ChTraitsCRT@_W@ATL@@SAH_W@Z 005899b0 f i CreateModifyParaDlg.obj
 0002:00027a00       ?StringFindString@?$ChTraitsCRT@_W@ATL@@SAPB_WPB_W0@Z 00589a00 f i CreateModifyParaDlg.obj
 0002:00027a60       ??0?$CStringT@_WV?$StrTraitMFC@_WV?$ChTraitsCRT@_W@ATL@@@@@ATL@@QAE@PB_W@Z 00589a60 f i CreateModifyParaDlg.obj
 0002:00027b30       ?CheckImplicitLoad@?$CStringT@_WV?$StrTraitMFC@_WV?$ChTraitsCRT@_W@ATL@@@@@ATL@@AAE_NPBX@Z 00589b30 f i CreateModifyParaDlg.obj
 0002:00027c00       ?LoadStringW@?$CStringT@_WV?$StrTraitMFC@_WV?$ChTraitsCRT@_W@ATL@@@@@ATL@@QAEHI@Z 00589c00 f i CreateModifyParaDlg.obj
 0002:00027c80       ?LoadStringW@?$CStringT@_WV?$StrTraitMFC@_WV?$ChTraitsCRT@_W@ATL@@@@@ATL@@QAEHPAUHINSTANCE__@@I@Z 00589c80 f i CreateModifyParaDlg.obj
 0002:00027d60       ?AtlGetStringResourceImage@ATL@@YAPBUATLSTRINGRESOURCEIMAGE@1@PAUHINSTANCE__@@I@Z 00589d60 f i CreateModifyParaDlg.obj
 0002:00027e00       ?_AtlGetStringResourceImage@ATL@@YAPBUATLSTRINGRESOURCEIMAGE@1@PAUHINSTANCE__@@PAUHRSRC__@@I@Z 00589e00 f i CreateModifyParaDlg.obj
 0002:00027f30       ?GetBaseTypeLength@?$ChTraitsCRT@_W@ATL@@SAHPB_WH@Z 00589f30 f i CreateModifyParaDlg.obj
 0002:00027f70       ?ConvertToBaseType@?$ChTraitsCRT@_W@ATL@@SAXPA_WHPB_WH@Z 00589f70 f i CreateModifyParaDlg.obj
 0002:00027ff0       ?wmemcpy_s@Checked@ATL@@YAXPA_WIPB_WI@Z 00589ff0 f i CreateModifyParaDlg.obj
 0002:00028060       _wmemcpy_s                 0058a060 f i CreateModifyParaDlg.obj
 0002:000280d0       ?GetBaseTypeLength@?$ChTraitsCRT@_W@ATL@@SAHPB_W@Z 0058a0d0 f i CreateModifyParaDlg.obj
 0002:00028120       ?FindStringResourceInstance@?$StrTraitMFC@_WV?$ChTraitsCRT@_W@ATL@@@@SAPAUHINSTANCE__@@I@Z 0058a120 f i CreateModifyParaDlg.obj
 0002:00028170       ?GetRuntimeClass@CCurveDlg@@UBEPAUCRuntimeClass@@XZ 0058a170 f   CurveDlg.obj
 0002:000281b0       ??0CCurveDlg@@QAE@PAVCWnd@@@Z 0058a1b0 f   CurveDlg.obj
 0002:00028290       ??_ECCurveDlg@@UAEPAXI@Z   0058a290 f i CurveDlg.obj
 0002:00028290       ??_GCCurveDlg@@UAEPAXI@Z   0058a290 f i CurveDlg.obj
 0002:00028300       ??1CCurveDlg@@UAE@XZ       0058a300 f   CurveDlg.obj
 0002:000283c0       ?DoDataExchange@CCurveDlg@@MAEXPAVCDataExchange@@@Z 0058a3c0 f   CurveDlg.obj
 0002:00028420       ?GetMessageMap@CCurveDlg@@MBEPBUAFX_MSGMAP@@XZ 0058a420 f   CurveDlg.obj
 0002:00028470       ?GetThisMessageMap@CCurveDlg@@KGPBUAFX_MSGMAP@@XZ 0058a470 f   CurveDlg.obj
 0002:000284b0       ?OnInitDialog@CCurveDlg@@UAEHXZ 0058a4b0 f   CurveDlg.obj
 0002:00028540       ?DrawNtcTempCurve@CCurveDlg@@QAEXXZ 0058a540 f   CurveDlg.obj
 0002:00029cc0       ?DrawTempCurve@CCurveDlg@@QAEXH@Z 0058bcc0 f   CurveDlg.obj
 0002:00029f50       ?OnBnClickedOk@CCurveDlg@@QAEXXZ 0058bf50 f   CurveDlg.obj
 0002:00029fc0       ?OnClose@CCurveDlg@@QAEXXZ 0058bfc0 f   CurveDlg.obj
 0002:0002a390       ?OnPaint@CCurveDlg@@QAEXXZ 0058c390 f   CurveDlg.obj
 0002:0002a490       ?OnBnClickedButtonSave@CCurveDlg@@QAEXXZ 0058c490 f   CurveDlg.obj
 0002:0002a4d0       ??HATL@@YA?AV?$CStringT@_WV?$StrTraitMFC@_WV?$ChTraitsCRT@_W@ATL@@@@@0@PB_WABV10@@Z 0058c4d0 f i CurveDlg.obj
 0002:0002a620       ??0?$CArray@UNTC_RECORD@@U1@@@QAE@XZ 0058c620 f i CurveDlg.obj
 0002:0002a6b0       ?GetSize@?$CArray@UNTC_RECORD@@U1@@@QBEHXZ 0058c6b0 f i CurveDlg.obj
 0002:0002a6f0       ?GetAt@?$CArray@UNTC_RECORD@@U1@@@QAEAAUNTC_RECORD@@H@Z 0058c6f0 f i CurveDlg.obj
 0002:0002a7a0       ??1?$CArray@UNTC_RECORD@@U1@@@UAE@XZ 0058c7a0 f i CurveDlg.obj
 0002:0002a8b0       ?Serialize@?$CArray@UNTC_RECORD@@U1@@@UAEXAAVCArchive@@@Z 0058c8b0 f i CurveDlg.obj
 0002:0002a980       ?Dump@?$CArray@UNTC_RECORD@@U1@@@UBEXAAVCDumpContext@@@Z 0058c980 f i CurveDlg.obj
 0002:0002aa60       ?AssertValid@?$CArray@UNTC_RECORD@@U1@@@UBEXXZ 0058ca60 f i CurveDlg.obj
 0002:0002abc0       ?GetSize@?$CArray@UTEMP_RECORD_8TEMP_8SSR@@U1@@@QBEHXZ 0058cbc0 f i CurveDlg.obj
 0002:0002ac00       ?GetAt@?$CArray@UTEMP_RECORD_8TEMP_8SSR@@U1@@@QAEAAUTEMP_RECORD_8TEMP_8SSR@@H@Z 0058cc00 f i CurveDlg.obj
 0002:0002acb0       ??_G?$CArray@UNTC_RECORD@@U1@@@UAEPAXI@Z 0058ccb0 f i CurveDlg.obj
 0002:0002acb0       ??_E?$CArray@UNTC_RECORD@@U1@@@UAEPAXI@Z 0058ccb0 f i CurveDlg.obj
 0002:0002ad20       ?SetSize@?$CArray@UNTC_RECORD@@U1@@@QAEXHH@Z 0058cd20 f i CurveDlg.obj
 0002:0002b300       ??2@YAPAXIPAX@Z            0058d300 f i CurveDlg.obj
 0002:0002b340       ?memcpy_s@Checked@ATL@@YAXPAXIPBXI@Z 0058d340 f i CurveDlg.obj
 0002:0002b3b0       ??$SerializeElements@UNTC_RECORD@@@@YGXAAVCArchive@@PAUNTC_RECORD@@H@Z 0058d3b0 f i CurveDlg.obj
 0002:0002b5b0       ??$DumpElements@UNTC_RECORD@@@@YGXAAVCDumpContext@@PBUNTC_RECORD@@H@Z 0058d5b0 f i CurveDlg.obj
 0002:0002b6a0       ?Format@CTime@ATL@@QBE?AV?$CStringT@_WV?$StrTraitMFC@_WV?$ChTraitsCRT@_W@ATL@@@@@2@PB_W@Z 0058d6a0 f i CurveDlg.obj
 0002:0002b820       ?GetPcbModeText@@YAXHPAD@Z 0058d820 f   DebugDlg.obj
 0002:0002b950       ??0CDebugDlg@@QAE@PAVCWnd@@@Z 0058d950 f   DebugDlg.obj
 0002:0002bc40       ??_GCDebugDlg@@UAEPAXI@Z   0058dc40 f i DebugDlg.obj
 0002:0002bc40       ??_ECDebugDlg@@UAEPAXI@Z   0058dc40 f i DebugDlg.obj
 0002:0002bcb0       ??_H@YGXPAXIHP6EPAX0@Z@Z   0058dcb0 f i DebugDlg.obj
 0002:0002bd20       ??1CDebugDlg@@UAE@XZ       0058dd20 f i DebugDlg.obj
 0002:0002be50       ?DoDataExchange@CDebugDlg@@MAEXPAVCDataExchange@@@Z 0058de50 f   DebugDlg.obj
 0002:0002c060       ?GetMessageMap@CDebugDlg@@MBEPBUAFX_MSGMAP@@XZ 0058e060 f   DebugDlg.obj
 0002:0002c0b0       ?GetThisMessageMap@CDebugDlg@@KGPBUAFX_MSGMAP@@XZ 0058e0b0 f   DebugDlg.obj
 0002:0002c0f0       ?OnButton_STOP_OUT@CDebugDlg@@QAEXXZ 0058e0f0 f   DebugDlg.obj
 0002:0002c160       ?OnButton_ReadAdjustLow@CDebugDlg@@IAEXXZ 0058e160 f   DebugDlg.obj
 0002:0002c1c0       ?OnButton_ReadAdjustHigh@CDebugDlg@@IAEXXZ 0058e1c0 f   DebugDlg.obj
 0002:0002c220       ?OnButton13@CDebugDlg@@IAEXXZ 0058e220 f   DebugDlg.obj
 0002:0002c300       ?OnButton17@CDebugDlg@@IAEXXZ 0058e300 f   DebugDlg.obj
 0002:0002c450       ?OnButton_Cal_Adjust@CDebugDlg@@IAEXXZ 0058e450 f   DebugDlg.obj
 0002:0002cb80       ?OnButton18@CDebugDlg@@IAEXXZ 0058eb80 f   DebugDlg.obj
 0002:0002ccd0       ?OnButton2@CDebugDlg@@IAEXXZ 0058ecd0 f   DebugDlg.obj
 0002:0002cdd0       ?OnButton_PID@CDebugDlg@@QAEXXZ 0058edd0 f   DebugDlg.obj
 0002:0002d050       ?OnButton4@CDebugDlg@@IAEXXZ 0058f050 f   DebugDlg.obj
 0002:0002d1a0       ?OnButton5@CDebugDlg@@IAEXXZ 0058f1a0 f   DebugDlg.obj
 0002:0002d200       ?OnButton6@CDebugDlg@@IAEXXZ 0058f200 f   DebugDlg.obj
 0002:0002d260       ?OnButtonSetPID@CDebugDlg@@IAEXXZ 0058f260 f   DebugDlg.obj
 0002:0002d680       ?OnButton_SetAdjustLow@CDebugDlg@@IAEXXZ 0058f680 f   DebugDlg.obj
 0002:0002d880       ?OnButton_SetAdjustHigh@CDebugDlg@@IAEXXZ 0058f880 f   DebugDlg.obj
 0002:0002dbc0       ?OnButtonAll@CDebugDlg@@QAEXH@Z 0058fbc0 f   DebugDlg.obj
 0002:0002dc00       ?OnButtonBoardAdjust@CDebugDlg@@IAEXXZ 0058fc00 f   DebugDlg.obj
 0002:0002dc40       ?OnChar@CDebugDlg@@IAEXIII@Z 0058fc40 f   DebugDlg.obj
 0002:0002dce0       ?OnKeyDown@CDebugDlg@@IAEXIII@Z 0058fce0 f   DebugDlg.obj
 0002:0002dd40       ?WinHelpW@CDebugDlg@@UAEXKI@Z 0058fd40 f   DebugDlg.obj
 0002:0002dda0       ?OnRButtonDblClk@CDebugDlg@@IAEXIVCPoint@@@Z 0058fda0 f   DebugDlg.obj
 0002:0002de00       ?OnButtonSynchronizationBegin@CDebugDlg@@IAEXXZ 0058fe00 f   DebugDlg.obj
 0002:0002de40       ?OnButtonReset@CDebugDlg@@IAEXXZ 0058fe40 f   DebugDlg.obj
 0002:0002de80       ?OnButtonReadSynchronization@CDebugDlg@@IAEXXZ 0058fe80 f   DebugDlg.obj
 0002:0002dec0       ?OnButtonRecordView@CDebugDlg@@IAEXXZ 0058fec0 f   DebugDlg.obj
 0002:0002dfe0       ??1CRecordViewDlg@@UAE@XZ  0058ffe0 f i DebugDlg.obj
 0002:0002e140       ?OnButtonCopyright@CDebugDlg@@IAEXXZ 00590140 f   DebugDlg.obj
 0002:0002e180       ?OnButtonOpenDoor@CDebugDlg@@IAEXXZ 00590180 f   DebugDlg.obj
 0002:0002e290       ?OnButtonHighVolt@CDebugDlg@@IAEXXZ 00590290 f   DebugDlg.obj
 0002:0002e2d0       ?OnRadioLedStatus@CDebugDlg@@QAEXXZ 005902d0 f   DebugDlg.obj
 0002:0002e350       ?OnRadioLedAllOn@CDebugDlg@@QAEXXZ 00590350 f   DebugDlg.obj
 0002:0002e3d0       ?OnRadioLedAllOff@CDebugDlg@@QAEXXZ 005903d0 f   DebugDlg.obj
 0002:0002e450       ?OnButtonAdjustWizard@CDebugDlg@@IAEXXZ 00590450 f   DebugDlg.obj
 0002:0002e490       ?ShowPCBType@CDebugDlg@@QAEXXZ 00590490 f   DebugDlg.obj
 0002:0002e510       ?PreTranslateMessage@CDebugDlg@@UAEHPAUtagMSG@@@Z 00590510 f   DebugDlg.obj
 0002:0002e590       ?OnInitDialog@CDebugDlg@@MAEHXZ 00590590 f   DebugDlg.obj
 0002:0002e6d0       ?OnButtonSetAdjustAll@CDebugDlg@@IAEXXZ 005906d0 f   DebugDlg.obj
 0002:0002e7e0       ?OnButtonReadAdjustAll@CDebugDlg@@IAEXXZ 005907e0 f   DebugDlg.obj
 0002:0002e840       ?OnCheckReset@CDebugDlg@@IAEXXZ 00590840 f   DebugDlg.obj
 0002:0002e900       ?OnButtonCalTemp@CDebugDlg@@IAEXXZ 00590900 f   DebugDlg.obj
 0002:0002e990       ?OnTimer@CDebugDlg@@IAEXI@Z 00590990 f   DebugDlg.obj
 0002:0002e9f0       ?IsAdjustAllZero@CDebugDlg@@QAE_NXZ 005909f0 f   DebugDlg.obj
 0002:0002eb30       ?DealCmdAnswer@CDebugDlg@@QAEXHHPAE0_N@Z 00590b30 f   DebugDlg.obj
 0002:00031970       ?OnCtlColor@CDebugDlg@@QAEPAUHBRUSH__@@PAVCDC@@PAVCWnd@@I@Z 00593970 f   DebugDlg.obj
 0002:00031ab0       ?OnBnClickedCheckRelay@CDebugDlg@@QAEXXZ 00593ab0 f   DebugDlg.obj
 0002:00031bc0       ?OnBnClickedCheckHighVolt@CDebugDlg@@QAEXXZ 00593bc0 f   DebugDlg.obj
 0002:00031c40       ?DrawLED_JiaJu@CDebugDlg@@QAEXXZ 00593c40 f   DebugDlg.obj
 0002:00031e00       ?DrawLED@CDebugDlg@@QAEXXZ 00593e00 f   DebugDlg.obj
 0002:000320a0       ?OnEnSetfocusEditPara4@CDebugDlg@@QAEXXZ 005940a0 f   DebugDlg.obj
 0002:000320f0       ?OnEnSetfocusEditPara@CDebugDlg@@QAEXI@Z 005940f0 f   DebugDlg.obj
 0002:000329a0       ?OnEnSetfocusEditSetAdjustAll@CDebugDlg@@QAEXXZ 005949a0 f   DebugDlg.obj
 0002:00032b30       ?OnBnClickedCheckCoolRelay@CDebugDlg@@QAEXXZ 00594b30 f   DebugDlg.obj
 0002:00032cf0       ?OnBnClickedButton14@CDebugDlg@@QAEXXZ 00594cf0 f   DebugDlg.obj
 0002:00032e40       ?OnActivate@CDebugDlg@@QAEXIPAVCWnd@@H@Z 00594e40 f   DebugDlg.obj
 0002:00032eb0       ?OnSize@CDebugDlg@@QAEXIHH@Z 00594eb0 f   DebugDlg.obj
 0002:00032f10       ?OnBnClickedButtonSetAddr@CDebugDlg@@QAEXXZ 00594f10 f   DebugDlg.obj
 0002:00033090       ?OnBnClickedButtonPrinterTest@CDebugDlg@@QAEXXZ 00595090 f   DebugDlg.obj
 0002:000330e0       ?OnBnClickedButtonUpdateFirmware@CDebugDlg@@QAEXXZ 005950e0 f   DebugDlg.obj
 0002:000332b0       ?OnBnClickedButtonAt@CDebugDlg@@QAEXXZ 005952b0 f   DebugDlg.obj
 0002:00033410       ?OnBnClickedCheckDeltaFrequnce@CDebugDlg@@QAEXXZ 00595410 f   DebugDlg.obj
 0002:00033450       ?OnEnSetfocusEditSetPt100Count@CDebugDlg@@QAEXXZ 00595450 f   DebugDlg.obj
 0002:000335e0       ?OnBnClickedButtonSetAPT100Count@CDebugDlg@@QAEXXZ 005955e0 f   DebugDlg.obj
 0002:00033730       ?OnBnClickedCheckJiajuTest@CDebugDlg@@QAEXXZ 00595730 f   DebugDlg.obj
 0002:00033850       ?OnCbnSelendokComboInterfaceBoardType@CDebugDlg@@QAEXXZ 00595850 f   DebugDlg.obj
 0002:00033900       ?OnBnClickedButtonReadBimetallicStrip@CDebugDlg@@QAEXXZ 00595900 f   DebugDlg.obj
 0002:000339a0       ?OnEnChangeEditPara9@CDebugDlg@@QAEXXZ 005959a0 f   DebugDlg.obj
 0002:000339e0       ?OnCbnSelchangeComboTm7705Osc@CDebugDlg@@QAEXXZ 005959e0 f   DebugDlg.obj
 0002:00033a20       ?OnCbnSelendokComboTm7705Osc@CDebugDlg@@QAEXXZ 00595a20 f   DebugDlg.obj
 0002:00033ac0       ?OnBnClickedButtonUpdateBootloader@CDebugDlg@@QAEXXZ 00595ac0 f   DebugDlg.obj
 0002:00033b00       ?OnBnClickedCheck192InterfacePcbType@CDebugDlg@@QAEXXZ 00595b00 f   DebugDlg.obj
 0002:00033bb0       ?OnBnClickedCheckBeep@CDebugDlg@@QAEXXZ 00595bb0 f   DebugDlg.obj
 0002:00033ce0       ?OnBnClickedCheckFan@CDebugDlg@@QAEXXZ 00595ce0 f   DebugDlg.obj
 0002:00033d60       ?OnBnClickedButtonClearSound@CDebugDlg@@QAEXXZ 00595d60 f   DebugDlg.obj
 0002:00033dc0       ?OnStnClickedStaticTest@CDebugDlg@@QAEXXZ 00595dc0 f   DebugDlg.obj
 0002:00033e00       ?OnEnSetfocusEditPara13@CDebugDlg@@QAEXXZ 00595e00 f   DebugDlg.obj
 0002:00033e40       ?OnEnSetfocusEditPara14@CDebugDlg@@QAEXXZ 00595e40 f   DebugDlg.obj
 0002:00033e80       ?OnBnClickedButtonCpuId@CDebugDlg@@QAEXXZ 00595e80 f   DebugDlg.obj
 0002:00033ee0       ?OnCbnSelchangeComboInterfaceBoardType@CDebugDlg@@QAEXXZ 00595ee0 f   DebugDlg.obj
 0002:00033f20       ?OnBnClickedButtonNtcRelayLed@CDebugDlg@@QAEXXZ 00595f20 f   DebugDlg.obj
 0002:00034030       ?Replace@?$CStringT@_WV?$StrTraitMFC@_WV?$ChTraitsCRT@_W@ATL@@@@@ATL@@QAEHPB_W0@Z 00596030 f i DebugDlg.obj
 0002:00034340       ?RemoveAll@?$CArray@HH@@QAEXXZ 00596340 f i DebugDlg.obj
 0002:000343a0       ??0?$CArray@UTEMP_TIME@@U1@@@QAE@XZ 005963a0 f i DebugDlg.obj
 0002:00034430       ?GetCount@?$CArray@UTEMP_TIME@@U1@@@QBEHXZ 00596430 f i DebugDlg.obj
 0002:00034470       ?Add@?$CArray@UTEMP_TIME@@U1@@@QAEHUTEMP_TIME@@@Z 00596470 f i DebugDlg.obj
 0002:00034500       ?RemoveAt@?$CArray@UTEMP_TIME@@U1@@@QAEXHH@Z 00596500 f i DebugDlg.obj
 0002:000346b0       ??1?$CArray@UTEMP_TIME@@U1@@@UAE@XZ 005966b0 f i DebugDlg.obj
 0002:000347c0       ?Serialize@?$CArray@UTEMP_TIME@@U1@@@UAEXAAVCArchive@@@Z 005967c0 f i DebugDlg.obj
 0002:00034890       ?Dump@?$CArray@UTEMP_TIME@@U1@@@UBEXAAVCDumpContext@@@Z 00596890 f i DebugDlg.obj
 0002:00034970       ?AssertValid@?$CArray@UTEMP_TIME@@U1@@@UBEXXZ 00596970 f i DebugDlg.obj
 0002:00034ad0       ?RemoveAll@?$CArray@UMODBUS_RS485_CMD_192@@U1@@@QAEXXZ 00596ad0 f i DebugDlg.obj
 0002:00034b30       ?RemoveAll@?$CArray@UMODBUS_RS485_CMD_128@@U1@@@QAEXXZ 00596b30 f i DebugDlg.obj
 0002:00034b90       ??_G?$CArray@UTEMP_TIME@@U1@@@UAEPAXI@Z 00596b90 f i DebugDlg.obj
 0002:00034b90       ??_E?$CArray@UTEMP_TIME@@U1@@@UAEPAXI@Z 00596b90 f i DebugDlg.obj
 0002:00034c00       ?SetSize@?$CArray@HH@@QAEXHH@Z 00596c00 f i DebugDlg.obj
 0002:00035190       ?SetSize@?$CArray@UTEMP_TIME@@U1@@@QAEXHH@Z 00597190 f i DebugDlg.obj
 0002:00035730       ?SetAtGrow@?$CArray@UTEMP_TIME@@U1@@@QAEXHUTEMP_TIME@@@Z 00597730 f i DebugDlg.obj
 0002:00035810       ??$SerializeElements@UTEMP_TIME@@@@YGXAAVCArchive@@PAUTEMP_TIME@@H@Z 00597810 f i DebugDlg.obj
 0002:00035a00       ??$DumpElements@UTEMP_TIME@@@@YGXAAVCDumpContext@@PBUTEMP_TIME@@H@Z 00597a00 f i DebugDlg.obj
 0002:00035af0       ?StringFindString@?$ChTraitsCRT@_W@ATL@@SAPA_WPA_WPB_W@Z 00597af0 f i DebugDlg.obj
 0002:00035b50       ?SafeStringLen@?$ChTraitsCRT@_W@ATL@@SAHPB_W@Z 00597b50 f i DebugDlg.obj
 0002:00035bd0       ?SetSize@?$CArray@UMODBUS_RS485_CMD_192@@U1@@@QAEXHH@Z 00597bd0 f i DebugDlg.obj
 0002:00036170       ?SetSize@?$CArray@UMODBUS_RS485_CMD_128@@U1@@@QAEXHH@Z 00598170 f i DebugDlg.obj
 0002:00036710       ?GetRuntimeClass@CDlgInfomation@@UBEPAUCRuntimeClass@@XZ 00598710 f   DlgInfomation.obj
 0002:00036750       ??0CDlgInfomation@@QAE@PAVCWnd@@@Z 00598750 f   DlgInfomation.obj
 0002:00036850       ??_GCDlgInfomation@@UAEPAXI@Z 00598850 f i DlgInfomation.obj
 0002:00036850       ??_ECDlgInfomation@@UAEPAXI@Z 00598850 f i DlgInfomation.obj
 0002:000368c0       ??1CDlgInfomation@@UAE@XZ  005988c0 f   DlgInfomation.obj
 0002:00036950       ?DoDataExchange@CDlgInfomation@@MAEXPAVCDataExchange@@@Z 00598950 f   DlgInfomation.obj
 0002:00036a00       ?GetMessageMap@CDlgInfomation@@MBEPBUAFX_MSGMAP@@XZ 00598a00 f   DlgInfomation.obj
 0002:00036a50       ?GetThisMessageMap@CDlgInfomation@@KGPBUAFX_MSGMAP@@XZ 00598a50 f   DlgInfomation.obj
 0002:00036a90       ?OnBnClickedOk@CDlgInfomation@@QAEXXZ 00598a90 f   DlgInfomation.obj
 0002:00036d70       ?OnInitDialog@CDlgInfomation@@UAEHXZ 00598d70 f   DlgInfomation.obj
 0002:00036e20       ?GetBuffer@?$CSimpleStringT@_W$0A@@ATL@@QAEPA_WXZ 00598e20 f i DlgInfomation.obj
 0002:00036ea0       ?CreateObject@CExplorer1@@SGPAVCObject@@XZ 00598ea0 f   explorer1.obj
 0002:00036f80       ??0CExplorer1@@QAE@XZ      00598f80 f i explorer1.obj
 0002:00036fe0       ?Create@CExplorer1@@UAEHPB_W0KABUtagRECT@@PAVCWnd@@IPAUCCreateContext@@@Z 00598fe0 f i explorer1.obj
 0002:00037060       ?GetClsid@CExplorer1@@QAEABU_GUID@@XZ 00599060 f i explorer1.obj
 0002:000370a0       ??_ECExplorer1@@UAEPAXI@Z  005990a0 f i explorer1.obj
 0002:000370a0       ??_GCExplorer1@@UAEPAXI@Z  005990a0 f i explorer1.obj
 0002:00037110       ??1CExplorer1@@UAE@XZ      00599110 f i explorer1.obj
 0002:00037160       ?GetRuntimeClass@CExplorer1@@UBEPAUCRuntimeClass@@XZ 00599160 f   explorer1.obj
 0002:000371a0       ?GetRuntimeClass@CFullScreenCurve@@UBEPAUCRuntimeClass@@XZ 005991a0 f   FullScreenCurve.obj
 0002:000371e0       ??0CFullScreenCurve@@QAE@PAVCWnd@@@Z 005991e0 f   FullScreenCurve.obj
 0002:000372b0       ??_ECFullScreenCurve@@UAEPAXI@Z 005992b0 f i FullScreenCurve.obj
 0002:000372b0       ??_GCFullScreenCurve@@UAEPAXI@Z 005992b0 f i FullScreenCurve.obj
 0002:00037320       ??1CFullScreenCurve@@UAE@XZ 00599320 f   FullScreenCurve.obj
 0002:000373d0       ?DoDataExchange@CFullScreenCurve@@MAEXPAVCDataExchange@@@Z 005993d0 f   FullScreenCurve.obj
 0002:00037430       ?GetMessageMap@CFullScreenCurve@@MBEPBUAFX_MSGMAP@@XZ 00599430 f   FullScreenCurve.obj
 0002:00037480       ?GetThisMessageMap@CFullScreenCurve@@KGPBUAFX_MSGMAP@@XZ 00599480 f   FullScreenCurve.obj
 0002:000374c0       ?OnBnClickedButtonSave@CFullScreenCurve@@QAEXXZ 005994c0 f   FullScreenCurve.obj
 0002:00037530       ?OnInitDialog@CFullScreenCurve@@UAEHXZ 00599530 f   FullScreenCurve.obj
 0002:000375b0       ?DrawTempCurve@CFullScreenCurve@@QAEXXZ 005995b0 f   FullScreenCurve.obj
 0002:000396d0       ?OnTimer@CFullScreenCurve@@QAEXI@Z 0059b6d0 f   FullScreenCurve.obj
 0002:00039780       ?ExportTempCurve@CFullScreenCurve@@QAEXV?$CStringT@_WV?$StrTraitMFC@_WV?$ChTraitsCRT@_W@ATL@@@@@ATL@@@Z 0059b780 f   FullScreenCurve.obj
 0002:00039dc0       ??0?$CArray@UTEMP_RECORD@@U1@@@QAE@XZ 0059bdc0 f i FullScreenCurve.obj
 0002:00039e50       ?GetSize@?$CArray@UTEMP_RECORD@@U1@@@QBEHXZ 0059be50 f i FullScreenCurve.obj
 0002:00039e90       ?RemoveAll@?$CArray@UTEMP_RECORD@@U1@@@QAEXXZ 0059be90 f i FullScreenCurve.obj
 0002:00039ef0       ?GetAt@?$CArray@UTEMP_RECORD@@U1@@@QAEAAUTEMP_RECORD@@H@Z 0059bef0 f i FullScreenCurve.obj
 0002:00039fa0       ?Copy@?$CArray@UTEMP_RECORD@@U1@@@QAEXABV1@@Z 0059bfa0 f i FullScreenCurve.obj
 0002:0003a070       ??1?$CArray@UTEMP_RECORD@@U1@@@UAE@XZ 0059c070 f i FullScreenCurve.obj
 0002:0003a180       ?Serialize@?$CArray@UTEMP_RECORD@@U1@@@UAEXAAVCArchive@@@Z 0059c180 f i FullScreenCurve.obj
 0002:0003a250       ?Dump@?$CArray@UTEMP_RECORD@@U1@@@UBEXAAVCDumpContext@@@Z 0059c250 f i FullScreenCurve.obj
 0002:0003a330       ?AssertValid@?$CArray@UTEMP_RECORD@@U1@@@UBEXXZ 0059c330 f i FullScreenCurve.obj
 0002:0003a490       ??_G?$CArray@UTEMP_RECORD@@U1@@@UAEPAXI@Z 0059c490 f i FullScreenCurve.obj
 0002:0003a490       ??_E?$CArray@UTEMP_RECORD@@U1@@@UAEPAXI@Z 0059c490 f i FullScreenCurve.obj
 0002:0003a500       ?SetSize@?$CArray@UTEMP_RECORD@@U1@@@QAEXHH@Z 0059c500 f i FullScreenCurve.obj
 0002:0003aaa0       ??$CopyElements@UTEMP_RECORD@@@@YGXPAUTEMP_RECORD@@PBU0@H@Z 0059caa0 f i FullScreenCurve.obj
 0002:0003ac10       ??$SerializeElements@UTEMP_RECORD@@@@YGXAAVCArchive@@PAUTEMP_RECORD@@H@Z 0059cc10 f i FullScreenCurve.obj
 0002:0003ae00       ??$DumpElements@UTEMP_RECORD@@@@YGXAAVCDumpContext@@PBUTEMP_RECORD@@H@Z 0059ce00 f i FullScreenCurve.obj
 0002:0003aef0       ?ReleaseBuffer@?$CSimpleStringT@_W$0A@@ATL@@QAEXH@Z 0059cef0 f i FullScreenCurve.obj
 0002:0003af80       ?StringLengthN@?$CSimpleStringT@_W$0A@@ATL@@SAHPB_WI@Z 0059cf80 f i FullScreenCurve.obj
 0002:0003afe0       ?FX3GA_Hex2Char@@YAEQAE@Z  0059cfe0 f   FX3GA.obj
 0002:0003b0f0       ?FX3GA_CheckSum@@YAXPAEH0@Z 0059d0f0 f   FX3GA.obj
 0002:0003b1b0       ?FX3GA_SetDataAddr@@YAXIPAE@Z 0059d1b0 f   FX3GA.obj
 0002:0003b290       ?FX3GA_SetDataLen@@YAXIPAE@Z 0059d290 f   FX3GA.obj
 0002:0003b320       ?FX3GA_SetData@@YAXIPAE@Z  0059d320 f   FX3GA.obj
 0002:0003b430       ?FX3GA_Read@@YA?AUFX3GA_CMD_READ@@IH@Z 0059d430 f   FX3GA.obj
 0002:0003b520       ?FX3GA_Write@@YA?AUFX3GA_CMD_WRITE@@IH@Z 0059d520 f   FX3GA.obj
 0002:0003b620       ?FX3GA_Read_M_Addr@@YAXIPAE@Z 0059d620 f   FX3GA.obj
 0002:0003b6d0       ?FX3GA_Set_M528_M543_Addr@@YAXIPAE@Z 0059d6d0 f   FX3GA.obj
 0002:0003b7a0       ?FX3GA_Set_M528_M543_On@@YA?AUFX3GA_CMD_SET_M@@I@Z 0059d7a0 f   FX3GA.obj
 0002:0003b860       ?FX3GA_Set_M528_M543_Off@@YA?AUFX3GA_CMD_SET_M@@I@Z 0059d860 f   FX3GA.obj
 0002:0003b920       ?FX3GA_Set_M128_M255_Addr@@YAXIPAE@Z 0059d920 f   FX3GA.obj
 0002:0003b9a0       ?FX3GA_Set_M128_M255_On@@YA?AUFX3GA_CMD_SET_M@@I@Z 0059d9a0 f   FX3GA.obj
 0002:0003ba60       ?FX3GA_Set_M128_M255_Off@@YA?AUFX3GA_CMD_SET_M@@I@Z 0059da60 f   FX3GA.obj
 0002:0003bb20       ?FX3GA_Read_M@@YA?AUFX3GA_CMD_READ_M@@IH@Z 0059db20 f   FX3GA.obj
 0002:0003bc10       ?AF09_2_int@@YAHD@Z        0059dc10 f   FX3GA.obj
 0002:0003bc90       ?FX3GA_2Word2int@@YAIPAD@Z 0059dc90 f   FX3GA.obj
 0002:0003bd60       ?FX3GA_Get_M_Addr@@YAHQAE@Z 0059dd60 f   FX3GA.obj
 0002:0003be70       ?FX3GA_Get_DATA_Addr@@YAHQAE@Z 0059de70 f   FX3GA.obj
 0002:0003bff0       ?FX3GA_Set_STOP@@YA?AUFX3GA_CMD_SET_M@@XZ 0059dff0 f   FX3GA.obj
 0002:0003c0c0       ?FX3GA_Set_RUN@@YA?AUFX3GA_CMD_SET_M@@XZ 0059e0c0 f   FX3GA.obj
 0002:0003c190       ?FX3GA_Set_MAN@@YA?AUFX3GA_CMD_SET_M@@XZ 0059e190 f   FX3GA.obj
 0002:0003c260       ?FX3GA_Set_AUTO@@YA?AUFX3GA_CMD_SET_M@@XZ 0059e260 f   FX3GA.obj
 0002:0003c330       ?GetRuntimeClass@CGroupDlg@@UBEPAUCRuntimeClass@@XZ 0059e330 f   GroupDlg.obj
 0002:0003c370       ??0CGroupDlg@@QAE@PAVCWnd@@@Z 0059e370 f   GroupDlg.obj
 0002:0003c460       ??_ECGroupDlg@@UAEPAXI@Z   0059e460 f i GroupDlg.obj
 0002:0003c460       ??_GCGroupDlg@@UAEPAXI@Z   0059e460 f i GroupDlg.obj
 0002:0003c4d0       ??1CGroupDlg@@UAE@XZ       0059e4d0 f   GroupDlg.obj
 0002:0003c5b0       ?DoDataExchange@CGroupDlg@@MAEXPAVCDataExchange@@@Z 0059e5b0 f   GroupDlg.obj
 0002:0003c660       ?GetMessageMap@CGroupDlg@@MBEPBUAFX_MSGMAP@@XZ 0059e660 f   GroupDlg.obj
 0002:0003c6b0       ?GetThisMessageMap@CGroupDlg@@KGPBUAFX_MSGMAP@@XZ 0059e6b0 f   GroupDlg.obj
 0002:0003c6f0       ?OnBnClickedOk@CGroupDlg@@QAEXXZ 0059e6f0 f   GroupDlg.obj
 0002:0003c7a0       ?OnInitDialog@CGroupDlg@@UAEHXZ 0059e7a0 f   GroupDlg.obj
 0002:0003ca60       ?OnLbnDblclkListNoGroup@CGroupDlg@@QAEXXZ 0059ea60 f   GroupDlg.obj
 0002:0003cbc0       ?ShowGroup@CGroupDlg@@QAEXXZ 0059ebc0 f   GroupDlg.obj
 0002:0003ce00       ?OnCbnSelchangeComboGroupNr@CGroupDlg@@QAEXXZ 0059ee00 f   GroupDlg.obj
 0002:0003ce50       ?OnLbnDblclkListGroup@CGroupDlg@@QAEXXZ 0059ee50 f   GroupDlg.obj
 0002:0003cfa0       ?GetLangID@@YAXXZ          0059efa0 f   HeatBox.obj
 0002:0003d020       ?GetMessageMap@CHeatBoxApp@@MBEPBUAFX_MSGMAP@@XZ 0059f020 f   HeatBox.obj
 0002:0003d070       ?GetThisMessageMap@CHeatBoxApp@@KGPBUAFX_MSGMAP@@XZ 0059f070 f   HeatBox.obj
 0002:0003d0b0       ??0CHeatBoxApp@@QAE@XZ     0059f0b0 f   HeatBox.obj
 0002:0003d110       ??_GCHeatBoxApp@@UAEPAXI@Z 0059f110 f i HeatBox.obj
 0002:0003d110       ??_ECHeatBoxApp@@UAEPAXI@Z 0059f110 f i HeatBox.obj
 0002:0003d180       ??1CHeatBoxApp@@UAE@XZ     0059f180 f i HeatBox.obj
 0002:0003d1d0       ?SetDisplayResolution@@YAXXZ 0059f1d0 f   HeatBox.obj
 0002:0003d390       ?InitInstance@CHeatBoxApp@@UAEHXZ 0059f390 f   HeatBox.obj
 0002:0003d7c0       ??1CHeatBoxDlg@@UAE@XZ     0059f7c0 f i HeatBox.obj
 0002:0003d9b0       ??1CSwitchDlg@@UAE@XZ      0059f9b0 f i HeatBox.obj
 0002:0003dab0       ??1CParaDlg@@UAE@XZ        0059fab0 f i HeatBox.obj
 0002:0003dc60       ??1CTakeoutPage@@UAE@XZ    0059fc60 f i HeatBox.obj
 0002:0003dd40       ??1CTempParaDlg@@UAE@XZ    0059fd40 f i HeatBox.obj
 0002:0003ddd0       ??1CTakeoutDlg@@UAE@XZ     0059fdd0 f i HeatBox.obj
 0002:0003ded0       ??1CProductTempBar@@UAE@XZ 0059fed0 f i HeatBox.obj
 0002:0003df20       ?PreTranslateMessage@CHeatBoxApp@@UAEHPAUtagMSG@@@Z 0059ff20 f   HeatBox.obj
 0002:0003e2c0       ??1CAboutDlg@@UAE@XZ       005a02c0 f i HeatBox.obj
 0002:0003e4a0       ??1?$CArray@MM@@UAE@XZ     005a04a0 f i HeatBox.obj
 0002:0003e5b0       ?Serialize@?$CArray@MM@@UAEXAAVCArchive@@@Z 005a05b0 f i HeatBox.obj
 0002:0003e680       ?Dump@?$CArray@MM@@UBEXAAVCDumpContext@@@Z 005a0680 f i HeatBox.obj
 0002:0003e760       ?AssertValid@?$CArray@MM@@UBEXXZ 005a0760 f i HeatBox.obj
 0002:0003e8c0       ??_G?$CArray@MM@@UAEPAXI@Z 005a08c0 f i HeatBox.obj
 0002:0003e8c0       ??_E?$CArray@MM@@UAEPAXI@Z 005a08c0 f i HeatBox.obj
 0002:0003e930       ?SetSize@?$CArray@MM@@QAEXHH@Z 005a0930 f i HeatBox.obj
 0002:0003eec0       ??$SerializeElements@M@@YGXAAVCArchive@@PAMH@Z 005a0ec0 f i HeatBox.obj
 0002:0003f0b0       ??$DumpElements@M@@YGXAAVCDumpContext@@PBMH@Z 005a10b0 f i HeatBox.obj
 0002:0003f1a0       ?GetBufferSetLength@?$CSimpleStringT@_W$0A@@ATL@@QAEPA_WH@Z 005a11a0 f i HeatBox.obj
 0002:0003f210       ??_Estringdispid@CComTypeInfoHolder@ATL@@QAEPAXI@Z 005a1210 f i HeatBoxDlg.obj
 0002:0003f2d0       ??1stringdispid@CComTypeInfoHolder@ATL@@QAE@XZ 005a12d0 f i HeatBoxDlg.obj
 0002:0003f320       ??1CComBSTR@ATL@@QAE@XZ    005a1320 f i HeatBoxDlg.obj
 0002:0003f380       ?MSSSpeak@@YAXPB_W@Z       005a1380 f   HeatBoxDlg.obj
 0002:0003f520       ??0CAboutDlg@@QAE@XZ       005a1520 f   HeatBoxDlg.obj
 0002:0003f890       ??_ECAboutDlg@@UAEPAXI@Z   005a1890 f i HeatBoxDlg.obj
 0002:0003f890       ??_GCAboutDlg@@UAEPAXI@Z   005a1890 f i HeatBoxDlg.obj
 0002:0003f900       ?DoDataExchange@CAboutDlg@@MAEXPAVCDataExchange@@@Z 005a1900 f   HeatBoxDlg.obj
 0002:0003fbf0       ?GetMessageMap@CAboutDlg@@MBEPBUAFX_MSGMAP@@XZ 005a1bf0 f   HeatBoxDlg.obj
 0002:0003fc40       ?GetThisMessageMap@CAboutDlg@@KGPBUAFX_MSGMAP@@XZ 005a1c40 f   HeatBoxDlg.obj
 0002:0003fc80       ??0CHeatBoxDlg@@QAE@PAVCWnd@@@Z 005a1c80 f   HeatBoxDlg.obj
 0002:0003ff90       ??_GCHeatBoxDlg@@UAEPAXI@Z 005a1f90 f i HeatBoxDlg.obj
 0002:0003ff90       ??_ECHeatBoxDlg@@UAEPAXI@Z 005a1f90 f i HeatBoxDlg.obj
 0002:00040000       ??_FCCurveDlg@@QAEXXZ      005a2000 f i HeatBoxDlg.obj
 0002:00040060       ??_FCSwitchDlg@@QAEXXZ     005a2060 f i HeatBoxDlg.obj
 0002:000400c0       ??_FCParaDlg@@QAEXXZ       005a20c0 f i HeatBoxDlg.obj
 0002:00040120       ??_FCDebugDlg@@QAEXXZ      005a2120 f i HeatBoxDlg.obj
 0002:00040180       ??_FCTakeoutPage@@QAEXXZ   005a2180 f i HeatBoxDlg.obj
 0002:000401e0       ??_FCTempParaDlg@@QAEXXZ   005a21e0 f i HeatBoxDlg.obj
 0002:00040240       ?DoDataExchange@CHeatBoxDlg@@MAEXPAVCDataExchange@@@Z 005a2240 f   HeatBoxDlg.obj
 0002:000403c0       ?GetMessageMap@CHeatBoxDlg@@MBEPBUAFX_MSGMAP@@XZ 005a23c0 f   HeatBoxDlg.obj
 0002:00040410       ?GetThisMessageMap@CHeatBoxDlg@@KGPBUAFX_MSGMAP@@XZ 005a2410 f   HeatBoxDlg.obj
 0002:00040450       ?RecordThreadProc@@YAIPAX@Z 005a2450 f   HeatBoxDlg.obj
 0002:00040480       ?SpeechThreadProc@@YAIPAX@Z 005a2480 f   HeatBoxDlg.obj
 0002:000406d0       ?DealHeatPercent@@YAXE@Z   005a26d0 f   HeatBoxDlg.obj
 0002:000407a0       ?BitChange0_7@@YAEE@Z      005a27a0 f   HeatBoxDlg.obj
 0002:00040830       ?BitChange0_7_old@@YAEE@Z  005a2830 f   HeatBoxDlg.obj
 0002:00040930       ?CheckFlash@@YAXXZ         005a2930 f   HeatBoxDlg.obj
 0002:00040a80       ?CalAdjust@@YAMMD@Z        005a2a80 f   HeatBoxDlg.obj
 0002:00040b10       ?GetTemp@@YAMIE@Z          005a2b10 f   HeatBoxDlg.obj
 0002:00040c50       ?seek_devLenth@@YANNN@Z    005a2c50 f   HeatBoxDlg.obj
 0002:00040ca0       ?seek_current_x@@YANNNN@Z  005a2ca0 f   HeatBoxDlg.obj
 0002:00040cf0       ?fun@@YANN@Z               005a2cf0 f   HeatBoxDlg.obj
 0002:00040d50       ?seek_height@@YANNHH@Z     005a2d50 f   HeatBoxDlg.obj
 0002:00040dd0       ?seek_area@@YANNN@Z        005a2dd0 f   HeatBoxDlg.obj
 0002:00040e10       ?integrate@@YANNN@Z        005a2e10 f   HeatBoxDlg.obj
 0002:00040f30       ?integrate@@YANH@Z         005a2f30 f   HeatBoxDlg.obj
 0002:00040ff0       ?FX3GA_SetData_2Word@@YAXIPAE@Z 005a2ff0 f   HeatBoxDlg.obj
 0002:00041200       ??0SelfTuningPID@@QAE@MMMM@Z 005a3200 f   HeatBoxDlg.obj
 0002:00041280       ??1SelfTuningPID@@QAE@XZ   005a3280 f   HeatBoxDlg.obj
 0002:000412c0       ?clamp@SelfTuningPID@@QAEMMMM@Z 005a32c0 f   HeatBoxDlg.obj
 0002:00041330       ?PIDCal@SelfTuningPID@@QAEXMM@Z 005a3330 f   HeatBoxDlg.obj
 0002:00041570       ?update@SelfTuningPID@@QAEMMMM@Z 005a3570 f   HeatBoxDlg.obj
 0002:00041720       ?self_learning_main@@YAHXZ 005a3720 f   HeatBoxDlg.obj
 0002:00041b00       ?getKp@SelfTuningPID@@QBEMXZ 005a3b00 f i HeatBoxDlg.obj
 0002:00041b40       ?getKi@SelfTuningPID@@QBEMXZ 005a3b40 f i HeatBoxDlg.obj
 0002:00041b80       ?getKd@SelfTuningPID@@QBEMXZ 005a3b80 f i HeatBoxDlg.obj
 0002:00041bc0       ?Buf2Hex@@YAEPAD@Z         005a3bc0 f   HeatBoxDlg.obj
 0002:00041d80       ?Word2Int@@YAFPAD@Z        005a3d80 f   HeatBoxDlg.obj
 0002:00041e40       ?Short2Word@@YAXFPAE@Z     005a3e40 f   HeatBoxDlg.obj
 0002:00042010       ?Int2DoubleWord@@YAXHPAE@Z 005a4010 f   HeatBoxDlg.obj
 0002:00042370       ?DoubleWord2int@@YAHPAD@Z  005a4370 f   HeatBoxDlg.obj
 0002:00042460       ?CalSoundBits@@YAEE@Z      005a4460 f   HeatBoxDlg.obj
 0002:000425d0       ?OnInitDialog@CHeatBoxDlg@@MAEHXZ 005a45d0 f   HeatBoxDlg.obj
 0002:00044000       ?OnSysCommand@CHeatBoxDlg@@IAEXIJ@Z 005a6000 f   HeatBoxDlg.obj
 0002:00044080       ?OnPaint@CHeatBoxDlg@@IAEXXZ 005a6080 f   HeatBoxDlg.obj
 0002:00044280       ?OnQueryDragIcon@CHeatBoxDlg@@IAEPAUHICON__@@XZ 005a6280 f   HeatBoxDlg.obj
 0002:000442c0       ?OnSelchangeTab1@CHeatBoxDlg@@QAEXPAUtagNMHDR@@PAJ@Z 005a62c0 f   HeatBoxDlg.obj
 0002:00044320       ?OnSelchangeTab2@CHeatBoxDlg@@QAEXPAUtagNMHDR@@PAJ@Z 005a6320 f   HeatBoxDlg.obj
 0002:00044380       ?OnSelchangeTab3@CHeatBoxDlg@@QAEXPAUtagNMHDR@@PAJ@Z 005a6380 f   HeatBoxDlg.obj
 0002:000443e0       ?OnSelchangeTab4@CHeatBoxDlg@@QAEXPAUtagNMHDR@@PAJ@Z 005a63e0 f   HeatBoxDlg.obj
 0002:00044440       ?OnSelchangeTab5@CHeatBoxDlg@@QAEXPAUtagNMHDR@@PAJ@Z 005a6440 f   HeatBoxDlg.obj
 0002:000444a0       ?OnSelchangeTab6@CHeatBoxDlg@@QAEXPAUtagNMHDR@@PAJ@Z 005a64a0 f   HeatBoxDlg.obj
 0002:00044500       ?OnSelchangeTab7@CHeatBoxDlg@@QAEXPAUtagNMHDR@@PAJ@Z 005a6500 f   HeatBoxDlg.obj
 0002:00044560       ?OnSelchangeTab8@CHeatBoxDlg@@QAEXPAUtagNMHDR@@PAJ@Z 005a6560 f   HeatBoxDlg.obj
 0002:000445c0       ?SelectTab@CHeatBoxDlg@@QAEXH@Z 005a65c0 f   HeatBoxDlg.obj
 0002:00044d30       ?ReadSwitchConfigPara@CHeatBoxDlg@@QAEXXZ 005a6d30 f   HeatBoxDlg.obj
 0002:00046b20       ?TempCmd@CHeatBoxDlg@@QAEXXZ 005a8b20 f   HeatBoxDlg.obj
 0002:00047000       ?OnTimer@CHeatBoxDlg@@IAEXI@Z 005a9000 f   HeatBoxDlg.obj
 0002:00047750       ?CheckSameTemp@CHeatBoxDlg@@QAE_NH@Z 005a9750 f   HeatBoxDlg.obj
 0002:00047ae0       ?OnComm@CHeatBoxDlg@@QAEJIJ@Z 005a9ae0 f   HeatBoxDlg.obj
 0002:00047b40       ?OnClose@CHeatBoxDlg@@IAEXXZ 005a9b40 f   HeatBoxDlg.obj
 0002:00047d70       ?InitDatabase@CHeatBoxDlg@@QAEXXZ 005a9d70 f   HeatBoxDlg.obj
 0002:00047fa0       ?OnInitDialog@CAboutDlg@@MAEHXZ 005a9fa0 f   HeatBoxDlg.obj
 0002:00048e20       ?OnOK@CHeatBoxDlg@@MAEXXZ  005aae20 f   HeatBoxDlg.obj
 0002:00048e60       ?OnLButtonDblClk@CAboutDlg@@IAEXIVCPoint@@@Z 005aae60 f   HeatBoxDlg.obj
 0002:00048ff0       ?OnSelchangeCombo1@CAboutDlg@@IAEXXZ 005aaff0 f   HeatBoxDlg.obj
 0002:00049290       ?OnHelpInfo@CHeatBoxDlg@@IAEHPAUtagHELPINFO@@@Z 005ab290 f   HeatBoxDlg.obj
 0002:000492d0       ?OnButtonSaveSn@CAboutDlg@@IAEXXZ 005ab2d0 f   HeatBoxDlg.obj
 0002:00049890       ?OnButtonCrack@CAboutDlg@@IAEXXZ 005ab890 f   HeatBoxDlg.obj
 0002:00049e10       ?OnCtlColor@CHeatBoxDlg@@QAEPAUHBRUSH__@@PAVCDC@@PAVCWnd@@I@Z 005abe10 f   HeatBoxDlg.obj
 0002:00049e90       ?OnEnChangeEditUser@CAboutDlg@@QAEXXZ 005abe90 f   HeatBoxDlg.obj
 0002:0004a030       ?OnEnChangeEditDialogTiltle@CAboutDlg@@QAEXXZ 005ac030 f   HeatBoxDlg.obj
 0002:0004a150       ?OnCbnSelchangeComboSwitchNr@CAboutDlg@@QAEXXZ 005ac150 f   HeatBoxDlg.obj
 0002:0004a220       ?OnCbnSelchangeComboHighHighLevelDelta@CAboutDlg@@QAEXXZ 005ac220 f   HeatBoxDlg.obj
 0002:0004a2a0       ?OnBnClickedButtonLastVersion@CAboutDlg@@QAEXXZ 005ac2a0 f   HeatBoxDlg.obj
 0002:0004a370       ?OnActivate@CAboutDlg@@QAEXIPAVCWnd@@H@Z 005ac370 f   HeatBoxDlg.obj
 0002:0004a3e0       ?OnEnChangeEdit_MES_URL@CAboutDlg@@QAEXXZ 005ac3e0 f   HeatBoxDlg.obj
 0002:0004a520       ?OnEnChangeEditCommTimer@CAboutDlg@@QAEXXZ 005ac520 f   HeatBoxDlg.obj
 0002:0004a5c0       ?OnBnClickedCheckNoPcbFlash@CAboutDlg@@QAEXXZ 005ac5c0 f   HeatBoxDlg.obj
 0002:0004a690       ?OnBnClickedCheckNoFlashTest1@CAboutDlg@@QAEXXZ 005ac690 f   HeatBoxDlg.obj
 0002:0004a740       ?OnBnClickedCheckNoFlashTest2@CAboutDlg@@QAEXXZ 005ac740 f   HeatBoxDlg.obj
 0002:0004a7f0       ?OnBnClickedCheckNoFlashTest3@CAboutDlg@@QAEXXZ 005ac7f0 f   HeatBoxDlg.obj
 0002:0004a8a0       ?OnBnClickedCheckNoFlashTest4@CAboutDlg@@QAEXXZ 005ac8a0 f   HeatBoxDlg.obj
 0002:0004a950       ?MSSListen@CHeatBoxDlg@@QAEXXZ 005ac950 f   HeatBoxDlg.obj
 0002:0004a990       ?InitRecord@CHeatBoxDlg@@QAEHXZ 005ac990 f   HeatBoxDlg.obj
 0002:0004a9d0       ?OnRecord@CHeatBoxDlg@@QAEJIJ@Z 005ac9d0 f   HeatBoxDlg.obj
 0002:0004aa10       ?OnTimer@CAboutDlg@@QAEXI@Z 005aca10 f   HeatBoxDlg.obj
 0002:0004aa70       ?OnComm@CAboutDlg@@QAEJIJ@Z 005aca70 f   HeatBoxDlg.obj
 0002:0004ab90       ?OnBnClickedCheck_Barcode@CAboutDlg@@QAEXXZ 005acb90 f   HeatBoxDlg.obj
 0002:0004ac30       ?OnBnClickedCheck_IDC_CHECK_DEBUG_MODE@CAboutDlg@@QAEXXZ 005acc30 f   HeatBoxDlg.obj
 0002:0004acd0       ?OnBnClickedCheck_ONE_BY_ONE_TAKEBOARD@CAboutDlg@@QAEXXZ 005accd0 f   HeatBoxDlg.obj
 0002:0004ad70       ?OnBnClickedCheck1@CAboutDlg@@QAEXXZ 005acd70 f   HeatBoxDlg.obj
 0002:0004ae20       ?OnBnClickedButtonClearRec@CAboutDlg@@QAEXXZ 005ace20 f   HeatBoxDlg.obj
 0002:0004aeb0       ?OnBnClickedButtonFirmware@CAboutDlg@@QAEXXZ 005aceb0 f   HeatBoxDlg.obj
 0002:0004af20       ?PreTranslateMessage@CHeatBoxDlg@@UAEHPAUtagMSG@@@Z 005acf20 f   HeatBoxDlg.obj
 0002:0004afa0       ?OnBnClickedCheckSpeech@CAboutDlg@@QAEXXZ 005acfa0 f   HeatBoxDlg.obj
 0002:0004b030       ?OnBnClickedCheckSpeechControl@CAboutDlg@@QAEXXZ 005ad030 f   HeatBoxDlg.obj
 0002:0004b0c0       ?OnCbnSelchangeComboStepCoolDelta@CAboutDlg@@QAEXXZ 005ad0c0 f   HeatBoxDlg.obj
 0002:0004b130       ?OnCbnSelchangeComboTempSensorDelay@CAboutDlg@@QAEXXZ 005ad130 f   HeatBoxDlg.obj
 0002:0004b180       ?DisplayReceiveCmd@CHeatBoxDlg@@QAEXEPAEHH@Z 005ad180 f   HeatBoxDlg.obj
 0002:0004b510       ?DisplaySendCmd@CHeatBoxDlg@@QAEXEPAEHH@Z 005ad510 f   HeatBoxDlg.obj
 0002:0004b8b0       ?OnBnClickedButtonFireware@CAboutDlg@@QAEXXZ 005ad8b0 f   HeatBoxDlg.obj
 0002:0004b910       ?OnBnClickedButtonFireware2@CAboutDlg@@QAEXXZ 005ad910 f   HeatBoxDlg.obj
 0002:0004b990       ?OnBnClickedButtonModifyPassword@CAboutDlg@@QAEXXZ 005ad990 f   HeatBoxDlg.obj
 0002:0004bb60       ??Y?$CStringT@_WV?$StrTraitMFC@_WV?$ChTraitsCRT@_W@ATL@@@@@ATL@@QAEAAV01@ABV?$CSimpleStringT@_W$0A@@1@@Z 005adb60 f i HeatBoxDlg.obj
 0002:0004bbc0       ??Y?$CStringT@_WV?$StrTraitMFC@_WV?$ChTraitsCRT@_W@ATL@@@@@ATL@@QAEAAV01@PBD@Z 005adbc0 f i HeatBoxDlg.obj
 0002:0004bcd0       ??Y?$CSimpleStringT@_W$0A@@ATL@@QAEAAV01@ABV01@@Z 005adcd0 f i HeatBoxDlg.obj
 0002:0004bd30       ?GetAt@?$CSimpleStringT@_W$0A@@ATL@@QBE_WH@Z 005add30 f i HeatBoxDlg.obj
 0002:0004bdf0       ?IsEmpty@?$CSimpleStringT@_W$0A@@ATL@@QBE_NXZ 005addf0 f i HeatBoxDlg.obj
 0002:0004be50       ??0?$CStringT@_WV?$StrTraitMFC@_WV?$ChTraitsCRT@_W@ATL@@@@@ATL@@QAE@PBDPAUIAtlStringMgr@1@@Z 005ade50 f i HeatBoxDlg.obj
 0002:0004bf20       ??4?$CStringT@_WV?$StrTraitMFC@_WV?$ChTraitsCRT@_W@ATL@@@@@ATL@@QAEAAV01@PBD@Z 005adf20 f i HeatBoxDlg.obj
 0002:0004c000       ?GetBaseTypeLength@?$ChTraitsCRT@_W@ATL@@SAHPBD@Z 005ae000 f i HeatBoxDlg.obj
 0002:0004c070       ?_AtlGetConversionACP@ATL@@YGIXZ 005ae070 f i HeatBoxDlg.obj
 0002:0004c0b0       ?ConvertToBaseType@?$ChTraitsCRT@_W@ATL@@SAXPA_WHPBDH@Z 005ae0b0 f i HeatBoxDlg.obj
 0002:0004c120       ?Append@?$CSimpleStringT@_W$0A@@ATL@@QAEXABV12@@Z 005ae120 f i HeatBoxDlg.obj
 0002:0004c190       ??0?$CArray@MM@@QAE@XZ     005ae190 f i HeatBoxDlg.obj
 0002:0004c220       ?GetSize@?$CArray@MM@@QBEHXZ 005ae220 f i HeatBoxDlg.obj
 0002:0004c260       ?GetAt@?$CArray@MM@@QAEAAMH@Z 005ae260 f i HeatBoxDlg.obj
 0002:0004c310       ?Add@?$CArray@MM@@QAEHM@Z  005ae310 f i HeatBoxDlg.obj
 0002:0004c380       ??$sprintf_s@$0GE@@@YAHAAY0GE@DPBDZZ 005ae380 f i HeatBoxDlg.obj
 0002:0004c3f0       ?SetAtGrow@?$CArray@MM@@QAEXHM@Z 005ae3f0 f i HeatBoxDlg.obj
 0002:0004c4c0       ??0?$CComPtr@UISpRecognizer@@@ATL@@QAE@XZ 005ae4c0 f i HeatBoxDlg.obj
 0002:0004c520       ??0?$CComPtrBase@UISpRecognizer@@@ATL@@IAE@XZ 005ae520 f i HeatBoxDlg.obj
 0002:0004c570       ??0?$CComPtr@UISpRecoContext@@@ATL@@QAE@XZ 005ae570 f i HeatBoxDlg.obj
 0002:0004c5d0       ??0?$CComPtrBase@UISpRecoContext@@@ATL@@IAE@XZ 005ae5d0 f i HeatBoxDlg.obj
 0002:0004c620       ??0?$CComPtr@UISpRecoGrammar@@@ATL@@QAE@XZ 005ae620 f i HeatBoxDlg.obj
 0002:0004c680       ??0?$CComPtrBase@UISpRecoGrammar@@@ATL@@IAE@XZ 005ae680 f i HeatBoxDlg.obj
 0002:0004c6d0       ??0?$CComPtr@UISpStream@@@ATL@@QAE@XZ 005ae6d0 f i HeatBoxDlg.obj
 0002:0004c730       ??0?$CComPtrBase@UISpStream@@@ATL@@IAE@XZ 005ae730 f i HeatBoxDlg.obj
 0002:0004c780       ??0?$CComPtr@UISpObjectToken@@@ATL@@QAE@XZ 005ae780 f i HeatBoxDlg.obj
 0002:0004c7e0       ??0?$CComPtrBase@UISpObjectToken@@@ATL@@IAE@XZ 005ae7e0 f i HeatBoxDlg.obj
 0002:0004c830       ??0?$CComPtr@UISpAudio@@@ATL@@QAE@XZ 005ae830 f i HeatBoxDlg.obj
 0002:0004c890       ??0?$CComPtrBase@UISpAudio@@@ATL@@IAE@XZ 005ae890 f i HeatBoxDlg.obj
 0002:0004c8e0       ??0?$CArray@UDOUBLE_METAL_RECORD@@U1@@@QAE@XZ 005ae8e0 f i HeatBoxDlg.obj
 0002:0004c970       ?Serialize@?$CArray@UDOUBLE_METAL_RECORD@@U1@@@UAEXAAVCArchive@@@Z 005ae970 f i HeatBoxDlg.obj
 0002:0004ca40       ?Dump@?$CArray@UDOUBLE_METAL_RECORD@@U1@@@UBEXAAVCDumpContext@@@Z 005aea40 f i HeatBoxDlg.obj
 0002:0004cb20       ?AssertValid@?$CArray@UDOUBLE_METAL_RECORD@@U1@@@UBEXXZ 005aeb20 f i HeatBoxDlg.obj
 0002:0004cc80       ??_E?$CArray@UDOUBLE_METAL_RECORD@@U1@@@UAEPAXI@Z 005aec80 f i HeatBoxDlg.obj
 0002:0004cc80       ??_G?$CArray@UDOUBLE_METAL_RECORD@@U1@@@UAEPAXI@Z 005aec80 f i HeatBoxDlg.obj
 0002:0004ccf0       ??1?$CArray@UDOUBLE_METAL_RECORD@@U1@@@UAE@XZ 005aecf0 f i HeatBoxDlg.obj
 0002:0004ce00       ?SetSize@?$CArray@UDOUBLE_METAL_RECORD@@U1@@@QAEXHH@Z 005aee00 f i HeatBoxDlg.obj
 0002:0004d3a0       ??$SerializeElements@UDOUBLE_METAL_RECORD@@@@YGXAAVCArchive@@PAUDOUBLE_METAL_RECORD@@H@Z 005af3a0 f i HeatBoxDlg.obj
 0002:0004d590       ??$DumpElements@UDOUBLE_METAL_RECORD@@@@YGXAAVCDumpContext@@PBUDOUBLE_METAL_RECORD@@H@Z 005af590 f i HeatBoxDlg.obj
 0002:0004d680       ??1?$CComPtr@UISpRecognizer@@@ATL@@QAE@XZ 005af680 f i HeatBoxDlg.obj
 0002:0004d6d0       ??1?$CComPtrBase@UISpRecognizer@@@ATL@@QAE@XZ 005af6d0 f i HeatBoxDlg.obj
 0002:0004d740       ??1?$CComPtr@UISpRecoContext@@@ATL@@QAE@XZ 005af740 f i HeatBoxDlg.obj
 0002:0004d790       ??1?$CComPtrBase@UISpRecoContext@@@ATL@@QAE@XZ 005af790 f i HeatBoxDlg.obj
 0002:0004d800       ??1?$CComPtr@UISpRecoGrammar@@@ATL@@QAE@XZ 005af800 f i HeatBoxDlg.obj
 0002:0004d850       ??1?$CComPtrBase@UISpRecoGrammar@@@ATL@@QAE@XZ 005af850 f i HeatBoxDlg.obj
 0002:0004d8c0       ??1?$CComPtr@UISpStream@@@ATL@@QAE@XZ 005af8c0 f i HeatBoxDlg.obj
 0002:0004d910       ??1?$CComPtrBase@UISpStream@@@ATL@@QAE@XZ 005af910 f i HeatBoxDlg.obj
 0002:0004d980       ??1?$CComPtr@UISpObjectToken@@@ATL@@QAE@XZ 005af980 f i HeatBoxDlg.obj
 0002:0004d9d0       ??1?$CComPtrBase@UISpObjectToken@@@ATL@@QAE@XZ 005af9d0 f i HeatBoxDlg.obj
 0002:0004da40       ??1?$CComPtr@UISpAudio@@@ATL@@QAE@XZ 005afa40 f i HeatBoxDlg.obj
 0002:0004da90       ??1?$CComPtrBase@UISpAudio@@@ATL@@QAE@XZ 005afa90 f i HeatBoxDlg.obj
 0002:0004db00       ?HttpRequest@HttpTools@@SAHV?$CStringT@_WV?$StrTraitMFC@_WV?$ChTraitsCRT@_W@ATL@@@@@ATL@@0000_N@Z 005afb00 f   HttpTools.obj
 0002:0004ea80       ?GetRuntimeClass@CMyMsgBox@@UBEPAUCRuntimeClass@@XZ 005b0a80 f   MyMsgBox.obj
 0002:0004eac0       ??0CMyMsgBox@@QAE@PAVCWnd@@@Z 005b0ac0 f   MyMsgBox.obj
 0002:0004eba0       ??_ECMyMsgBox@@UAEPAXI@Z   005b0ba0 f i MyMsgBox.obj
 0002:0004eba0       ??_GCMyMsgBox@@UAEPAXI@Z   005b0ba0 f i MyMsgBox.obj
 0002:0004ec10       ??1CMyMsgBox@@UAE@XZ       005b0c10 f   MyMsgBox.obj
 0002:0004ec90       ?DoDataExchange@CMyMsgBox@@MAEXPAVCDataExchange@@@Z 005b0c90 f   MyMsgBox.obj
 0002:0004ed00       ?GetMessageMap@CMyMsgBox@@MBEPBUAFX_MSGMAP@@XZ 005b0d00 f   MyMsgBox.obj
 0002:0004ed50       ?GetThisMessageMap@CMyMsgBox@@KGPBUAFX_MSGMAP@@XZ 005b0d50 f   MyMsgBox.obj
 0002:0004ed90       ?OnBnClickedOk@CMyMsgBox@@QAEXXZ 005b0d90 f   MyMsgBox.obj
 0002:0004edf0       ?OnInitDialog@CMyMsgBox@@UAEHXZ 005b0df0 f   MyMsgBox.obj
 0002:0004ee60       ?OnNcPaint@CMyMsgBox@@QAEXIJ@Z 005b0e60 f   MyMsgBox.obj
 0002:0004f030       ??0CParaDlg@@QAE@PAVCWnd@@@Z 005b1030 f   ParaDlg.obj
 0002:0004f440       ??_GCParaDlg@@UAEPAXI@Z    005b1440 f i ParaDlg.obj
 0002:0004f440       ??_ECParaDlg@@UAEPAXI@Z    005b1440 f i ParaDlg.obj
 0002:0004f4b0       ?DoDataExchange@CParaDlg@@MAEXPAVCDataExchange@@@Z 005b14b0 f   ParaDlg.obj
 0002:0004fbe0       ?GetMessageMap@CParaDlg@@MBEPBUAFX_MSGMAP@@XZ 005b1be0 f   ParaDlg.obj
 0002:0004fc30       ?GetThisMessageMap@CParaDlg@@KGPBUAFX_MSGMAP@@XZ 005b1c30 f   ParaDlg.obj
 0002:0004fc70       ?TraverseFolder@@YAXPB_W0PAVCStringArray@@@Z 005b1c70 f   ParaDlg.obj
 0002:0004fef0       ?UpdateSetPara@CParaDlg@@QAEXXZ 005b1ef0 f   ParaDlg.obj
 0002:000503d0       ?PreTranslateMessage@CParaDlg@@MAEHPAUtagMSG@@@Z 005b23d0 f   ParaDlg.obj
 0002:00050450       ?OnInitDialog@CParaDlg@@MAEHXZ 005b2450 f   ParaDlg.obj
 0002:00050ba0       ?OnChangeEditMainLevelSpan@CParaDlg@@IAEXXZ 005b2ba0 f   ParaDlg.obj
 0002:00050be0       ?OnChangeEditHighLevelSpan@CParaDlg@@IAEXXZ 005b2be0 f   ParaDlg.obj
 0002:00050c20       ?OnChangeEditLowLevelSpan@CParaDlg@@IAEXXZ 005b2c20 f   ParaDlg.obj
 0002:00050c60       ?OnChangeEditMainLevelSpanMinus@CParaDlg@@IAEXXZ 005b2c60 f   ParaDlg.obj
 0002:00050ca0       ?OnChangeEditMainLevelSpanPlus@CParaDlg@@IAEXXZ 005b2ca0 f   ParaDlg.obj
 0002:00050ce0       ?DefWindowProcW@CParaDlg@@MAEJIIJ@Z 005b2ce0 f   ParaDlg.obj
 0002:00050d40       ?UpdateModifyPara@CParaDlg@@QAEXXZ 005b2d40 f   ParaDlg.obj
 0002:00051100       ?OnButtonCreateModifyPara@CParaDlg@@IAEXXZ 005b3100 f   ParaDlg.obj
 0002:00051260       ?OnSelchangeComboHeatSpeed@CParaDlg@@IAEXXZ 005b3260 f   ParaDlg.obj
 0002:00051460       ?OnChangeEditYear@CParaDlg@@IAEXXZ 005b3460 f   ParaDlg.obj
 0002:000514c0       ?OnEditchangeComboTestMode@CParaDlg@@IAEXXZ 005b34c0 f   ParaDlg.obj
 0002:000515d0       ?OnSelchangeComboTestMode@CParaDlg@@IAEXXZ 005b35d0 f   ParaDlg.obj
 0002:00051ae0       ?OnChangeEditHeatDegree@CParaDlg@@IAEXXZ 005b3ae0 f   ParaDlg.obj
 0002:00051bb0       ?OnChangeEditCoolDegree@CParaDlg@@IAEXXZ 005b3bb0 f   ParaDlg.obj
 0002:00051c30       ?TcharToChar@@YAXPB_WPAD@Z 005b3c30 f   ParaDlg.obj
 0002:00051cd0       ?OnSelchangeComboCurMaxHeatBox@CParaDlg@@IAEXXZ 005b3cd0 f   ParaDlg.obj
 0002:00051d60       ?OnCtlColor@CParaDlg@@QAEPAUHBRUSH__@@PAVCDC@@PAVCWnd@@I@Z 005b3d60 f   ParaDlg.obj
 0002:00051ea0       ?OnCbnSelchangeComboParaName@CParaDlg@@QAEXXZ 005b3ea0 f   ParaDlg.obj
 0002:000520d0       ?OnCbnSelchangeComboHeatBoxType@CParaDlg@@QAEXXZ 005b40d0 f   ParaDlg.obj
 0002:00052270       ?OnCbnSelchangeComboDisplayTempType@CParaDlg@@QAEXXZ 005b4270 f   ParaDlg.obj
 0002:000523a0       ?OnCbnSelchangeComboOpenDoorReset@CParaDlg@@QAEXXZ 005b43a0 f   ParaDlg.obj
 0002:000523e0       ?ShowCloseLevelEdit@CParaDlg@@QAEXXZ 005b43e0 f   ParaDlg.obj
 0002:00052b40       ?OnCbnSelchangeComboContinueTestCount@CParaDlg@@QAEXXZ 005b4b40 f   ParaDlg.obj
 0002:00052b80       ?OnCbnSelchangeComboEndTestDoorStatus@CParaDlg@@QAEXXZ 005b4b80 f   ParaDlg.obj
 0002:00052c10       ?OnEnChangeEditContinueTestCount@CParaDlg@@QAEXXZ 005b4c10 f   ParaDlg.obj
 0002:00052db0       ?OnBnClickedCheckRelay@CParaDlg@@QAEXXZ 005b4db0 f   ParaDlg.obj
 0002:00052df0       ?OnBnClickedCheckStopTestType@CParaDlg@@QAEXXZ 005b4df0 f   ParaDlg.obj
 0002:00052e90       ?OnEnSetfocusEditPidMinutes@CParaDlg@@QAEXXZ 005b4e90 f   ParaDlg.obj
 0002:000530d0       ?OnEnSetfocusEditMainLevel2@CParaDlg@@QAEXXZ 005b50d0 f   ParaDlg.obj
 0002:00053110       ?OnCbnSetfocusComboHeatSpeed@CParaDlg@@QAEXXZ 005b5110 f   ParaDlg.obj
 0002:00053150       ?OnEnSetfocusEditContinueTestCount@CParaDlg@@QAEXXZ 005b5150 f   ParaDlg.obj
 0002:000533d0       ?OnCbnSelchangeCombo485Protocol@CParaDlg@@QAEXXZ 005b53d0 f   ParaDlg.obj
 0002:00053520       ?OnCbnSelchangeComboCoolDegree@CParaDlg@@QAEXXZ 005b5520 f   ParaDlg.obj
 0002:000536e0       ?OnCbnSelchangeComboCoolSpeed@CParaDlg@@QAEXXZ 005b56e0 f   ParaDlg.obj
 0002:00053800       ?OnBnClickedButtonTempAdjust@CParaDlg@@QAEXXZ 005b5800 f   ParaDlg.obj
 0002:00053a30       ?OnBnClickedButtonGroup@CParaDlg@@QAEXXZ 005b5a30 f   ParaDlg.obj
 0002:00053b40       ?OnCbnSelchangeComboSoundType@CParaDlg@@QAEXXZ 005b5b40 f   ParaDlg.obj
 0002:00053bc0       ?OnCbnSelendokComboOverHeat@CParaDlg@@QAEXXZ 005b5bc0 f   ParaDlg.obj
 0002:00053c40       ?OnCbnSelchangeComboSoundStrong@CParaDlg@@QAEXXZ 005b5c40 f   ParaDlg.obj
 0002:00053cc0       ?OnCbnSelchangeComboPrinterType@CParaDlg@@QAEXXZ 005b5cc0 f   ParaDlg.obj
 0002:00053e60       ?OnCbnSelchangeComboAutoPrintType@CParaDlg@@QAEXXZ 005b5e60 f   ParaDlg.obj
 0002:00054000       ?OnBnClickedCheckCoolDownAutoOpenDoor@CParaDlg@@QAEXXZ 005b6000 f   ParaDlg.obj
 0002:00054120       ?OnCbnSetfocusComboHeatBoxType@CParaDlg@@QAEXXZ 005b6120 f   ParaDlg.obj
 0002:00054160       ?OnCbnSelendokComboHeatBoxType@CParaDlg@@QAEXXZ 005b6160 f   ParaDlg.obj
 0002:000541a0       ??8ATL@@YA_NABV?$CStringT@_WV?$StrTraitMFC@_WV?$ChTraitsCRT@_W@ATL@@@@@0@PB_W@Z 005b61a0 f i ParaDlg.obj
 0002:00054200       ?Compare@?$CStringT@_WV?$StrTraitMFC@_WV?$ChTraitsCRT@_W@ATL@@@@@ATL@@QBEHPB_W@Z 005b6200 f i ParaDlg.obj
 0002:000542d0       ??$wcscat_s@$0BAE@@@YAHAAY0BAE@_WPB_W@Z 005b62d0 f i ParaDlg.obj
 0002:00054330       ?StringCompare@?$ChTraitsCRT@_W@ATL@@SAHPB_W0@Z 005b6330 f i ParaDlg.obj
 0002:00054390       ?OnExportChart@@YAXV?$CStringT@_WV?$StrTraitMFC@_WV?$ChTraitsCRT@_W@ATL@@@@@ATL@@PAVCDC@@VCTime@2@PAVCWnd@@VCRect@@@Z 005b6390 f   ProductTempBar.obj
 0002:000549b0       ??0CProductTempBar@@QAE@PAVCWnd@@@Z 005b69b0 f   ProductTempBar.obj
 0002:00054a90       ??_GCProductTempBar@@UAEPAXI@Z 005b6a90 f i ProductTempBar.obj
 0002:00054a90       ??_ECProductTempBar@@UAEPAXI@Z 005b6a90 f i ProductTempBar.obj
 0002:00054b00       ?DoDataExchange@CProductTempBar@@MAEXPAVCDataExchange@@@Z 005b6b00 f   ProductTempBar.obj
 0002:00054b80       ?GetMessageMap@CProductTempBar@@MBEPBUAFX_MSGMAP@@XZ 005b6b80 f   ProductTempBar.obj
 0002:00054bd0       ?GetThisMessageMap@CProductTempBar@@KGPBUAFX_MSGMAP@@XZ 005b6bd0 f   ProductTempBar.obj
 0002:00054c10       ?OnRadioOpenTemp@CProductTempBar@@QAEXXZ 005b6c10 f   ProductTempBar.obj
 0002:00054da0       ?OnRadioCloseTemp@CProductTempBar@@IAEXXZ 005b6da0 f   ProductTempBar.obj
 0002:00054f30       ?OnShowWindow@CProductTempBar@@IAEXHI@Z 005b6f30 f   ProductTempBar.obj
 0002:00054fa0       ?OnBnClickedButtonSave@CProductTempBar@@QAEXXZ 005b6fa0 f   ProductTempBar.obj
 0002:00054fe0       ?OnPaint@CProductTempBar@@QAEXXZ 005b6fe0 f   ProductTempBar.obj
 0002:00055090       ?OnBnClickedButtonFontDirection@CProductTempBar@@QAEXXZ 005b7090 f   ProductTempBar.obj
 0002:00055210       ?OnBnClickedButtonPrint@CProductTempBar@@QAEXXZ 005b7210 f   ProductTempBar.obj
 0002:00055800       ??1CPrintDialog@@UAE@XZ    005b7800 f i ProductTempBar.obj
 0002:00055850       ?OnLButtonDblClk@CProductTempBar@@QAEXIVCPoint@@@Z 005b7850 f   ProductTempBar.obj
 0002:00055a20       ?OnInitDialog@CProductTempBar@@UAEHXZ 005b7a20 f   ProductTempBar.obj
 0002:00055a90       ??1CCommonDialog@@UAE@XZ   005b7a90 f i ProductTempBar.obj
 0002:00055af0       ??_GCCommonDialog@@UAEPAXI@Z 005b7af0 f i ProductTempBar.obj
 0002:00055af0       ??_ECCommonDialog@@UAEPAXI@Z 005b7af0 f i ProductTempBar.obj
 0002:00055b60       ?GetRuntimeClass@CProgramDlg@@UBEPAUCRuntimeClass@@XZ 005b7b60 f   ProgramDlg.obj
 0002:00055ba0       ??0CProgramDlg@@QAE@PAVCWnd@@@Z 005b7ba0 f   ProgramDlg.obj
 0002:00055c90       ??_ECProgramDlg@@UAEPAXI@Z 005b7c90 f i ProgramDlg.obj
 0002:00055c90       ??_GCProgramDlg@@UAEPAXI@Z 005b7c90 f i ProgramDlg.obj
 0002:00055d00       ??1CProgramDlg@@UAE@XZ     005b7d00 f   ProgramDlg.obj
 0002:00055de0       ?DoDataExchange@CProgramDlg@@MAEXPAVCDataExchange@@@Z 005b7de0 f   ProgramDlg.obj
 0002:00055e90       ?GetMessageMap@CProgramDlg@@MBEPBUAFX_MSGMAP@@XZ 005b7e90 f   ProgramDlg.obj
 0002:00055ee0       ?GetThisMessageMap@CProgramDlg@@KGPBUAFX_MSGMAP@@XZ 005b7ee0 f   ProgramDlg.obj
 0002:00055f20       ?OnInitDialog@CProgramDlg@@UAEHXZ 005b7f20 f   ProgramDlg.obj
 0002:000560b0       ?OnBnClickedOk@CProgramDlg@@QAEXXZ 005b80b0 f   ProgramDlg.obj
 0002:00056170       ??0CPrnPreview@@QAE@PAVCWnd@@@Z 005b8170 f   RecordPrintPriew.obj
 0002:00056270       ??_GCPrnPreview@@UAEPAXI@Z 005b8270 f i RecordPrintPriew.obj
 0002:00056270       ??_ECPrnPreview@@UAEPAXI@Z 005b8270 f i RecordPrintPriew.obj
 0002:000562e0       ??1CPrnPreview@@UAE@XZ     005b82e0 f i RecordPrintPriew.obj
 0002:00056380       ?DoDataExchange@CPrnPreview@@MAEXPAVCDataExchange@@@Z 005b8380 f   RecordPrintPriew.obj
 0002:000563e0       ?GetMessageMap@CPrnPreview@@MBEPBUAFX_MSGMAP@@XZ 005b83e0 f   RecordPrintPriew.obj
 0002:00056430       ?GetThisMessageMap@CPrnPreview@@KGPBUAFX_MSGMAP@@XZ 005b8430 f   RecordPrintPriew.obj
 0002:00056470       ?DisplayPrnView_ByGroup@CPrnPreview@@QAEXXZ 005b8470 f   RecordPrintPriew.obj
 0002:00056fd0       ?DisplayPrnView@CPrnPreview@@QAEXXZ 005b8fd0 f   RecordPrintPriew.obj
 0002:000579c0       ?OnPaint@CPrnPreview@@IAEXXZ 005b99c0 f   RecordPrintPriew.obj
 0002:00057ac0       ?OnVScroll@CPrnPreview@@IAEXIIPAVCScrollBar@@@Z 005b9ac0 f   RecordPrintPriew.obj
 0002:00057be0       ?OnInitDialog@CPrnPreview@@MAEHXZ 005b9be0 f   RecordPrintPriew.obj
 0002:00057c70       ?OnButtonNext@CPrnPreview@@IAEXXZ 005b9c70 f   RecordPrintPriew.obj
 0002:00057d00       ??0CRecordViewDlg@@QAE@PAVCWnd@@@Z 005b9d00 f   RecordViewDlg.obj
 0002:00057ed0       ??_GCRecordViewDlg@@UAEPAXI@Z 005b9ed0 f i RecordViewDlg.obj
 0002:00057ed0       ??_ECRecordViewDlg@@UAEPAXI@Z 005b9ed0 f i RecordViewDlg.obj
 0002:00057f40       ?DoDataExchange@CRecordViewDlg@@MAEXPAVCDataExchange@@@Z 005b9f40 f   RecordViewDlg.obj
 0002:00058030       ?GetMessageMap@CRecordViewDlg@@MBEPBUAFX_MSGMAP@@XZ 005ba030 f   RecordViewDlg.obj
 0002:00058080       ?GetThisMessageMap@CRecordViewDlg@@KGPBUAFX_MSGMAP@@XZ 005ba080 f   RecordViewDlg.obj
 0002:000580c0       ?OnInitDialog@CRecordViewDlg@@MAEHXZ 005ba0c0 f   RecordViewDlg.obj
 0002:000584f0       ?OnClose@CRecordViewDlg@@IAEXXZ 005ba4f0 f   RecordViewDlg.obj
 0002:00058540       ?UpdateRecordDetail@CRecordViewDlg@@QAEXV?$CStringT@_WV?$StrTraitMFC@_WV?$ChTraitsCRT@_W@ATL@@@@@ATL@@0@Z 005ba540 f   RecordViewDlg.obj
 0002:00059e80       ?UpdateRecordDetail@CRecordViewDlg@@QAEXV?$CStringT@_WV?$StrTraitMFC@_WV?$ChTraitsCRT@_W@ATL@@@@@ATL@@@Z 005bbe80 f   RecordViewDlg.obj
 0002:0005b2b0       ?SavePDF@@YAXPAVCDC@@V?$CStringT@_WV?$StrTraitMFC@_WV?$ChTraitsCRT@_W@ATL@@@@@ATL@@H1PAURECORD@@@Z 005bd2b0 f   RecordViewDlg.obj
 0002:0005bb70       ?OnButtonPrn@CRecordViewDlg@@IAEXXZ 005bdb70 f   RecordViewDlg.obj
 0002:0005c620       ?TongJi@CRecordViewDlg@@SAXPAURECORD@@PAM11111PAH2@Z 005be620 f   RecordViewDlg.obj
 0002:0005ca60       ?OnButtonTempBar@CRecordViewDlg@@IAEXXZ 005bea60 f   RecordViewDlg.obj
 0002:0005cc80       ?OnButtonPrnPreview@CRecordViewDlg@@IAEXXZ 005bec80 f   RecordViewDlg.obj
 0002:0005d020       ?OnButtonTongji@CRecordViewDlg@@IAEXXZ 005bf020 f   RecordViewDlg.obj
 0002:0005d120       ?OnButtonSaveas@CRecordViewDlg@@IAEXXZ 005bf120 f   RecordViewDlg.obj
 0002:0005eb10       ?CreateDir@@YA?AV?$CStringT@_WV?$StrTraitMFC@_WV?$ChTraitsCRT@_W@ATL@@@@@ATL@@HV12@000@Z 005c0b10 f   RecordViewDlg.obj
 0002:0005ef00       ?SaveTreeReocord2CSV@CRecordViewDlg@@QAEXHV?$CStringT@_WV?$StrTraitMFC@_WV?$ChTraitsCRT@_W@ATL@@@@@ATL@@00000@Z 005c0f00 f   RecordViewDlg.obj
 0002:0005f720       ?SaveMonthCSV@CRecordViewDlg@@QAEXPAU_TREEITEM@@@Z 005c1720 f   RecordViewDlg.obj
 0002:0005f800       ?SaveYearCSV@CRecordViewDlg@@QAEXPAU_TREEITEM@@@Z 005c1800 f   RecordViewDlg.obj
 0002:0005f8e0       ?SaveDayCSV@CRecordViewDlg@@QAEXPAU_TREEITEM@@@Z 005c18e0 f   RecordViewDlg.obj
 0002:00060190       ?OnBnClickedButtonSaveas2@CRecordViewDlg@@QAEXXZ 005c2190 f   RecordViewDlg.obj
 0002:000603a0       ?OnBnClickedDelete@CRecordViewDlg@@QAEXXZ 005c23a0 f   RecordViewDlg.obj
 0002:00060400       ?OnBnClickedButtonTakedlg@CRecordViewDlg@@QAEXXZ 005c2400 f   RecordViewDlg.obj
 0002:00060670       ?SortRecord@CRecordViewDlg@@QAEXXZ 005c2670 f   RecordViewDlg.obj
 0002:00060c30       ?OnCbnSelchangeComboSortType@CRecordViewDlg@@QAEXXZ 005c2c30 f   RecordViewDlg.obj
 0002:00060cb0       ?OnCbnSelchangeComboPrintType@CRecordViewDlg@@QAEXXZ 005c2cb0 f   RecordViewDlg.obj
 0002:00060d90       ?OnBnClickedButtonOpenTempShow@CRecordViewDlg@@QAEXXZ 005c2d90 f   RecordViewDlg.obj
 0002:00061000       ?SaveRecord2CSV@CRecordViewDlg@@QAEXV?$CStringT@_WV?$StrTraitMFC@_WV?$ChTraitsCRT@_W@ATL@@@@@ATL@@PAU_TREEITEM@@@Z 005c3000 f   RecordViewDlg.obj
 0002:000616d0       ?ShowFile@CRecordViewDlg@@QAEXV?$CStringT@_WV?$StrTraitMFC@_WV?$ChTraitsCRT@_W@ATL@@@@@ATL@@PAU_TREEITEM@@@Z 005c36d0 f   RecordViewDlg.obj
 0002:00062180       ?OnNMClickTree1@CRecordViewDlg@@QAEXPAUtagNMHDR@@PAJ@Z 005c4180 f   RecordViewDlg.obj
 0002:000621d0       ?OnNMDblclkTree1@CRecordViewDlg@@QAEXPAUtagNMHDR@@PAJ@Z 005c41d0 f   RecordViewDlg.obj
 0002:00062660       ?OnTvnSelchangedTree1@CRecordViewDlg@@QAEXPAUtagNMHDR@@PAJ@Z 005c4660 f   RecordViewDlg.obj
 0002:000626b0       ?OnBnClickedButtonTempCurve@CRecordViewDlg@@QAEXXZ 005c46b0 f   RecordViewDlg.obj
 0002:00062b30       ?OnBnClickedButtonMes@CRecordViewDlg@@QAEXXZ 005c4b30 f   RecordViewDlg.obj
 0002:00062bb0       ?CreateMES_String@CRecordViewDlg@@SAXPAURECORD@@PAV?$CStringT@_WV?$StrTraitMFC@_WV?$ChTraitsCRT@_W@ATL@@@@@ATL@@@Z 005c4bb0 f   RecordViewDlg.obj
 0002:00063740       ?ReverseFind@?$CStringT@_WV?$StrTraitMFC@_WV?$ChTraitsCRT@_W@ATL@@@@@ATL@@QBEH_W@Z 005c5740 f i RecordViewDlg.obj
 0002:000637e0       ?Right@?$CStringT@_WV?$StrTraitMFC@_WV?$ChTraitsCRT@_W@ATL@@@@@ATL@@QBE?AV12@H@Z 005c57e0 f i RecordViewDlg.obj
 0002:000638d0       ??9ATL@@YA_NABV?$CStringT@_WV?$StrTraitMFC@_WV?$ChTraitsCRT@_W@ATL@@@@@0@_W@Z 005c58d0 f i RecordViewDlg.obj
 0002:00063960       ??A?$CSimpleStringT@_W$0A@@ATL@@QBE_WH@Z 005c5960 f i RecordViewDlg.obj
 0002:00063a20       ?Add@?$CArray@UTEMP_RECORD@@U1@@@QAEHUTEMP_RECORD@@@Z 005c5a20 f i RecordViewDlg.obj
 0002:00063aa0       ??$swprintf_s@$0DOI@@@YAHAAY0DOI@_WPB_WZZ 005c5aa0 f i RecordViewDlg.obj
 0002:00063b10       ??$wcscat_s@$0DOI@@@YAHAAY0DOI@_WPB_W@Z 005c5b10 f i RecordViewDlg.obj
 0002:00063b70       ?StringFindCharRev@?$ChTraitsCRT@_W@ATL@@SAPB_WPB_W_W@Z 005c5b70 f i RecordViewDlg.obj
 0002:00063bd0       ?SetAtGrow@?$CArray@UTEMP_RECORD@@U1@@@QAEXHUTEMP_RECORD@@@Z 005c5bd0 f i RecordViewDlg.obj
 0002:00063ca0       ?Format@CTime@ATL@@QBE?AV?$CStringT@_WV?$StrTraitMFC@_WV?$ChTraitsCRT@_W@ATL@@@@@2@PBD@Z 005c5ca0 f i RecordViewDlg.obj
 0002:00063db0       ??0?$CStringT@_WV?$StrTraitMFC@_WV?$ChTraitsCRT@_W@ATL@@@@@ATL@@QAE@PBD@Z 005c5db0 f i RecordViewDlg.obj
 0002:00063e80       ?_AfxInitManaged@@YAHXZ    005c5e80 f i StdAfx.obj
 0002:00063eb0       ??0Thank_you@Define_the_symbol__ATL_MIXED@@QAE@XZ 005c5eb0 f i StdAfx.obj
 0002:00063f00       ?one@Thank_you@Define_the_symbol__ATL_MIXED@@UAEXXZ 005c5f00 f i StdAfx.obj
 0002:00063f40       ?SortSwitchGroup@@YAHH@Z   005c5f40 f   SwitchDlg.obj
 0002:00063fb0       ??0CSwitchDlg@@QAE@PAVCWnd@@@Z 005c5fb0 f   SwitchDlg.obj
 0002:00064210       ??_ECSwitchDlg@@UAEPAXI@Z  005c6210 f i SwitchDlg.obj
 0002:00064210       ??_GCSwitchDlg@@UAEPAXI@Z  005c6210 f i SwitchDlg.obj
 0002:00064280       ?DoDataExchange@CSwitchDlg@@MAEXPAVCDataExchange@@@Z 005c6280 f   SwitchDlg.obj
 0002:00064310       ?GetMessageMap@CSwitchDlg@@MBEPBUAFX_MSGMAP@@XZ 005c6310 f   SwitchDlg.obj
 0002:00064360       ?GetThisMessageMap@CSwitchDlg@@KGPBUAFX_MSGMAP@@XZ 005c6360 f   SwitchDlg.obj
 0002:000643a0       ?DrawLED@CSwitchDlg@@QAEXXZ 005c63a0 f   SwitchDlg.obj
 0002:00064520       ?DrawLED_128_OLD_DISPLAY@CSwitchDlg@@QAEXXZ 005c6520 f   SwitchDlg.obj
 0002:000646a0       ?DrawBiMetalLED@CSwitchDlg@@QAEXXZ 005c66a0 f   SwitchDlg.obj
 0002:00064850       ?PreTranslateMessage@CSwitchDlg@@MAEHPAUtagMSG@@@Z 005c6850 f   SwitchDlg.obj
 0002:000648d0       ?OnInitDialog@CSwitchDlg@@MAEHXZ 005c68d0 f   SwitchDlg.obj
 0002:000657b0       ?OnShowWindow@CSwitchDlg@@IAEXHI@Z 005c77b0 f   SwitchDlg.obj
 0002:000658b0       ?OnPaint@CSwitchDlg@@IAEXXZ 005c78b0 f   SwitchDlg.obj
 0002:00065c50       ?OnSize@CSwitchDlg@@IAEXIHH@Z 005c7c50 f   SwitchDlg.obj
 0002:00065cb0       ?OnSetCursor@CSwitchDlg@@IAEHPAVCWnd@@II@Z 005c7cb0 f   SwitchDlg.obj
 0002:00065d10       ?OnTimer@CSwitchDlg@@IAEXI@Z 005c7d10 f   SwitchDlg.obj
 0002:00065db0       ?SaveCurve@CSwitchDlg@@QAEXXZ 005c7db0 f   SwitchDlg.obj
 0002:00066060       ?OnCheckStartTest@CSwitchDlg@@QAEXXZ 005c8060 f   SwitchDlg.obj
 0002:00066110       ?OnButtonTakeout@CSwitchDlg@@QAEXXZ 005c8110 f   SwitchDlg.obj
 0002:000666e0       ?DealCmdAnswer@CSwitchDlg@@QAEXPAE0_NH@Z 005c86e0 f   SwitchDlg.obj
 0002:00066760       ?OnRadioClose@CSwitchDlg@@IAEXXZ 005c8760 f   SwitchDlg.obj
 0002:000667e0       ?OnRadioOpen@CSwitchDlg@@IAEXXZ 005c87e0 f   SwitchDlg.obj
 0002:00066860       ?DefWindowProcW@CSwitchDlg@@MAEJIIJ@Z 005c8860 f   SwitchDlg.obj
 0002:000668c0       ?SaveExcel@CSwitchDlg@@QAEXXZ 005c88c0 f   SwitchDlg.obj
 0002:00067850       ?OnLButtonDblClk@CSwitchDlg@@IAEXIVCPoint@@@Z 005c9850 f   SwitchDlg.obj
 0002:00067ab0       ?OnCtlColor@CSwitchDlg@@QAEPAUHBRUSH__@@PAVCDC@@PAVCWnd@@I@Z 005c9ab0 f   SwitchDlg.obj
 0002:00067d40       ?OnClose@CSwitchDlg@@QAEXXZ 005c9d40 f   SwitchDlg.obj
 0002:00067d90       ??0?$CArray@UNTC_TEMP_RECORD@@U1@@@QAE@XZ 005c9d90 f i SwitchDlg.obj
 0002:00067e20       ??1?$CArray@UNTC_TEMP_RECORD@@U1@@@UAE@XZ 005c9e20 f i SwitchDlg.obj
 0002:00067f30       ?Serialize@?$CArray@UNTC_TEMP_RECORD@@U1@@@UAEXAAVCArchive@@@Z 005c9f30 f i SwitchDlg.obj
 0002:00068000       ?Dump@?$CArray@UNTC_TEMP_RECORD@@U1@@@UBEXAAVCDumpContext@@@Z 005ca000 f i SwitchDlg.obj
 0002:000680e0       ?AssertValid@?$CArray@UNTC_TEMP_RECORD@@U1@@@UBEXXZ 005ca0e0 f i SwitchDlg.obj
 0002:00068240       ??_E?$CArray@UNTC_TEMP_RECORD@@U1@@@UAEPAXI@Z 005ca240 f i SwitchDlg.obj
 0002:00068240       ??_G?$CArray@UNTC_TEMP_RECORD@@U1@@@UAEPAXI@Z 005ca240 f i SwitchDlg.obj
 0002:000682b0       ?SetSize@?$CArray@UNTC_TEMP_RECORD@@U1@@@QAEXHH@Z 005ca2b0 f i SwitchDlg.obj
 0002:00068890       ??$SerializeElements@UNTC_TEMP_RECORD@@@@YGXAAVCArchive@@PAUNTC_TEMP_RECORD@@H@Z 005ca890 f i SwitchDlg.obj
 0002:00068a90       ??$DumpElements@UNTC_TEMP_RECORD@@@@YGXAAVCDumpContext@@PBUNTC_TEMP_RECORD@@H@Z 005caa90 f i SwitchDlg.obj
 0002:00068b80       ??0CTakeoutDlg@@QAE@PAVCWnd@@@Z 005cab80 f   TakeDlg.obj
 0002:00069010       ??_ECTakeoutDlg@@UAEPAXI@Z 005cb010 f i TakeDlg.obj
 0002:00069010       ??_GCTakeoutDlg@@UAEPAXI@Z 005cb010 f i TakeDlg.obj
 0002:00069080       ?DoDataExchange@CTakeoutDlg@@MAEXPAVCDataExchange@@@Z 005cb080 f   TakeDlg.obj
 0002:000697a0       ?GetMessageMap@CTakeoutDlg@@MBEPBUAFX_MSGMAP@@XZ 005cb7a0 f   TakeDlg.obj
 0002:000697f0       ?GetThisMessageMap@CTakeoutDlg@@KGPBUAFX_MSGMAP@@XZ 005cb7f0 f   TakeDlg.obj
 0002:00069830       ?ShowTestResult@CTakeoutDlg@@QAEX_N0@Z 005cb830 f   TakeDlg.obj
 0002:0006d970       ?ShowTestResult_BOX_128_ONLY_OPENTEMP_TEST@CTakeoutDlg@@QAEX_N0@Z 005cf970 f   TakeDlg.obj
 0002:000715f0       ?DrawOneSwitch@CTakeoutDlg@@AAEXHMMW4TEST_RESULT_LEVEL@@_NJ1@Z 005d35f0 f   TakeDlg.obj
 0002:00073620       ?OnShowWindow@CTakeoutDlg@@IAEXHI@Z 005d5620 f   TakeDlg.obj
 0002:000736a0       ?OnInitDialog@CTakeoutDlg@@MAEHXZ 005d56a0 f   TakeDlg.obj
 0002:00076f80       ?OnPaint@CTakeoutDlg@@IAEXXZ 005d8f80 f   TakeDlg.obj
 0002:00077030       ?OnCheckMainLevel@CTakeoutDlg@@IAEXXZ 005d9030 f   TakeDlg.obj
 0002:00077600       ?OnCheckOverHighLevel@CTakeoutDlg@@IAEXXZ 005d9600 f   TakeDlg.obj
 0002:000776b0       ?OnCheckCloseHighLevel@CTakeoutDlg@@IAEXXZ 005d96b0 f   TakeDlg.obj
 0002:00077760       ?OnCheckCloseLowLevel@CTakeoutDlg@@IAEXXZ 005d9760 f   TakeDlg.obj
 0002:00077810       ?OnCheckHighLevel@CTakeoutDlg@@IAEXXZ 005d9810 f   TakeDlg.obj
 0002:00077ea0       ?OnCheckLowLevel@CTakeoutDlg@@IAEXXZ 005d9ea0 f   TakeDlg.obj
 0002:000785f0       ?OnCheckOverLowLevel@CTakeoutDlg@@IAEXXZ 005da5f0 f   TakeDlg.obj
 0002:000786a0       ?OnCheckOpenFlash@CTakeoutDlg@@IAEXXZ 005da6a0 f   TakeDlg.obj
 0002:00078750       ?OnCheckNoAction@CTakeoutDlg@@IAEXXZ 005da750 f   TakeDlg.obj
 0002:00078800       ?OnCheckCloseFlash@CTakeoutDlg@@IAEXXZ 005da800 f   TakeDlg.obj
 0002:000788b0       ?OnTimer@CTakeoutDlg@@IAEXI@Z 005da8b0 f   TakeDlg.obj
 0002:00078980       ?ClearAllSelected@CTakeoutDlg@@QAEXXZ 005da980 f   TakeDlg.obj
 0002:00078b90       ?SetAllSelected@CTakeoutDlg@@QAEXXZ 005dab90 f   TakeDlg.obj
 0002:00078cf0       ?SetAllSelected_NoNotUsed@CTakeoutDlg@@QAEXXZ 005dacf0 f   TakeDlg.obj
 0002:00078e50       ?OnCheckOpenDoorReset@CTakeoutDlg@@IAEXXZ 005dae50 f   TakeDlg.obj
 0002:00078f00       ?OnRadioOnlyOne@CTakeoutDlg@@IAEXXZ 005daf00 f   TakeDlg.obj
 0002:00078fa0       ?OnSize@CTakeoutDlg@@IAEXIHH@Z 005dafa0 f   TakeDlg.obj
 0002:00079020       ?OnButtonRecordView2@CTakeoutDlg@@IAEXXZ 005db020 f   TakeDlg.obj
 0002:00079140       ?OnRadioAllSelect@CTakeoutDlg@@IAEXXZ 005db140 f   TakeDlg.obj
 0002:000791e0       ?DoModal@CTakeoutDlg@@UAEHXZ 005db1e0 f   TakeDlg.obj
 0002:00079230       ?OnSetCursor@CTakeoutDlg@@IAEHPAVCWnd@@II@Z 005db230 f   TakeDlg.obj
 0002:00079290       ?OnCheckNoLevel@CTakeoutDlg@@IAEXXZ 005db290 f   TakeDlg.obj
 0002:00079340       ?OnCheckHighHighLevel@CTakeoutDlg@@IAEXXZ 005db340 f   TakeDlg.obj
 0002:000793f0       ?OnCheckHighLevelCloseHighLevel@CTakeoutDlg@@IAEXXZ 005db3f0 f   TakeDlg.obj
 0002:000794a0       ?OnCheckHighLevelCloseLowLevel@CTakeoutDlg@@IAEXXZ 005db4a0 f   TakeDlg.obj
 0002:00079550       ?OnCheckLowLevelCloseHighLevel@CTakeoutDlg@@IAEXXZ 005db550 f   TakeDlg.obj
 0002:00079600       ?OnCheckLowLevelCloseLowLevel@CTakeoutDlg@@IAEXXZ 005db600 f   TakeDlg.obj
 0002:000796b0       ?SelectLevel@CTakeoutDlg@@QAE_NXZ 005db6b0 f   TakeDlg.obj
 0002:00079a10       ?PreTranslateMessage@CTakeoutDlg@@UAEHPAUtagMSG@@@Z 005dba10 f   TakeDlg.obj
 0002:00079b90       ?OnCtlColor@CTakeoutDlg@@QAEPAUHBRUSH__@@PAVCDC@@PAVCWnd@@I@Z 005dbb90 f   TakeDlg.obj
 0002:00079ed0       ?OnBnClickedCheckNoPtcLevel@CTakeoutDlg@@QAEXXZ 005dbed0 f   TakeDlg.obj
 0002:00079f80       ?OnBnClickedButtonTempView@CTakeoutDlg@@QAEXXZ 005dbf80 f   TakeDlg.obj
 0002:0007a120       ?OnBnClickedButtonSaveExcel@CTakeoutDlg@@QAEXXZ 005dc120 f   TakeDlg.obj
 0002:0007a6f0       ?OnBnClickedButtonPreview@CTakeoutDlg@@QAEXXZ 005dc6f0 f   TakeDlg.obj
 0002:0007aaf0       ?OnBnClickedButtonTodayChanliang@CTakeoutDlg@@QAEXXZ 005dcaf0 f   TakeDlg.obj
 0002:0007b580       ?OnBnClickedButtonPrint@CTakeoutDlg@@QAEXXZ 005dd580 f   TakeDlg.obj
 0002:0007c620       ?OnClose@CTakeoutDlg@@QAEXXZ 005de620 f   TakeDlg.obj
 0002:0007c690       ?OnBnClickedButtonGroup@CTakeoutDlg@@QAEXXZ 005de690 f   TakeDlg.obj
 0002:0007c6d0       ?OnEnSetfocusEditOpen@CTakeoutDlg@@QAEXXZ 005de6d0 f   TakeDlg.obj
 0002:0007c880       ?OnEnSetfocusEditOpenPlus@CTakeoutDlg@@QAEXXZ 005de880 f   TakeDlg.obj
 0002:0007ca30       ?OnEnSetfocusEditOpenMinus@CTakeoutDlg@@QAEXXZ 005dea30 f   TakeDlg.obj
 0002:0007cbe0       ?OnEnSetfocusEditClose@CTakeoutDlg@@QAEXXZ 005debe0 f   TakeDlg.obj
 0002:0007cd90       ?OnEnSetfocusEditClosePlus@CTakeoutDlg@@QAEXXZ 005ded90 f   TakeDlg.obj
 0002:0007cf40       ?OnEnSetfocusEditCloseMinus@CTakeoutDlg@@QAEXXZ 005def40 f   TakeDlg.obj
 0002:0007d0f0       ?OnEnChangeEditHighLevelCloseHighLevel@CTakeoutDlg@@QAEXXZ 005df0f0 f   TakeDlg.obj
 0002:0007d130       ??0CTakeoutPage@@QAE@PAVCWnd@@@Z 005df130 f   TakeoutPage.obj
 0002:0007d3e0       ??_GCTakeoutPage@@UAEPAXI@Z 005df3e0 f i TakeoutPage.obj
 0002:0007d3e0       ??_ECTakeoutPage@@UAEPAXI@Z 005df3e0 f i TakeoutPage.obj
 0002:0007d450       ?DoDataExchange@CTakeoutPage@@MAEXPAVCDataExchange@@@Z 005df450 f   TakeoutPage.obj
 0002:0007d7f0       ?GetMessageMap@CTakeoutPage@@MBEPBUAFX_MSGMAP@@XZ 005df7f0 f   TakeoutPage.obj
 0002:0007d840       ?GetThisMessageMap@CTakeoutPage@@KGPBUAFX_MSGMAP@@XZ 005df840 f   TakeoutPage.obj
 0002:0007d880       ?DrawColorListItem@CTakeoutPage@@QAEXVCDC@@HMMW4TEST_RESULT_LEVEL@@_N@Z 005df880 f   TakeoutPage.obj
 0002:0007d8e0       ?DrawColorList@CTakeoutPage@@QAEXXZ 005df8e0 f   TakeoutPage.obj
 0002:0007e5f0       ?OnPaint@CTakeoutPage@@IAEXXZ 005e05f0 f   TakeoutPage.obj
 0002:0007e6f0       ?OnInitDialog@CTakeoutPage@@MAEHXZ 005e06f0 f   TakeoutPage.obj
 0002:0007e9a0       ?OnVScroll@CTakeoutPage@@IAEXIIPAVCScrollBar@@@Z 005e09a0 f   TakeoutPage.obj
 0002:0007eaf0       ?SortTestResult@CTakeoutPage@@QAEXXZ 005e0af0 f   TakeoutPage.obj
 0002:0007f600       ?CalTestResultLevel@CTakeoutPage@@QAEXPAUSWITCH_TEST_RESULT_AND_LEVEL@@@Z 005e1600 f   TakeoutPage.obj
 0002:0007f6f0       ?OnCheckOverLowLevel@CTakeoutPage@@IAEXXZ 005e16f0 f   TakeoutPage.obj
 0002:0007f790       ?ClearAllSelected@CTakeoutPage@@QAEXXZ 005e1790 f   TakeoutPage.obj
 0002:0007f8b0       ?OnCheckOverHighLevel@CTakeoutPage@@IAEXXZ 005e18b0 f   TakeoutPage.obj
 0002:0007f950       ?OnCheckLowLevel@CTakeoutPage@@IAEXXZ 005e1950 f   TakeoutPage.obj
 0002:0007f9f0       ?OnCheckHighLevel@CTakeoutPage@@IAEXXZ 005e19f0 f   TakeoutPage.obj
 0002:0007fa90       ?OnCheckMainLevel@CTakeoutPage@@IAEXXZ 005e1a90 f   TakeoutPage.obj
 0002:0007fb30       ?OnCheckCloseHighLevel@CTakeoutPage@@IAEXXZ 005e1b30 f   TakeoutPage.obj
 0002:0007fbd0       ?OnCheckCloseLowLevel@CTakeoutPage@@IAEXXZ 005e1bd0 f   TakeoutPage.obj
 0002:0007fc70       ?OnCheckOpenFlash@CTakeoutPage@@IAEXXZ 005e1c70 f   TakeoutPage.obj
 0002:0007fd10       ?OnCheckOpenDoorReset@CTakeoutPage@@IAEXXZ 005e1d10 f   TakeoutPage.obj
 0002:0007fdb0       ?OnCheckNoAction@CTakeoutPage@@IAEXXZ 005e1db0 f   TakeoutPage.obj
 0002:0007fe50       ?AdjustID@@YAHH@Z          005e1e50 f   TakeoutPage.obj
 0002:0007fe90       ?ShowTestResult@CTakeoutPage@@QAEXXZ 005e1e90 f   TakeoutPage.obj
 0002:000828b0       ?OnRadioOnlyOne@CTakeoutPage@@IAEXXZ 005e48b0 f   TakeoutPage.obj
 0002:00082930       ?OnButtonRecordView2@CTakeoutPage@@IAEXXZ 005e4930 f   TakeoutPage.obj
 0002:00082a50       ?OnButtonTakeoutDlg@CTakeoutPage@@IAEXXZ 005e4a50 f   TakeoutPage.obj
 0002:00082b90       ?OnCheckNoLevel@CTakeoutPage@@IAEXXZ 005e4b90 f   TakeoutPage.obj
 0002:00082c30       ?OnCheckCloseFlash@CTakeoutPage@@IAEXXZ 005e4c30 f   TakeoutPage.obj
 0002:00082cd0       ?GetSwitchNrString@CTakeoutPage@@QAE?AV?$CStringT@_WV?$StrTraitMFC@_WV?$ChTraitsCRT@_W@ATL@@@@@ATL@@H@Z 005e4cd0 f   TakeoutPage.obj
 0002:00082f10       ?OnBnClickedCheckHighHighLevel@CTakeoutPage@@QAEXXZ 005e4f10 f   TakeoutPage.obj
 0002:00082fb0       ??0CTempParaDlg@@QAE@PAVCWnd@@@Z 005e4fb0 f   TempParaDlg.obj
 0002:00083100       ??_ECTempParaDlg@@UAEPAXI@Z 005e5100 f i TempParaDlg.obj
 0002:00083100       ??_GCTempParaDlg@@UAEPAXI@Z 005e5100 f i TempParaDlg.obj
 0002:00083170       ?DoDataExchange@CTempParaDlg@@MAEXPAVCDataExchange@@@Z 005e5170 f   TempParaDlg.obj
 0002:00083240       ?GetMessageMap@CTempParaDlg@@MBEPBUAFX_MSGMAP@@XZ 005e5240 f   TempParaDlg.obj
 0002:00083290       ?GetThisMessageMap@CTempParaDlg@@KGPBUAFX_MSGMAP@@XZ 005e5290 f   TempParaDlg.obj
 0002:000832d0       ?OnCtlColor@CTempParaDlg@@QAEPAUHBRUSH__@@PAVCDC@@PAVCWnd@@I@Z 005e52d0 f   TempParaDlg.obj
 0002:00083410       ?OnInitDialog@CTempParaDlg@@UAEHXZ 005e5410 f   TempParaDlg.obj
 0002:000834c0       ?WriteBmp@@YAHV?$CStringT@_WV?$StrTraitMFC@_WV?$ChTraitsCRT@_W@ATL@@@@@ATL@@PAEKABUtagSIZE@@@Z 005e54c0 f   Bmp.obj
 0002:000837b0       ?WriteBmp@@YAHV?$CStringT@_WV?$StrTraitMFC@_WV?$ChTraitsCRT@_W@ATL@@@@@ATL@@PAUHDC__@@@Z 005e57b0 f   Bmp.obj
 0002:00083940       ?WriteBmp@@YAHV?$CStringT@_WV?$StrTraitMFC@_WV?$ChTraitsCRT@_W@ATL@@@@@ATL@@PAUHDC__@@VCRect@@@Z 005e5940 f   Bmp.obj
 0002:00083d20       ?DrawTempFlat@@YAXHPAVCDC@@PAUSWITCH_TEST_RESULT@@PAUSWITCH_CONFIG_PARA@@VCRect@@VCTime@ATL@@_NW4BOX_TYPE@@H@Z 005e5d20 f   Bmp.obj
 0002:00085a10       ?CreateBMPFile@@YAHPAUHWND__@@PA_WPAUHBITMAP__@@PAUHDC__@@@Z 005e7a10 f   Bmp.obj
 0002:00085d10       ?CreateBitmapInfoStruct@@YAPAUtagBITMAPINFO@@PAUHWND__@@PAUHBITMAP__@@@Z 005e7d10 f   Bmp.obj
 0002:00085f60       ?PrintReport_bmp@@YAXPAVCDC@@VCRect@@V?$CStringT@_WV?$StrTraitMFC@_WV?$ChTraitsCRT@_W@ATL@@@@@ATL@@HVCTime@4@3222USWITCH_CONFIG_PARA@@PAUSWITCH_TEST_RESULT_EX@@HHHW4BOX_TYPE@@H@Z 005e7f60 f   Bmp.obj
 0002:00089880       ?Hex2Char@@YAEE@Z          005eb880 f   comm.obj
 0002:00089930       ?FreeMyData@@YAHPB_W0HPAEPAH@Z 005eb930 f   comm.obj
 0002:00089a70       ?IsValidTemp@@YA_NM@Z      005eba70 f   comm.obj
 0002:00089b00       _fabsf                     005ebb00 f i comm.obj
 0002:00089b70       ?CalCheckSum@@YAEPADH@Z    005ebb70 f   comm.obj
 0002:00089be0       ?Buf2Char@@YAEPAE@Z        005ebbe0 f   comm.obj
 0002:00089c60       ?WriteLogFile@@YAXPADH_N@Z 005ebc60 f   comm.obj
 0002:00089c90       ?GetUsefulCommPort@@YAXPAVCStringArray@@@Z 005ebc90 f   comm.obj
 0002:00089e80       ?ReadCommThreadProc_Delta_PLC@@YAIPAX@Z 005ebe80 f   comm.obj
 0002:0008a100       ?ReadDeltaPLC@@YAXPAUCOMM_THREAD_PARA@@PAVCByteArray@@@Z 005ec100 f   comm.obj
 0002:0008a530       ?ReadCommThreadProc@@YAIPAX@Z 005ec530 f   comm.obj
 0002:0008bed0       ??0CComm@@QAE@XZ           005eded0 f   comm.obj
 0002:0008bfb0       ??_GCComm@@UAEPAXI@Z       005edfb0 f i comm.obj
 0002:0008bfb0       ??_ECComm@@UAEPAXI@Z       005edfb0 f i comm.obj
 0002:0008c020       ??1CComm@@UAE@XZ           005ee020 f   comm.obj
 0002:0008c060       ?SetBaudrate@CComm@@QAEHPAXKEEE@Z 005ee060 f   comm.obj
 0002:0008c2b0       ?OpenComm_Delta_PLC@CComm@@QAEHV?$CStringT@_WV?$StrTraitMFC@_WV?$ChTraitsCRT@_W@ATL@@@@@ATL@@PAUCOMM_THREAD_PARA@@@Z 005ee2b0 f   comm.obj
 0002:0008c790       ?OpenComm@CComm@@QAEHV?$CStringT@_WV?$StrTraitMFC@_WV?$ChTraitsCRT@_W@ATL@@@@@ATL@@PAUCOMM_THREAD_PARA@@@Z 005ee790 f   comm.obj
 0002:0008cc70       ?OpenComm@CComm@@QAEHV?$CStringT@_WV?$StrTraitMFC@_WV?$ChTraitsCRT@_W@ATL@@@@@ATL@@PAUCOMM_THREAD_PARA@@U_DCB@@@Z 005eec70 f   comm.obj
 0002:0008d170       ?IsOpened@CComm@@QAE_NXZ   005ef170 f   comm.obj
 0002:0008d1c0       ?CloseComm@CComm@@QAEHXZ   005ef1c0 f   comm.obj
 0002:0008d260       ?WriteComm@CComm@@QAEHPADH@Z 005ef260 f   comm.obj
 0002:0008d730       ?ReadComm@CComm@@QAEHPADH@Z 005ef730 f   comm.obj
 0002:0008d9a0       ?CheckCRC16@CComm@@QAE_NPAEHG@Z 005ef9a0 f   comm.obj
 0002:0008da20       ?CRC16_Ex@@YAIPAEI@Z       005efa20 f   comm.obj
 0002:0008db00       ?CRC16_MODBUS@CComm@@SAGPAEH@Z 005efb00 f   comm.obj
 0002:0008dbc0       ?CRC16@CComm@@SAGPAEH@Z    005efbc0 f   comm.obj
 0002:0008dcb0       ?XMODEM_CRC@CComm@@QAEGPADH@Z 005efcb0 f   comm.obj
 0002:0008dd80       ?CalCheckSum_OIL@CComm@@SAGPAEE@Z 005efd80 f   comm.obj
 0002:0008de00       ?SendReadTemp_192@CComm@@QAEPAUMODBUS_RS485_CMD_192@@PAEH@Z 005efe00 f   comm.obj
 0002:0008dec0       ?SendReadTemp_300@CComm@@QAEPAUMODBUS_RS485_CMD_300@@H@Z 005efec0 f   comm.obj
 0002:0008df60       ?SendReadTemp@CComm@@QAEPAUMODBUS_RS485_CMD_128@@HPAD@Z 005eff60 f   comm.obj
 0002:0008e030       ?SendReadTempToCmdAray@CComm@@QAEXH@Z 005f0030 f   comm.obj
 0002:0008e130       ?SendReadTemp@CComm@@QAEPAUMODBUS_RS485_CMD_128@@H@Z 005f0130 f   comm.obj
 0002:0008e2b0       ?SendReadTemp_32PT100@CComm@@QAEPAUMODBUS_RS485_CMD_32PT100@@H@Z 005f02b0 f   comm.obj
 0002:0008e430       ?IsOmronMeter@CComm@@SA_NW4BOX_TYPE@@@Z 005f0430 f   comm.obj
 0002:0008e490       ?SetCmdString_ASCII@CComm@@QAEXPAUASCII_RS485_COMMAND@@HHQAF@Z 005f0490 f   comm.obj
 0002:0008e690       ?SendPcbBoardType@CComm@@QAEXH@Z 005f0690 f   comm.obj
 0002:0008e780       ?SendTM7705_OSC@CComm@@QAEXH@Z 005f0780 f   comm.obj
 0002:0008e870       ?AddCommCmd@CComm@@AAEXHW4COMMAND_ID@@PAEH@Z 005f0870 f   comm.obj
 0002:0008eca0       ?SetDeltaFrequenceRun@CComm@@QAEX_N@Z 005f0ca0 f   comm.obj
 0002:0008ed80       ?SetCmdString_DeltaFrequence@CComm@@QAEXHUDELTA_FREQUNCE_CMD_HEX@@@Z 005f0d80 f   comm.obj
 0002:0008ef40       ?PcShort2OmronShort@@YAGG@Z 005f0f40 f   comm.obj
 0002:0008efe0       ?OmronShort2PcShort@@YAGG@Z 005f0fe0 f   comm.obj
 0002:0008f080       ?SetPIDT_P_Omron@CComm@@QAEXMH@Z 005f1080 f   comm.obj
 0002:0008f1c0       ?SetPIDT_I_Omron@CComm@@QAEXHH@Z 005f11c0 f   comm.obj
 0002:0008f2c0       ?SetPIDT_D_Omron@CComm@@QAEXHH@Z 005f12c0 f   comm.obj
 0002:0008f3c0       ?ReadPIDT_P_Omron@CComm@@QAEXH@Z 005f13c0 f   comm.obj
 0002:0008f4b0       ?ReadPIDT_I_Omron@CComm@@QAEXH@Z 005f14b0 f   comm.obj
 0002:0008f5a0       ?ReadPIDT_D_Omron@CComm@@QAEXH@Z 005f15a0 f   comm.obj
 0002:0008f690       ?ReadPIDT_T_Omron@CComm@@QAEXH@Z 005f1690 f   comm.obj
 0002:0008f780       ?ReadPidT@CComm@@QAEXH@Z   005f1780 f   comm.obj
 0002:0008f8b0       ?ReadPidT@CComm@@QAEXHD@Z  005f18b0 f   comm.obj
 0002:0008f990       ?SendStepPidCoolCmd@CComm@@QAEXMFH_N@Z 005f1990 f   comm.obj
 0002:0008fb10       ?SendPidCoolCmd@CComm@@QAEXMH_N@Z 005f1b10 f   comm.obj
 0002:0008fcb0       ?SendEPM1270Reset@CComm@@QAEX_NH@Z 005f1cb0 f   comm.obj
 0002:0008fe10       ?SendStepPIDCmd@CComm@@QAEHMHH@Z 005f1e10 f   comm.obj
 0002:00090040       ?SendDirectHeatCmd@CComm@@QAEXMH@Z 005f2040 f   comm.obj
 0002:00090220       ?SendStopHeatCmd@CComm@@QAEXMH@Z 005f2220 f   comm.obj
 0002:000903c0       ?SendStepUpPidCmd_Omron@CComm@@QAEXPAMMH@Z 005f23c0 f   comm.obj
 0002:000905a0       ?SendStepPIDDownCmd_Omron@CComm@@QAEXPAMMH@Z 005f25a0 f   comm.obj
 0002:00090740       ?SendStepUpPidCmd_Bruce@CComm@@QAEXPAMH@Z 005f2740 f   comm.obj
 0002:00090850       ?SendStepDownPidCmd_Bruce@CComm@@QAEXPAMH@Z 005f2850 f   comm.obj
 0002:00090960       ?SendNormalPidCmd@CComm@@QAEXMMH@Z 005f2960 f   comm.obj
 0002:00090b00       ?SendNormalPidCmd@CComm@@QAEXMH@Z 005f2b00 f   comm.obj
 0002:00090ca0       ?SendNormalPidCmd_8PT100_8SSR@CComm@@QAEXQAMH@Z 005f2ca0 f   comm.obj
 0002:00090e40       ?SendSetFan@CComm@@QAEXDH@Z 005f2e40 f   comm.obj
 0002:00090f20       ?SendGetStm32ID@CComm@@QAEXH@Z 005f2f20 f   comm.obj
 0002:00090ff0       ?SendBeepCmd@CComm@@QAEXDH@Z 005f2ff0 f   comm.obj
 0002:00091100       ?ReadPidCount@CComm@@QAEHH@Z 005f3100 f   comm.obj
 0002:00091200       ?SetPidCount@CComm@@QAEHH@Z 005f3200 f   comm.obj
 0002:00091300       ?Send_NTC_TH2512_Relay@CComm@@QAEHDHQAE@Z 005f3300 f   comm.obj
 0002:00091440       ?SendOpenDoorCmd@CComm@@QAEHDH@Z 005f3440 f   comm.obj
 0002:00091550       ?SendSet192InterfacePcbType@CComm@@QAEHDH@Z 005f3550 f   comm.obj
 0002:00091660       ?XModem_Start@CComm@@QAEXHHH@Z 005f3660 f   comm.obj
 0002:00092270       ?XModem_Start_ByFile@CComm@@QAEXH@Z 005f4270 f   comm.obj
 0002:00092820       ?ARM_XModem_Start_ByFile@CComm@@QAEXH@Z 005f4820 f   comm.obj
 0002:00092db0       ?Hex2Char@@YAEQAE@Z        005f4db0 f   comm.obj
 0002:00092f20       ?Hex2Bin@CComm@@SAHV?$CStringT@_WV?$StrTraitMFC@_WV?$ChTraitsCRT@_W@ATL@@@@@ATL@@PADH@Z 005f4f20 f   comm.obj
 0002:00093310       ?Hex2Bin@CComm@@SAHPAEHPADH@Z 005f5310 f   comm.obj
 0002:00093580       ?SetCmdString_OMRON@CComm@@QAEXHW4COMMAND_ID@@PAE@Z 005f5580 f   comm.obj
 0002:00093690       ?ReadAdjustAll_OMRON@CComm@@QAEXH@Z 005f5690 f   comm.obj
 0002:00093780       ?OMRON_Get_AdjustedTemp@CComm@@QAEMMH@Z 005f5780 f   comm.obj
 0002:00093820       ?OMRON_Get_MeterTemp_By_Sv@CComm@@QAEMMH@Z 005f5820 f   comm.obj
 0002:000938c0       ?SendAdjustAll_OMRON@CComm@@QAEXMH@Z 005f58c0 f   comm.obj
 0002:000939c0       ?SendDirectHeatCmd_OMRON@CComm@@QAEXMH@Z 005f59c0 f   comm.obj
 0002:00093ae0       ?SendAirControlCmd@CComm@@QAEH_N0HPAV?$CStringT@_WV?$StrTraitMFC@_WV?$ChTraitsCRT@_W@ATL@@@@@ATL@@@Z 005f5ae0 f   comm.obj
 0002:00093fc0       ?SendSetUsefulSensors@CComm@@QAEXHH@Z 005f5fc0 f   comm.obj
 0002:000940d0       ?SendAT@CComm@@QAEXMH@Z    005f60d0 f   comm.obj
 0002:00094220       ?SendCoolAT@CComm@@QAEXMH@Z 005f6220 f   comm.obj
 0002:00094370       ?Delta_Read_X@CComm@@QAEXXZ 005f6370 f   comm.obj
 0002:000943d0       ?Delta_Read_Y@CComm@@QAEXXZ 005f63d0 f   comm.obj
 0002:00094430       ?Delta_Read_D32@CComm@@QAEXXZ 005f6430 f   comm.obj
 0002:00094490       ?Delta_Set_D32@CComm@@QAEXHH@Z 005f6490 f   comm.obj
 0002:00094500       ?Delta_Set_M@CComm@@QAEXHD@Z 005f6500 f   comm.obj
 0002:00094570       ?Delta_Set_Y@CComm@@QAEXHD@Z 005f6570 f   comm.obj
 0002:000945e0       ?Delta_Set_C@CComm@@QAEXHD@Z 005f65e0 f   comm.obj
 0002:00094650       ?Delta_Read_M@CComm@@QAEXHH@Z 005f6650 f   comm.obj
 0002:000946c0       ?Delta_Read_C_7A@CComm@@QAEXXZ 005f66c0 f   comm.obj
 0002:00094720       ?Delta_Cal_LCR@CComm@@QAEHPAEH@Z 005f6720 f   comm.obj
 0002:000948f0       ?Delta_SendReadCmd@CComm@@QAEXEEGG@Z 005f68f0 f   comm.obj
 0002:00094cb0       ?Delta_SendSetCmd@CComm@@QAEXEEGE@Z 005f6cb0 f   comm.obj
 0002:00094fd0       ?ReadUsedSensor@CComm@@QAEXH@Z 005f6fd0 f   comm.obj
 0002:00095080       ?ReadAdjustLow@CComm@@QAEXH@Z 005f7080 f   comm.obj
 0002:00095150       ?ReadAdjustHigh@CComm@@QAEXH@Z 005f7150 f   comm.obj
 0002:00095220       ?SetAdjustHigh@CComm@@QAEXPAMH@Z 005f7220 f   comm.obj
 0002:00095440       ?SetAdjustLow@CComm@@QAEXPAMH@Z 005f7440 f   comm.obj
 0002:00095660       ?SetAdjustAll@CComm@@QAEXMH@Z 005f7660 f   comm.obj
 0002:00095790       ?SetAdjustAll@CComm@@QAEXPAMH@Z 005f7790 f   comm.obj
 0002:000958d0       ?SendSetHighVolt@CComm@@QAEXHE@Z 005f78d0 f   comm.obj
 0002:000959b0       ?ReadAdjustAll@CComm@@QAEXH@Z 005f79b0 f   comm.obj
 0002:00095a80       ?SetDisplayType@CComm@@QAEXHH@Z 005f7a80 f   comm.obj
 0002:00095b60       ?SetAddress@CComm@@QAEXH@Z 005f7b60 f   comm.obj
 0002:00095c40       ?SetPID_T@CComm@@QAEXPAFH@Z 005f7c40 f   comm.obj
 0002:00095d60       ?SetPID_T@CComm@@QAEXPAFHH@Z 005f7d60 f   comm.obj
 0002:00095e80       ?SendReadStatus_192@CComm@@QAEPAUMODBUS_RS485_CMD_192@@H@Z 005f7e80 f   comm.obj
 0002:00095fa0       ?SendReadStatus_32PT100@CComm@@QAEPAUMODBUS_RS485_CMD_32PT100@@H@Z 005f7fa0 f   comm.obj
 0002:00096290       ?SendReadStatus@CComm@@QAEPAUMODBUS_RS485_CMD_128@@H@Z 005f8290 f   comm.obj
 0002:00096580       ?SendReadStatus_300@CComm@@QAEPAUMODBUS_RS485_CMD_300@@H@Z 005f8580 f   comm.obj
 0002:000966a0       ?SendReadBimetalStatus@CComm@@QAEPAUMODBUS_RS485_CMD_128@@HE@Z 005f86a0 f   comm.obj
 0002:000967d0       ?SendProgramStart@CComm@@QAEXH@Z 005f87d0 f   comm.obj
 0002:000968d0       ?SendAutoTest@CComm@@QAEX_NH@Z 005f88d0 f   comm.obj
 0002:000969c0       ?GetCmdString@CComm@@SA?AV?$CStringT@_WV?$StrTraitMFC@_WV?$ChTraitsCRT@_W@ATL@@@@@ATL@@E@Z 005f89c0 f   comm.obj
 0002:00096bf0       ?ProgramPara@@YAXHHPAUMODBUS_RS485_CMD_PARA@@@Z 005f8bf0 f   comm.obj
 0002:00096d60       ?DealOnComm_Delta_PLC@@YAJIJPAVCWnd@@@Z 005f8d60 f   comm.obj
 0002:00096ea0       ?DealDeltaPLC@@YAXPAEH@Z   005f8ea0 f   comm.obj
 0002:00099120       ?DealOnComm@@YAJIJPAVCWnd@@@Z 005fb120 f   comm.obj
 0002:0009c180       ?Hex2Bin_ARM@CComm@@QAEHPAEHPADH@Z 005fe180 f   comm.obj
 0002:0009c420       ?GetSize@?$CArray@UMODBUS_RS485_CMD_PROGRAM@@U1@@@QBEHXZ 005fe420 f i comm.obj
 0002:0009c460       ?Add@?$CArray@UMODBUS_RS485_CMD_PROGRAM@@U1@@@QAEHUMODBUS_RS485_CMD_PROGRAM@@@Z 005fe460 f i comm.obj
 0002:0009c520       ?InsertAt@?$CArray@UMODBUS_RS485_CMD_PROGRAM@@U1@@@QAEXHUMODBUS_RS485_CMD_PROGRAM@@H@Z 005fe520 f i comm.obj
 0002:0009c820       ?RemoveAt@?$CArray@UMODBUS_RS485_CMD_PROGRAM@@U1@@@QAEXHH@Z 005fe820 f i comm.obj
 0002:0009c9e0       ?Add@?$CArray@UMODBUS_RS485_CMD_OMRON@@U1@@@QAEHUMODBUS_RS485_CMD_OMRON@@@Z 005fe9e0 f i comm.obj
 0002:0009ca90       ?GetCount@?$CArray@UDELTA_FREQUNCE_CMD_ASC@@U1@@@QBEHXZ 005fea90 f i comm.obj
 0002:0009cad0       ?Add@?$CArray@UDELTA_FREQUNCE_CMD_ASC@@U1@@@QAEHUDELTA_FREQUNCE_CMD_ASC@@@Z 005fead0 f i comm.obj
 0002:0009cba0       ?RemoveAt@?$CArray@UDELTA_FREQUNCE_CMD_ASC@@U1@@@QAEXHH@Z 005feba0 f i comm.obj
 0002:0009cd50       ?GetSize@?$CArray@UMODBUS_RS485_ARM_CMD_PROGRAM@@U1@@@QBEHXZ 005fed50 f i comm.obj
 0002:0009cd90       ?Add@?$CArray@UMODBUS_RS485_ARM_CMD_PROGRAM@@U1@@@QAEHUMODBUS_RS485_ARM_CMD_PROGRAM@@@Z 005fed90 f i comm.obj
 0002:0009ce50       ?RemoveAt@?$CArray@UMODBUS_RS485_ARM_CMD_PROGRAM@@U1@@@QAEXHH@Z 005fee50 f i comm.obj
 0002:0009d010       ?Add@?$CArray@UDELTA_PLC_SET_CMD@@U1@@@QAEHUDELTA_PLC_SET_CMD@@@Z 005ff010 f i comm.obj
 0002:0009d0e0       ?GetSize@?$CArray@UMODBUS_RS485_CMD_32PT100@@U1@@@QBEHXZ 005ff0e0 f i comm.obj
 0002:0009d120       ?Add@?$CArray@UMODBUS_RS485_CMD_32PT100@@U1@@@QAEHUMODBUS_RS485_CMD_32PT100@@@Z 005ff120 f i comm.obj
 0002:0009d1e0       ?RemoveAt@?$CArray@UMODBUS_RS485_CMD_32PT100@@U1@@@QAEXHH@Z 005ff1e0 f i comm.obj
 0002:0009d390       ?GetSize@?$CArray@UMODBUS_RS485_CMD_128@@U1@@@QBEHXZ 005ff390 f i comm.obj
 0002:0009d3d0       ?Add@?$CArray@UMODBUS_RS485_CMD_128@@U1@@@QAEHUMODBUS_RS485_CMD_128@@@Z 005ff3d0 f i comm.obj
 0002:0009d4b0       ?RemoveAt@?$CArray@UMODBUS_RS485_CMD_128@@U1@@@QAEXHH@Z 005ff4b0 f i comm.obj
 0002:0009d660       ?GetSize@?$CArray@UMODBUS_RS485_CMD_192@@U1@@@QBEHXZ 005ff660 f i comm.obj
 0002:0009d6a0       ?Add@?$CArray@UMODBUS_RS485_CMD_192@@U1@@@QAEHUMODBUS_RS485_CMD_192@@@Z 005ff6a0 f i comm.obj
 0002:0009d760       ?RemoveAt@?$CArray@UMODBUS_RS485_CMD_192@@U1@@@QAEXHH@Z 005ff760 f i comm.obj
 0002:0009d910       ?GetSize@?$CArray@UMODBUS_RS485_CMD_300@@U1@@@QBEHXZ 005ff910 f i comm.obj
 0002:0009d950       ?RemoveAt@?$CArray@UMODBUS_RS485_CMD_300@@U1@@@QAEXHH@Z 005ff950 f i comm.obj
 0002:0009db00       ??$sprintf_s@$0BA@@@YAHAAY0BA@DPBDZZ 005ffb00 f i comm.obj
 0002:0009db70       ?Add@?$CArray@UTEMP_RECORD_8TEMP_8SSR@@U1@@@QAEHUTEMP_RECORD_8TEMP_8SSR@@@Z 005ffb70 f i comm.obj
 0002:0009dc30       ?RemoveAt@?$CArray@UTEMP_RECORD_8TEMP_8SSR@@U1@@@QAEXHH@Z 005ffc30 f i comm.obj
 0002:0009dde0       ?GetCount@?$CArray@UTEMP_RECORD@@U1@@@QBEHXZ 005ffde0 f i comm.obj
 0002:0009de20       ?SetSize@?$CArray@UMODBUS_RS485_CMD_PROGRAM@@U1@@@QAEXHH@Z 005ffe20 f i comm.obj
 0002:0009e400       ?SetAtGrow@?$CArray@UMODBUS_RS485_CMD_PROGRAM@@U1@@@QAEXHUMODBUS_RS485_CMD_PROGRAM@@@Z 00600400 f i comm.obj
 0002:0009e520       ?SetAtGrow@?$CArray@UMODBUS_RS485_CMD_OMRON@@U1@@@QAEXHUMODBUS_RS485_CMD_OMRON@@@Z 00600520 f i comm.obj
 0002:0009e630       ?SetSize@?$CArray@UMODBUS_RS485_CMD_OMRON@@U1@@@QAEXHH@Z 00600630 f i comm.obj
 0002:0009ebc0       ?SetAtGrow@?$CArray@UDELTA_FREQUNCE_CMD_ASC@@U1@@@QAEXHUDELTA_FREQUNCE_CMD_ASC@@@Z 00600bc0 f i comm.obj
 0002:0009ecf0       ?SetSize@?$CArray@UDELTA_FREQUNCE_CMD_ASC@@U1@@@QAEXHH@Z 00600cf0 f i comm.obj
 0002:0009f290       ?SetAtGrow@?$CArray@UMODBUS_RS485_ARM_CMD_PROGRAM@@U1@@@QAEXHUMODBUS_RS485_ARM_CMD_PROGRAM@@@Z 00601290 f i comm.obj
 0002:0009f3b0       ?SetSize@?$CArray@UMODBUS_RS485_ARM_CMD_PROGRAM@@U1@@@QAEXHH@Z 006013b0 f i comm.obj
 0002:0009f990       ?SetAtGrow@?$CArray@UDELTA_PLC_SET_CMD@@U1@@@QAEXHUDELTA_PLC_SET_CMD@@@Z 00601990 f i comm.obj
 0002:0009fac0       ?SetSize@?$CArray@UDELTA_PLC_SET_CMD@@U1@@@QAEXHH@Z 00601ac0 f i comm.obj
 0002:000a0060       ?SetAtGrow@?$CArray@UMODBUS_RS485_CMD_32PT100@@U1@@@QAEXHUMODBUS_RS485_CMD_32PT100@@@Z 00602060 f i comm.obj
 0002:000a0170       ?SetSize@?$CArray@UMODBUS_RS485_CMD_32PT100@@U1@@@QAEXHH@Z 00602170 f i comm.obj
 0002:000a0710       ?SetAtGrow@?$CArray@UMODBUS_RS485_CMD_128@@U1@@@QAEXHUMODBUS_RS485_CMD_128@@@Z 00602710 f i comm.obj
 0002:000a0840       ?SetAtGrow@?$CArray@UMODBUS_RS485_CMD_192@@U1@@@QAEXHUMODBUS_RS485_CMD_192@@@Z 00602840 f i comm.obj
 0002:000a0950       ?SetAtGrow@?$CArray@UTEMP_RECORD_8TEMP_8SSR@@U1@@@QAEXHUTEMP_RECORD_8TEMP_8SSR@@@Z 00602950 f i comm.obj
 0002:000a0a60       ?SetSize@?$CArray@UTEMP_RECORD_8TEMP_8SSR@@U1@@@QAEXHH@Z 00602a60 f i comm.obj
 0002:000a1000       ??0?$CArray@UDELTA_PLC_SET_CMD@@U1@@@QAE@XZ 00603000 f i comm.obj
 0002:000a1090       ?Serialize@?$CArray@UDELTA_PLC_SET_CMD@@U1@@@UAEXAAVCArchive@@@Z 00603090 f i comm.obj
 0002:000a1160       ?Dump@?$CArray@UDELTA_PLC_SET_CMD@@U1@@@UBEXAAVCDumpContext@@@Z 00603160 f i comm.obj
 0002:000a1240       ?AssertValid@?$CArray@UDELTA_PLC_SET_CMD@@U1@@@UBEXXZ 00603240 f i comm.obj
 0002:000a13a0       ??_E?$CArray@UDELTA_PLC_SET_CMD@@U1@@@UAEPAXI@Z 006033a0 f i comm.obj
 0002:000a13a0       ??_G?$CArray@UDELTA_PLC_SET_CMD@@U1@@@UAEPAXI@Z 006033a0 f i comm.obj
 0002:000a1410       ??1?$CArray@UDELTA_PLC_SET_CMD@@U1@@@UAE@XZ 00603410 f i comm.obj
 0002:000a1520       ??$SerializeElements@UDELTA_PLC_SET_CMD@@@@YGXAAVCArchive@@PAUDELTA_PLC_SET_CMD@@H@Z 00603520 f i comm.obj
 0002:000a1710       ??$DumpElements@UDELTA_PLC_SET_CMD@@@@YGXAAVCDumpContext@@PBUDELTA_PLC_SET_CMD@@H@Z 00603710 f i comm.obj
 0002:000a1800       ??0?$CArray@UMODBUS_RS485_CMD_OMRON@@U1@@@QAE@XZ 00603800 f i comm.obj
 0002:000a1890       ?Serialize@?$CArray@UMODBUS_RS485_CMD_OMRON@@U1@@@UAEXAAVCArchive@@@Z 00603890 f i comm.obj
 0002:000a1960       ?Dump@?$CArray@UMODBUS_RS485_CMD_OMRON@@U1@@@UBEXAAVCDumpContext@@@Z 00603960 f i comm.obj
 0002:000a1a40       ?AssertValid@?$CArray@UMODBUS_RS485_CMD_OMRON@@U1@@@UBEXXZ 00603a40 f i comm.obj
 0002:000a1ba0       ??_G?$CArray@UMODBUS_RS485_CMD_OMRON@@U1@@@UAEPAXI@Z 00603ba0 f i comm.obj
 0002:000a1ba0       ??_E?$CArray@UMODBUS_RS485_CMD_OMRON@@U1@@@UAEPAXI@Z 00603ba0 f i comm.obj
 0002:000a1c10       ??1?$CArray@UMODBUS_RS485_CMD_OMRON@@U1@@@UAE@XZ 00603c10 f i comm.obj
 0002:000a1d20       ??$SerializeElements@UMODBUS_RS485_CMD_OMRON@@@@YGXAAVCArchive@@PAUMODBUS_RS485_CMD_OMRON@@H@Z 00603d20 f i comm.obj
 0002:000a1f10       ??$DumpElements@UMODBUS_RS485_CMD_OMRON@@@@YGXAAVCDumpContext@@PBUMODBUS_RS485_CMD_OMRON@@H@Z 00603f10 f i comm.obj
 0002:000a2000       ??0?$CArray@UMODBUS_RS485_CMD_32PT100@@U1@@@QAE@XZ 00604000 f i comm.obj
 0002:000a2090       ??1?$CArray@UMODBUS_RS485_CMD_32PT100@@U1@@@UAE@XZ 00604090 f i comm.obj
 0002:000a21a0       ?Serialize@?$CArray@UMODBUS_RS485_CMD_32PT100@@U1@@@UAEXAAVCArchive@@@Z 006041a0 f i comm.obj
 0002:000a2270       ?Dump@?$CArray@UMODBUS_RS485_CMD_32PT100@@U1@@@UBEXAAVCDumpContext@@@Z 00604270 f i comm.obj
 0002:000a2350       ?AssertValid@?$CArray@UMODBUS_RS485_CMD_32PT100@@U1@@@UBEXXZ 00604350 f i comm.obj
 0002:000a24b0       ??_G?$CArray@UMODBUS_RS485_CMD_32PT100@@U1@@@UAEPAXI@Z 006044b0 f i comm.obj
 0002:000a24b0       ??_E?$CArray@UMODBUS_RS485_CMD_32PT100@@U1@@@UAEPAXI@Z 006044b0 f i comm.obj
 0002:000a2520       ??$SerializeElements@UMODBUS_RS485_CMD_32PT100@@@@YGXAAVCArchive@@PAUMODBUS_RS485_CMD_32PT100@@H@Z 00604520 f i comm.obj
 0002:000a2710       ??$DumpElements@UMODBUS_RS485_CMD_32PT100@@@@YGXAAVCDumpContext@@PBUMODBUS_RS485_CMD_32PT100@@H@Z 00604710 f i comm.obj
 0002:000a2800       ??0?$CArray@UMODBUS_RS485_CMD_128@@U1@@@QAE@XZ 00604800 f i comm.obj
 0002:000a2890       ??1?$CArray@UMODBUS_RS485_CMD_128@@U1@@@UAE@XZ 00604890 f i comm.obj
 0002:000a29a0       ?Serialize@?$CArray@UMODBUS_RS485_CMD_128@@U1@@@UAEXAAVCArchive@@@Z 006049a0 f i comm.obj
 0002:000a2a70       ?Dump@?$CArray@UMODBUS_RS485_CMD_128@@U1@@@UBEXAAVCDumpContext@@@Z 00604a70 f i comm.obj
 0002:000a2b50       ?AssertValid@?$CArray@UMODBUS_RS485_CMD_128@@U1@@@UBEXXZ 00604b50 f i comm.obj
 0002:000a2cb0       ??_E?$CArray@UMODBUS_RS485_CMD_128@@U1@@@UAEPAXI@Z 00604cb0 f i comm.obj
 0002:000a2cb0       ??_G?$CArray@UMODBUS_RS485_CMD_128@@U1@@@UAEPAXI@Z 00604cb0 f i comm.obj
 0002:000a2d20       ??$SerializeElements@UMODBUS_RS485_CMD_128@@@@YGXAAVCArchive@@PAUMODBUS_RS485_CMD_128@@H@Z 00604d20 f i comm.obj
 0002:000a2f10       ??$DumpElements@UMODBUS_RS485_CMD_128@@@@YGXAAVCDumpContext@@PBUMODBUS_RS485_CMD_128@@H@Z 00604f10 f i comm.obj
 0002:000a3000       ??0?$CArray@UMODBUS_RS485_CMD_192@@U1@@@QAE@XZ 00605000 f i comm.obj
 0002:000a3090       ??1?$CArray@UMODBUS_RS485_CMD_192@@U1@@@UAE@XZ 00605090 f i comm.obj
 0002:000a31a0       ?Serialize@?$CArray@UMODBUS_RS485_CMD_192@@U1@@@UAEXAAVCArchive@@@Z 006051a0 f i comm.obj
 0002:000a3270       ?Dump@?$CArray@UMODBUS_RS485_CMD_192@@U1@@@UBEXAAVCDumpContext@@@Z 00605270 f i comm.obj
 0002:000a3350       ?AssertValid@?$CArray@UMODBUS_RS485_CMD_192@@U1@@@UBEXXZ 00605350 f i comm.obj
 0002:000a34b0       ??_G?$CArray@UMODBUS_RS485_CMD_192@@U1@@@UAEPAXI@Z 006054b0 f i comm.obj
 0002:000a34b0       ??_E?$CArray@UMODBUS_RS485_CMD_192@@U1@@@UAEPAXI@Z 006054b0 f i comm.obj
 0002:000a3520       ??$SerializeElements@UMODBUS_RS485_CMD_192@@@@YGXAAVCArchive@@PAUMODBUS_RS485_CMD_192@@H@Z 00605520 f i comm.obj
 0002:000a3710       ??$DumpElements@UMODBUS_RS485_CMD_192@@@@YGXAAVCDumpContext@@PBUMODBUS_RS485_CMD_192@@H@Z 00605710 f i comm.obj
 0002:000a3800       ??0?$CArray@UMODBUS_RS485_CMD_300@@U1@@@QAE@XZ 00605800 f i comm.obj
 0002:000a3890       ??1?$CArray@UMODBUS_RS485_CMD_300@@U1@@@UAE@XZ 00605890 f i comm.obj
 0002:000a39a0       ?Serialize@?$CArray@UMODBUS_RS485_CMD_300@@U1@@@UAEXAAVCArchive@@@Z 006059a0 f i comm.obj
 0002:000a3a70       ?Dump@?$CArray@UMODBUS_RS485_CMD_300@@U1@@@UBEXAAVCDumpContext@@@Z 00605a70 f i comm.obj
 0002:000a3b50       ?AssertValid@?$CArray@UMODBUS_RS485_CMD_300@@U1@@@UBEXXZ 00605b50 f i comm.obj
 0002:000a3cb0       ??_E?$CArray@UMODBUS_RS485_CMD_300@@U1@@@UAEPAXI@Z 00605cb0 f i comm.obj
 0002:000a3cb0       ??_G?$CArray@UMODBUS_RS485_CMD_300@@U1@@@UAEPAXI@Z 00605cb0 f i comm.obj
 0002:000a3d20       ?SetSize@?$CArray@UMODBUS_RS485_CMD_300@@U1@@@QAEXHH@Z 00605d20 f i comm.obj
 0002:000a42c0       ??$SerializeElements@UMODBUS_RS485_CMD_300@@@@YGXAAVCArchive@@PAUMODBUS_RS485_CMD_300@@H@Z 006062c0 f i comm.obj
 0002:000a44b0       ??$DumpElements@UMODBUS_RS485_CMD_300@@@@YGXAAVCDumpContext@@PBUMODBUS_RS485_CMD_300@@H@Z 006064b0 f i comm.obj
 0002:000a45a0       ??0?$CArray@UDELTA_FREQUNCE_CMD_ASC@@U1@@@QAE@XZ 006065a0 f i comm.obj
 0002:000a4630       ?Serialize@?$CArray@UDELTA_FREQUNCE_CMD_ASC@@U1@@@UAEXAAVCArchive@@@Z 00606630 f i comm.obj
 0002:000a4700       ?Dump@?$CArray@UDELTA_FREQUNCE_CMD_ASC@@U1@@@UBEXAAVCDumpContext@@@Z 00606700 f i comm.obj
 0002:000a47e0       ?AssertValid@?$CArray@UDELTA_FREQUNCE_CMD_ASC@@U1@@@UBEXXZ 006067e0 f i comm.obj
 0002:000a4940       ??_G?$CArray@UDELTA_FREQUNCE_CMD_ASC@@U1@@@UAEPAXI@Z 00606940 f i comm.obj
 0002:000a4940       ??_E?$CArray@UDELTA_FREQUNCE_CMD_ASC@@U1@@@UAEPAXI@Z 00606940 f i comm.obj
 0002:000a49b0       ??1?$CArray@UDELTA_FREQUNCE_CMD_ASC@@U1@@@UAE@XZ 006069b0 f i comm.obj
 0002:000a4ac0       ??$SerializeElements@UDELTA_FREQUNCE_CMD_ASC@@@@YGXAAVCArchive@@PAUDELTA_FREQUNCE_CMD_ASC@@H@Z 00606ac0 f i comm.obj
 0002:000a4cb0       ??$DumpElements@UDELTA_FREQUNCE_CMD_ASC@@@@YGXAAVCDumpContext@@PBUDELTA_FREQUNCE_CMD_ASC@@H@Z 00606cb0 f i comm.obj
 0002:000a4da0       ??0?$CArray@UMODBUS_RS485_CMD_PROGRAM@@U1@@@QAE@XZ 00606da0 f i comm.obj
 0002:000a4e30       ?Serialize@?$CArray@UMODBUS_RS485_CMD_PROGRAM@@U1@@@UAEXAAVCArchive@@@Z 00606e30 f i comm.obj
 0002:000a4f00       ?Dump@?$CArray@UMODBUS_RS485_CMD_PROGRAM@@U1@@@UBEXAAVCDumpContext@@@Z 00606f00 f i comm.obj
 0002:000a4fe0       ?AssertValid@?$CArray@UMODBUS_RS485_CMD_PROGRAM@@U1@@@UBEXXZ 00606fe0 f i comm.obj
 0002:000a5140       ??_E?$CArray@UMODBUS_RS485_CMD_PROGRAM@@U1@@@UAEPAXI@Z 00607140 f i comm.obj
 0002:000a5140       ??_G?$CArray@UMODBUS_RS485_CMD_PROGRAM@@U1@@@UAEPAXI@Z 00607140 f i comm.obj
 0002:000a51b0       ??1?$CArray@UMODBUS_RS485_CMD_PROGRAM@@U1@@@UAE@XZ 006071b0 f i comm.obj
 0002:000a52c0       ??$SerializeElements@UMODBUS_RS485_CMD_PROGRAM@@@@YGXAAVCArchive@@PAUMODBUS_RS485_CMD_PROGRAM@@H@Z 006072c0 f i comm.obj
 0002:000a54c0       ??$DumpElements@UMODBUS_RS485_CMD_PROGRAM@@@@YGXAAVCDumpContext@@PBUMODBUS_RS485_CMD_PROGRAM@@H@Z 006074c0 f i comm.obj
 0002:000a55b0       ??0?$CArray@UMODBUS_RS485_ARM_CMD_PROGRAM@@U1@@@QAE@XZ 006075b0 f i comm.obj
 0002:000a5640       ?Serialize@?$CArray@UMODBUS_RS485_ARM_CMD_PROGRAM@@U1@@@UAEXAAVCArchive@@@Z 00607640 f i comm.obj
 0002:000a5710       ?Dump@?$CArray@UMODBUS_RS485_ARM_CMD_PROGRAM@@U1@@@UBEXAAVCDumpContext@@@Z 00607710 f i comm.obj
 0002:000a57f0       ?AssertValid@?$CArray@UMODBUS_RS485_ARM_CMD_PROGRAM@@U1@@@UBEXXZ 006077f0 f i comm.obj
 0002:000a5950       ??_G?$CArray@UMODBUS_RS485_ARM_CMD_PROGRAM@@U1@@@UAEPAXI@Z 00607950 f i comm.obj
 0002:000a5950       ??_E?$CArray@UMODBUS_RS485_ARM_CMD_PROGRAM@@U1@@@UAEPAXI@Z 00607950 f i comm.obj
 0002:000a59c0       ??1?$CArray@UMODBUS_RS485_ARM_CMD_PROGRAM@@U1@@@UAE@XZ 006079c0 f i comm.obj
 0002:000a5ad0       ??$SerializeElements@UMODBUS_RS485_ARM_CMD_PROGRAM@@@@YGXAAVCArchive@@PAUMODBUS_RS485_ARM_CMD_PROGRAM@@H@Z 00607ad0 f i comm.obj
 0002:000a5cd0       ??$DumpElements@UMODBUS_RS485_ARM_CMD_PROGRAM@@@@YGXAAVCDumpContext@@PBUMODBUS_RS485_ARM_CMD_PROGRAM@@H@Z 00607cd0 f i comm.obj
 0002:000a5dc0       ??0?$CArray@UMODBUS_RS485_20TEMP_5SSR_ANSWER@@U1@@@QAE@XZ 00607dc0 f i comm.obj
 0002:000a5e50       ??1?$CArray@UMODBUS_RS485_20TEMP_5SSR_ANSWER@@U1@@@UAE@XZ 00607e50 f i comm.obj
 0002:000a5f60       ?Serialize@?$CArray@UMODBUS_RS485_20TEMP_5SSR_ANSWER@@U1@@@UAEXAAVCArchive@@@Z 00607f60 f i comm.obj
 0002:000a6030       ?Dump@?$CArray@UMODBUS_RS485_20TEMP_5SSR_ANSWER@@U1@@@UBEXAAVCDumpContext@@@Z 00608030 f i comm.obj
 0002:000a6110       ?AssertValid@?$CArray@UMODBUS_RS485_20TEMP_5SSR_ANSWER@@U1@@@UBEXXZ 00608110 f i comm.obj
 0002:000a6270       ??_E?$CArray@UMODBUS_RS485_20TEMP_5SSR_ANSWER@@U1@@@UAEPAXI@Z 00608270 f i comm.obj
 0002:000a6270       ??_G?$CArray@UMODBUS_RS485_20TEMP_5SSR_ANSWER@@U1@@@UAEPAXI@Z 00608270 f i comm.obj
 0002:000a62e0       ?SetSize@?$CArray@UMODBUS_RS485_20TEMP_5SSR_ANSWER@@U1@@@QAEXHH@Z 006082e0 f i comm.obj
 0002:000a6880       ??$SerializeElements@UMODBUS_RS485_20TEMP_5SSR_ANSWER@@@@YGXAAVCArchive@@PAUMODBUS_RS485_20TEMP_5SSR_ANSWER@@H@Z 00608880 f i comm.obj
 0002:000a6a70       ??$DumpElements@UMODBUS_RS485_20TEMP_5SSR_ANSWER@@@@YGXAAVCDumpContext@@PBUMODBUS_RS485_20TEMP_5SSR_ANSWER@@H@Z 00608a70 f i comm.obj
 0002:000a6b60       ?GetRecordTime@@YA?AVCTime@ATL@@J@Z 00608b60 f   common.obj
 0002:000a6c30       ?GetSpanSeconds@@YAJVCTime@ATL@@@Z 00608c30 f   common.obj
 0002:000a6cf0       ?CheckHeatOrCoolMode@@YA?AW4HEAT_COOL_ORDER@@HUSWITCH_CONFIG_PARA@@PAUCONTROL_TEMP_RANGE@@W4BOX_TYPE@@@Z 00608cf0 f   common.obj
 0002:000a79f0       ?CheckTestLevel_BOX_128_ONLY_OPENTEMP_TEST@@YA?AW4TEST_RESULT_LEVEL@@USWITCH_CONFIG_PARA@@USWITCH_TEST_RESULT@@W4HEAT_COOL_ORDER@@UCONTROL_TEMP_RANGE@@1W4BOX_TYPE@@@Z 006099f0 f   common.obj
 0002:000a7bb0       ?CheckTestLevel@@YA?AW4TEST_RESULT_LEVEL@@USWITCH_CONFIG_PARA@@USWITCH_TEST_RESULT@@W4HEAT_COOL_ORDER@@UCONTROL_TEMP_RANGE@@1W4BOX_TYPE@@@Z 00609bb0 f   common.obj
 0002:000a8f40       ?GetControlGoalTemp@@YAMW4SUB_MODE@@W4HEAT_COOL_ORDER@@_NUCONTROL_TEMP_RANGE@@H@Z 0060af40 f   common.obj
 0002:000a9710       ?GetMaxOpenTempAdjust@@YAMH@Z 0060b710 f   common.obj
 0002:000a9890       ?GetLowestCloseTemp@@YAMH@Z 0060b890 f   common.obj
 0002:000a99c0       ?TongJi@@YAXPAUTONG_JI_INFO@@USWITCH_CONFIG_PARA@@PAUSWITCH_TEST_RESULT_EX@@HW4BOX_TYPE@@HH@Z 0060b9c0 f   common.obj
 0002:000aa070       ?GetLevelName@@YA?AV?$CStringT@_WV?$StrTraitMFC@_WV?$ChTraitsCRT@_W@ATL@@@@@ATL@@W4TEST_RESULT_LEVEL@@@Z 0060c070 f   common.obj
 0002:000aa300       ?PrintReport@@YAXPAVCDC@@V?$CStringT@_WV?$StrTraitMFC@_WV?$ChTraitsCRT@_W@ATL@@@@@ATL@@HVCTime@3@2111USWITCH_CONFIG_PARA@@PAUSWITCH_TEST_RESULT_EX@@HHHW4BOX_TYPE@@H@Z 0060c300 f   common.obj
 0002:000afd10       ?PrintReport_Ticket@@YAXPAVCDC@@VCRect@@V?$CStringT@_WV?$StrTraitMFC@_WV?$ChTraitsCRT@_W@ATL@@@@@ATL@@HVCTime@4@3222USWITCH_CONFIG_PARA@@PAUSWITCH_TEST_RESULT_EX@@HHHW4BOX_TYPE@@H@Z 00611d10 f   common.obj
 0002:000b2e00       ?GetZhengTaiFengBuString@@YAXHUSWITCH_CONFIG_PARA_ALL@@PAUSWITCH_TEST_RESULT_EX@@HW4BOX_TYPE@@@Z 00614e00 f   common.obj
 0002:000b3f00       ?PrintReport_ByGroup_2@@YAXPAVCDC@@V?$CStringT@_WV?$StrTraitMFC@_WV?$ChTraitsCRT@_W@ATL@@@@@ATL@@HVCTime@3@2111USWITCH_CONFIG_PARA@@PAUSWITCH_TEST_RESULT_EX@@HHHW4BOX_TYPE@@@Z 00615f00 f   common.obj
 0002:000b7960       ?PrintReport_ByGroup_Ticket@@YAXPAVCDC@@V?$CStringT@_WV?$StrTraitMFC@_WV?$ChTraitsCRT@_W@ATL@@@@@ATL@@HVCTime@3@2111USWITCH_CONFIG_PARA_ALL@@PAUSWITCH_TEST_RESULT_EX@@HW4BOX_TYPE@@H@Z 00619960 f   common.obj
 0002:000b7d10       ?PrintReport_ByGroup@@YAXPAVCDC@@V?$CStringT@_WV?$StrTraitMFC@_WV?$ChTraitsCRT@_W@ATL@@@@@ATL@@HVCTime@3@2111USWITCH_CONFIG_PARA_ALL@@PAUSWITCH_TEST_RESULT_EX@@HW4BOX_TYPE@@H@Z 00619d10 f   common.obj
 0002:000bb5c0       ?GetPrintStringByGroup@@YAXHUSWITCH_CONFIG_PARA_ALL@@PAUSWITCH_TEST_RESULT_EX@@W4BOX_TYPE@@@Z 0061d5c0 f   common.obj
 0002:000bd060       ?CreateFileShortcut@@YAHPA_W000GPB_WH@Z 0061f060 f   common.obj
 0002:000bd490       ?wcsrchr@@YAPA_WPA_W_W@Z   0061f490 f i common.obj
 0002:000bd4f0       ?CopyAndCreatShortCut@@YAHXZ 0061f4f0 f   common.obj
 0002:000bd7d0       ?GetDesktopPath@@YAHPA_W@Z 0061f7d0 f   common.obj
 0002:000bd8c0       ?GetProgramFilePath@@YAHPA_W@Z 0061f8c0 f   common.obj
 0002:000bd9b0       ?GetIEQuickLaunchPath@@YAHPA_W@Z 0061f9b0 f   common.obj
 0002:000bdaa0       ?GetProgramsPath@@YAHPA_W@Z 0061faa0 f   common.obj
 0002:000bdb80       ?CreateCurDateDirection@@YA?AV?$CStringT@_WV?$StrTraitMFC@_WV?$ChTraitsCRT@_W@ATL@@@@@ATL@@HHHHHHH@Z 0061fb80 f   common.obj
 0002:000bdfb0       ?GetDateDirection@@YA?AV?$CStringT@_WV?$StrTraitMFC@_WV?$ChTraitsCRT@_W@ATL@@@@@ATL@@HVCTime@2@@Z 0061ffb0 f   common.obj
 0002:000be380       ?SaveNormalConfigPara@@YAXXZ 00620380 f   common.obj
 0002:000be6e0       ?ReadNormalConfigPara@@YAXXZ 006206e0 f   common.obj
 0002:000bef00       ?SaveBmpFile@@YAXPAVCWnd@@V?$CStringT@_WV?$StrTraitMFC@_WV?$ChTraitsCRT@_W@ATL@@@@@ATL@@1HVCTime@3@2111USWITCH_CONFIG_PARA_ALL@@PAUSWITCH_TEST_RESULT_EX@@HHHW4BOX_TYPE@@H@Z 00620f00 f   common.obj
 0002:000bf4f0       ?Group2Char@@YAXPAE0@Z     006214f0 f   common.obj
 0002:000bf700       ?SendExcelCSV_2_PC@@YAXV?$CStringT@_WV?$StrTraitMFC@_WV?$ChTraitsCRT@_W@ATL@@@@@ATL@@HHHHHH@Z 00621700 f   common.obj
 0002:000bf9b0       ?SaveRecord2ExcelCSV_CE@@YAXURECORD@@HV?$CStringT@_WV?$StrTraitMFC@_WV?$ChTraitsCRT@_W@ATL@@@@@ATL@@@Z 006219b0 f   common.obj
 0002:000c12c0       ?SaveRecord2ExcelCSV_KSD302_CE@@YAXURECORD@@HV?$CStringT@_WV?$StrTraitMFC@_WV?$ChTraitsCRT@_W@ATL@@@@@ATL@@@Z 006232c0 f   common.obj
 0002:000c2b10       ?SaveRecord2ExcelCSV@@YAXURECORD@@HV?$CStringT@_WV?$StrTraitMFC@_WV?$ChTraitsCRT@_W@ATL@@@@@ATL@@@Z 00624b10 f   common.obj
 0002:000c38a0       ?GetTotalMinutesFromSTD_TIME@@YAJVCTime@ATL@@@Z 006258a0 f   common.obj
 0002:000c3960       ?GetTimeFromTotalMinues@@YA?AVCTime@ATL@@J@Z 00625960 f   common.obj
 0002:000c3a30       ?MyAfxMessageBox@@YAIV?$CStringT@_WV?$StrTraitMFC@_WV?$ChTraitsCRT@_W@ATL@@@@@ATL@@I@Z 00625a30 f   common.obj
 0002:000c3b60       ?MyAfxMessageBox@@YAIV?$CStringT@_WV?$StrTraitMFC@_WV?$ChTraitsCRT@_W@ATL@@@@@ATL@@@Z 00625b60 f   common.obj
 0002:000c3bc0       ?RemoveAll@?$CArray@MM@@QAEXXZ 00625bc0 f i common.obj
 0002:000c3c20       ?GetData@?$CArray@MM@@QAEPAMXZ 00625c20 f i common.obj
 0002:000c3c60       ?GetSize@?$CArray@UPRINT_STR@@U1@@@QBEHXZ 00625c60 f i common.obj
 0002:000c3ca0       ?RemoveAll@?$CArray@UPRINT_STR@@U1@@@QAEXXZ 00625ca0 f i common.obj
 0002:000c3d00       ?GetAt@?$CArray@UPRINT_STR@@U1@@@QAEAAUPRINT_STR@@H@Z 00625d00 f i common.obj
 0002:000c3db0       ?Add@?$CArray@UPRINT_STR@@U1@@@QAEHUPRINT_STR@@@Z 00625db0 f i common.obj
 0002:000c3e70       ??$wcscat_s@$0GE@@@YAHAAY0GE@_WPB_W@Z 00625e70 f i common.obj
 0002:000c3ed0       ?SetSize@?$CArray@UPRINT_STR@@U1@@@QAEXHH@Z 00625ed0 f i common.obj
 0002:000c44b0       ?SetAtGrow@?$CArray@UPRINT_STR@@U1@@@QAEXHUPRINT_STR@@@Z 006264b0 f i common.obj
 0002:000c45d0       ??0?$CArray@UTEMP_RECORD_8TEMP_8SSR@@U1@@@QAE@XZ 006265d0 f i common.obj
 0002:000c4660       ??1?$CArray@UTEMP_RECORD_8TEMP_8SSR@@U1@@@UAE@XZ 00626660 f i common.obj
 0002:000c4770       ?Serialize@?$CArray@UTEMP_RECORD_8TEMP_8SSR@@U1@@@UAEXAAVCArchive@@@Z 00626770 f i common.obj
 0002:000c4840       ?Dump@?$CArray@UTEMP_RECORD_8TEMP_8SSR@@U1@@@UBEXAAVCDumpContext@@@Z 00626840 f i common.obj
 0002:000c4920       ?AssertValid@?$CArray@UTEMP_RECORD_8TEMP_8SSR@@U1@@@UBEXXZ 00626920 f i common.obj
 0002:000c4a80       ??_G?$CArray@UTEMP_RECORD_8TEMP_8SSR@@U1@@@UAEPAXI@Z 00626a80 f i common.obj
 0002:000c4a80       ??_E?$CArray@UTEMP_RECORD_8TEMP_8SSR@@U1@@@UAEPAXI@Z 00626a80 f i common.obj
 0002:000c4af0       ??$SerializeElements@UTEMP_RECORD_8TEMP_8SSR@@@@YGXAAVCArchive@@PAUTEMP_RECORD_8TEMP_8SSR@@H@Z 00626af0 f i common.obj
 0002:000c4ce0       ??$DumpElements@UTEMP_RECORD_8TEMP_8SSR@@@@YGXAAVCDumpContext@@PBUTEMP_RECORD_8TEMP_8SSR@@H@Z 00626ce0 f i common.obj
 0002:000c4dd0       ??0?$CArray@UPRINT_STR@@U1@@@QAE@XZ 00626dd0 f i common.obj
 0002:000c4e60       ??1?$CArray@UPRINT_STR@@U1@@@UAE@XZ 00626e60 f i common.obj
 0002:000c4f70       ?Serialize@?$CArray@UPRINT_STR@@U1@@@UAEXAAVCArchive@@@Z 00626f70 f i common.obj
 0002:000c5040       ?Dump@?$CArray@UPRINT_STR@@U1@@@UBEXAAVCDumpContext@@@Z 00627040 f i common.obj
 0002:000c5120       ?AssertValid@?$CArray@UPRINT_STR@@U1@@@UBEXXZ 00627120 f i common.obj
 0002:000c5280       ??_E?$CArray@UPRINT_STR@@U1@@@UAEPAXI@Z 00627280 f i common.obj
 0002:000c5280       ??_G?$CArray@UPRINT_STR@@U1@@@UAEPAXI@Z 00627280 f i common.obj
 0002:000c52f0       ??$SerializeElements@UPRINT_STR@@@@YGXAAVCArchive@@PAUPRINT_STR@@H@Z 006272f0 f i common.obj
 0002:000c54f0       ??$DumpElements@UPRINT_STR@@@@YGXAAVCDumpContext@@PBUPRINT_STR@@H@Z 006274f0 f i common.obj
 0002:000c55e0       ??0?$CArray@UDISC_RECORD@@U1@@@QAE@XZ 006275e0 f i common.obj
 0002:000c5670       ??1?$CArray@UDISC_RECORD@@U1@@@UAE@XZ 00627670 f i common.obj
 0002:000c5780       ?Serialize@?$CArray@UDISC_RECORD@@U1@@@UAEXAAVCArchive@@@Z 00627780 f i common.obj
 0002:000c5850       ?Dump@?$CArray@UDISC_RECORD@@U1@@@UBEXAAVCDumpContext@@@Z 00627850 f i common.obj
 0002:000c5930       ?AssertValid@?$CArray@UDISC_RECORD@@U1@@@UBEXXZ 00627930 f i common.obj
 0002:000c5a90       ??_G?$CArray@UDISC_RECORD@@U1@@@UAEPAXI@Z 00627a90 f i common.obj
 0002:000c5a90       ??_E?$CArray@UDISC_RECORD@@U1@@@UAEPAXI@Z 00627a90 f i common.obj
 0002:000c5b00       ?SetSize@?$CArray@UDISC_RECORD@@U1@@@QAEXHH@Z 00627b00 f i common.obj
 0002:000c60a0       ??$SerializeElements@UDISC_RECORD@@@@YGXAAVCArchive@@PAUDISC_RECORD@@H@Z 006280a0 f i common.obj
 0002:000c6290       ??$DumpElements@UDISC_RECORD@@@@YGXAAVCDumpContext@@PBUDISC_RECORD@@H@Z 00628290 f i common.obj
 0002:000c6380       ??0?$CArray@UMODBUS_RS485_CMD_SET@@U1@@@QAE@XZ 00628380 f i dc_power_supply.obj
 0002:000c6410       ??1?$CArray@UMODBUS_RS485_CMD_SET@@U1@@@UAE@XZ 00628410 f i dc_power_supply.obj
 0002:000c6520       ?Serialize@?$CArray@UMODBUS_RS485_CMD_SET@@U1@@@UAEXAAVCArchive@@@Z 00628520 f i dc_power_supply.obj
 0002:000c65f0       ?Dump@?$CArray@UMODBUS_RS485_CMD_SET@@U1@@@UBEXAAVCDumpContext@@@Z 006285f0 f i dc_power_supply.obj
 0002:000c66d0       ?AssertValid@?$CArray@UMODBUS_RS485_CMD_SET@@U1@@@UBEXXZ 006286d0 f i dc_power_supply.obj
 0002:000c6830       ??_E?$CArray@UMODBUS_RS485_CMD_SET@@U1@@@UAEPAXI@Z 00628830 f i dc_power_supply.obj
 0002:000c6830       ??_G?$CArray@UMODBUS_RS485_CMD_SET@@U1@@@UAEPAXI@Z 00628830 f i dc_power_supply.obj
 0002:000c68a0       ?SetSize@?$CArray@UMODBUS_RS485_CMD_SET@@U1@@@QAEXHH@Z 006288a0 f i dc_power_supply.obj
 0002:000c6e30       ??$SerializeElements@UMODBUS_RS485_CMD_SET@@@@YGXAAVCArchive@@PAUMODBUS_RS485_CMD_SET@@H@Z 00628e30 f i dc_power_supply.obj
 0002:000c7020       ??$DumpElements@UMODBUS_RS485_CMD_SET@@@@YGXAAVCDumpContext@@PBUMODBUS_RS485_CMD_SET@@H@Z 00629020 f i dc_power_supply.obj
 0002:000c7110       ?CheckJiaJuPass@@YA_NPAVCWnd@@EH@Z 00629110 f   DrawLed.obj
 0002:000c8470       ?DrawLED@@YAXPAVCWnd@@VCRect@@HH@Z 0062a470 f   DrawLed.obj
 0002:000c9aa0       ?DrawLED_OilBaths@@YAXPAVCWnd@@VCRect@@HH@Z 0062baa0 f   DrawLed.obj
 0002:000cb590       ?DrawLED_JiaJu@@YAXPAVCWnd@@VCRect@@H@Z 0062d590 f   DrawLed.obj
 0002:000cc8a0       ?DrawLED_128_OLD_DISPLAY@@YAXPAVCWnd@@VCRect@@H@Z 0062e8a0 f   DrawLed.obj
 0002:000cdd10       ?DrawTempCurve@@YAXPAVCWnd@@VCRect@@PAV?$CArray@UTEMP_RECORD_8TEMP_8SSR@@U1@@@VCTime@ATL@@@Z 0062fd10 f   DrawLed.obj
 0002:000cf3d0       ?DrawTempCurve@@YAXPAVCWnd@@VCRect@@PAV?$CArray@UTEMP_RECORD@@U1@@@VCTime@ATL@@@Z 006313d0 f   DrawLed.obj
 0002:000d0a60       ?DrawLED_BiMetal@@YAXPAVCWnd@@HVCRect@@PAUSWITCH_CONFIG_PARA@@PAV2@W4BOX_TYPE@@@Z 00632a60 f   DrawLed.obj
 0002:000d2740       ?GetSize@?$CArray@HH@@QBEHXZ 00634740 f i DrawLed.obj
 0002:000d2780       ?GetAt@?$CArray@HH@@QAEAAHH@Z 00634780 f i DrawLed.obj
 0002:000d2830       ?Add@?$CArray@HH@@QAEHH@Z  00634830 f i DrawLed.obj
 0002:000d28a0       ?SetAtGrow@?$CArray@HH@@QAEXHH@Z 006348a0 f i DrawLed.obj
 0002:000d2970       ??0?$CArray@HH@@QAE@XZ     00634970 f i DrawLed.obj
 0002:000d2a00       ?Serialize@?$CArray@HH@@UAEXAAVCArchive@@@Z 00634a00 f i DrawLed.obj
 0002:000d2ad0       ?Dump@?$CArray@HH@@UBEXAAVCDumpContext@@@Z 00634ad0 f i DrawLed.obj
 0002:000d2bb0       ?AssertValid@?$CArray@HH@@UBEXXZ 00634bb0 f i DrawLed.obj
 0002:000d2d10       ??_G?$CArray@HH@@UAEPAXI@Z 00634d10 f i DrawLed.obj
 0002:000d2d10       ??_E?$CArray@HH@@UAEPAXI@Z 00634d10 f i DrawLed.obj
 0002:000d2d80       ??1?$CArray@HH@@UAE@XZ     00634d80 f i DrawLed.obj
 0002:000d2e90       ??$SerializeElements@H@@YGXAAVCArchive@@PAHH@Z 00634e90 f i DrawLed.obj
 0002:000d3080       ??$DumpElements@H@@YGXAAVCDumpContext@@PBHH@Z 00635080 f i DrawLed.obj
 0002:000d3170       ??0CInputAutoAdjustTempDlg@@QAE@PAVCWnd@@@Z 00635170 f   InputAutoAdjustTempDlg.obj
 0002:000d32c0       ??_GCInputAutoAdjustTempDlg@@UAEPAXI@Z 006352c0 f i InputAutoAdjustTempDlg.obj
 0002:000d32c0       ??_ECInputAutoAdjustTempDlg@@UAEPAXI@Z 006352c0 f i InputAutoAdjustTempDlg.obj
 0002:000d3330       ??1CInputAutoAdjustTempDlg@@UAE@XZ 00635330 f i InputAutoAdjustTempDlg.obj
 0002:000d3430       ?DoDataExchange@CInputAutoAdjustTempDlg@@MAEXPAVCDataExchange@@@Z 00635430 f   InputAutoAdjustTempDlg.obj
 0002:000d3500       ?GetMessageMap@CInputAutoAdjustTempDlg@@MBEPBUAFX_MSGMAP@@XZ 00635500 f   InputAutoAdjustTempDlg.obj
 0002:000d3550       ?GetThisMessageMap@CInputAutoAdjustTempDlg@@KGPBUAFX_MSGMAP@@XZ 00635550 f   InputAutoAdjustTempDlg.obj
 0002:000d3590       ?OnOK@CInputAutoAdjustTempDlg@@MAEXXZ 00635590 f   InputAutoAdjustTempDlg.obj
 0002:000d35f0       ?OnEnSetfocusEditGlass2@CInputAutoAdjustTempDlg@@QAEXXZ 006355f0 f   InputAutoAdjustTempDlg.obj
 0002:000d3640       ?OnEnSetfocusEditGlass1@CInputAutoAdjustTempDlg@@QAEXXZ 00635640 f   InputAutoAdjustTempDlg.obj
 0002:000d3690       ?OnBnClickedButton0_9@CInputAutoAdjustTempDlg@@QAEXV?$CStringT@_WV?$StrTraitMFC@_WV?$ChTraitsCRT@_W@ATL@@@@@ATL@@@Z 00635690 f   InputAutoAdjustTempDlg.obj
 0002:000d3790       ?OnBnClickedButton1@CInputAutoAdjustTempDlg@@QAEXXZ 00635790 f   InputAutoAdjustTempDlg.obj
 0002:000d3800       ?OnBnClickedButton2@CInputAutoAdjustTempDlg@@QAEXXZ 00635800 f   InputAutoAdjustTempDlg.obj
 0002:000d3870       ?OnBnClickedButton3@CInputAutoAdjustTempDlg@@QAEXXZ 00635870 f   InputAutoAdjustTempDlg.obj
 0002:000d38e0       ?OnBnClickedButton4@CInputAutoAdjustTempDlg@@QAEXXZ 006358e0 f   InputAutoAdjustTempDlg.obj
 0002:000d3950       ?OnBnClickedButton5@CInputAutoAdjustTempDlg@@QAEXXZ 00635950 f   InputAutoAdjustTempDlg.obj
 0002:000d39c0       ?OnBnClickedButton6@CInputAutoAdjustTempDlg@@QAEXXZ 006359c0 f   InputAutoAdjustTempDlg.obj
 0002:000d3a30       ?OnBnClickedButton7@CInputAutoAdjustTempDlg@@QAEXXZ 00635a30 f   InputAutoAdjustTempDlg.obj
 0002:000d3aa0       ?OnBnClickedButton8@CInputAutoAdjustTempDlg@@QAEXXZ 00635aa0 f   InputAutoAdjustTempDlg.obj
 0002:000d3b10       ?OnBnClickedButton9@CInputAutoAdjustTempDlg@@QAEXXZ 00635b10 f   InputAutoAdjustTempDlg.obj
 0002:000d3b80       ?OnBnClickedButton0@CInputAutoAdjustTempDlg@@QAEXXZ 00635b80 f   InputAutoAdjustTempDlg.obj
 0002:000d3bf0       ?OnBnClickedButtonDot@CInputAutoAdjustTempDlg@@QAEXXZ 00635bf0 f   InputAutoAdjustTempDlg.obj
 0002:000d3c60       ?OnBnClickedButtonClear@CInputAutoAdjustTempDlg@@QAEXXZ 00635c60 f   InputAutoAdjustTempDlg.obj
 0002:000d3d10       ?OnInitDialog@CInputAutoAdjustTempDlg@@UAEHXZ 00635d10 f   InputAutoAdjustTempDlg.obj
 0002:000d3d80       ?OnBnClickedOk@CInputAutoAdjustTempDlg@@QAEXXZ 00635d80 f   InputAutoAdjustTempDlg.obj
 0002:000d3ed0       ??0CInputDlg@@QAE@PAVCWnd@@@Z 00635ed0 f   InputDlg.obj
 0002:000d3fc0       ??_GCInputDlg@@UAEPAXI@Z   00635fc0 f i InputDlg.obj
 0002:000d3fc0       ??_ECInputDlg@@UAEPAXI@Z   00635fc0 f i InputDlg.obj
 0002:000d4030       ?DoDataExchange@CInputDlg@@MAEXPAVCDataExchange@@@Z 00636030 f   InputDlg.obj
 0002:000d40a0       ?GetMessageMap@CInputDlg@@MBEPBUAFX_MSGMAP@@XZ 006360a0 f   InputDlg.obj
 0002:000d40f0       ?GetThisMessageMap@CInputDlg@@KGPBUAFX_MSGMAP@@XZ 006360f0 f   InputDlg.obj
 0002:000d4130       ?OnButton1@CInputDlg@@IAEXXZ 00636130 f   InputDlg.obj
 0002:000d41a0       ?OnButton2@CInputDlg@@IAEXXZ 006361a0 f   InputDlg.obj
 0002:000d4210       ?OnButton3@CInputDlg@@IAEXXZ 00636210 f   InputDlg.obj
 0002:000d4280       ?OnButton4@CInputDlg@@IAEXXZ 00636280 f   InputDlg.obj
 0002:000d42f0       ?OnButton5@CInputDlg@@IAEXXZ 006362f0 f   InputDlg.obj
 0002:000d4360       ?OnButton6@CInputDlg@@IAEXXZ 00636360 f   InputDlg.obj
 0002:000d43d0       ?OnButton7@CInputDlg@@IAEXXZ 006363d0 f   InputDlg.obj
 0002:000d4440       ?OnButton8@CInputDlg@@IAEXXZ 00636440 f   InputDlg.obj
 0002:000d44b0       ?OnButton9@CInputDlg@@IAEXXZ 006364b0 f   InputDlg.obj
 0002:000d4520       ?OnButton0@CInputDlg@@IAEXXZ 00636520 f   InputDlg.obj
 0002:000d4590       ?OnButtonDot@CInputDlg@@IAEXXZ 00636590 f   InputDlg.obj
 0002:000d4600       ?OnButtonClear@CInputDlg@@IAEXXZ 00636600 f   InputDlg.obj
 0002:000d4670       ?OnInitDialog@CInputDlg@@MAEHXZ 00636670 f   InputDlg.obj
 0002:000d46e0       ?OnOK@CInputDlg@@MAEXXZ    006366e0 f   InputDlg.obj
 0002:000d4760       ?OnBnClickedOk@CInputDlg@@QAEXXZ 00636760 f   InputDlg.obj
 0002:000d4810       ?OnBnClickedButtonPlusMinus@CInputDlg@@QAEXXZ 00636810 f   InputDlg.obj
 0002:000d4970       ?SetAt@?$CSimpleStringT@_W$0A@@ATL@@QAEXH_W@Z 00636970 f i InputDlg.obj
 0002:000d4a60       ??0CInputGlassTempDlg@@QAE@PAVCWnd@@@Z 00636a60 f   InputGlassTempDlg.obj
 0002:000d4c40       ??_GCInputGlassTempDlg@@UAEPAXI@Z 00636c40 f i InputGlassTempDlg.obj
 0002:000d4c40       ??_ECInputGlassTempDlg@@UAEPAXI@Z 00636c40 f i InputGlassTempDlg.obj
 0002:000d4cb0       ??1CInputGlassTempDlg@@UAE@XZ 00636cb0 f i InputGlassTempDlg.obj
 0002:000d4e00       ?DoDataExchange@CInputGlassTempDlg@@MAEXPAVCDataExchange@@@Z 00636e00 f   InputGlassTempDlg.obj
 0002:000d4f40       ?GetMessageMap@CInputGlassTempDlg@@MBEPBUAFX_MSGMAP@@XZ 00636f40 f   InputGlassTempDlg.obj
 0002:000d4f90       ?GetThisMessageMap@CInputGlassTempDlg@@KGPBUAFX_MSGMAP@@XZ 00636f90 f   InputGlassTempDlg.obj
 0002:000d4fd0       ?OnEnSetfocusEditGlass2@CInputGlassTempDlg@@QAEXXZ 00636fd0 f   InputGlassTempDlg.obj
 0002:000d5020       ?OnEnSetfocusEditGlass1@CInputGlassTempDlg@@QAEXXZ 00637020 f   InputGlassTempDlg.obj
 0002:000d5070       ?OnEnSetfocusEditGlass3@CInputGlassTempDlg@@QAEXXZ 00637070 f   InputGlassTempDlg.obj
 0002:000d50c0       ?OnEnSetfocusEditGlass4@CInputGlassTempDlg@@QAEXXZ 006370c0 f   InputGlassTempDlg.obj
 0002:000d5110       ?OnBnClickedButton0_9@CInputGlassTempDlg@@QAEXV?$CStringT@_WV?$StrTraitMFC@_WV?$ChTraitsCRT@_W@ATL@@@@@ATL@@@Z 00637110 f   InputGlassTempDlg.obj
 0002:000d5260       ?OnBnClickedButton1@CInputGlassTempDlg@@QAEXXZ 00637260 f   InputGlassTempDlg.obj
 0002:000d52d0       ?OnBnClickedButton2@CInputGlassTempDlg@@QAEXXZ 006372d0 f   InputGlassTempDlg.obj
 0002:000d5340       ?OnBnClickedButton3@CInputGlassTempDlg@@QAEXXZ 00637340 f   InputGlassTempDlg.obj
 0002:000d53b0       ?OnBnClickedButton4@CInputGlassTempDlg@@QAEXXZ 006373b0 f   InputGlassTempDlg.obj
 0002:000d5420       ?OnBnClickedButton5@CInputGlassTempDlg@@QAEXXZ 00637420 f   InputGlassTempDlg.obj
 0002:000d5490       ?OnBnClickedButton6@CInputGlassTempDlg@@QAEXXZ 00637490 f   InputGlassTempDlg.obj
 0002:000d5500       ?OnBnClickedButton7@CInputGlassTempDlg@@QAEXXZ 00637500 f   InputGlassTempDlg.obj
 0002:000d5570       ?OnBnClickedButton8@CInputGlassTempDlg@@QAEXXZ 00637570 f   InputGlassTempDlg.obj
 0002:000d55e0       ?OnBnClickedButton9@CInputGlassTempDlg@@QAEXXZ 006375e0 f   InputGlassTempDlg.obj
 0002:000d5650       ?OnBnClickedButton0@CInputGlassTempDlg@@QAEXXZ 00637650 f   InputGlassTempDlg.obj
 0002:000d56c0       ?OnBnClickedButtonDot@CInputGlassTempDlg@@QAEXXZ 006376c0 f   InputGlassTempDlg.obj
 0002:000d5730       ?OnBnClickedButtonClear@CInputGlassTempDlg@@QAEXXZ 00637730 f   InputGlassTempDlg.obj
 0002:000d5840       ?OnInitDialog@CInputGlassTempDlg@@UAEHXZ 00637840 f   InputGlassTempDlg.obj
 0002:000d58c0       ?OnBnClickedOk@CInputGlassTempDlg@@QAEXXZ 006378c0 f   InputGlassTempDlg.obj
 0002:000d5bd0       ?GetRuntimeClass@CListDlg@@UBEPAUCRuntimeClass@@XZ 00637bd0 f   ListDlg.obj
 0002:000d5c10       ??0CListDlg@@QAE@PAVCWnd@@@Z 00637c10 f   ListDlg.obj
 0002:000d5d30       ??_ECListDlg@@UAEPAXI@Z    00637d30 f i ListDlg.obj
 0002:000d5d30       ??_GCListDlg@@UAEPAXI@Z    00637d30 f i ListDlg.obj
 0002:000d5da0       ??1CListDlg@@UAE@XZ        00637da0 f   ListDlg.obj
 0002:000d5ea0       ?DoDataExchange@CListDlg@@MAEXPAVCDataExchange@@@Z 00637ea0 f   ListDlg.obj
 0002:000d5f20       ?GetMessageMap@CListDlg@@MBEPBUAFX_MSGMAP@@XZ 00637f20 f   ListDlg.obj
 0002:000d5f70       ?GetThisMessageMap@CListDlg@@KGPBUAFX_MSGMAP@@XZ 00637f70 f   ListDlg.obj
 0002:000d5fb0       ?OnInitDialog@CListDlg@@UAEHXZ 00637fb0 f   ListDlg.obj
 0002:000d6130       ?OnLbnSetfocusList1@CListDlg@@QAEXXZ 00638130 f   ListDlg.obj
 0002:000d6170       ?OnBnClickedOk@CListDlg@@QAEXXZ 00638170 f   ListDlg.obj
 0002:000d6250       ?OnBnClickedCancel@CListDlg@@QAEXXZ 00638250 f   ListDlg.obj
 0002:000d62e0       ?OnStnClickedStaticUuu@CListDlg@@QAEXXZ 006382e0 f   ListDlg.obj
 0002:000d6320       ??0CLPM260_Printer@@QAE@XZ 00638320 f   LPM260_Printer.obj
 0002:000d6360       ??1CLPM260_Printer@@QAE@XZ 00638360 f   LPM260_Printer.obj
 0002:000d63a0       ?SetComm@CLPM260_Printer@@QAEXPAVCComm@@@Z 006383a0 f   LPM260_Printer.obj
 0002:000d63e0       ?SetPaperType@CLPM260_Printer@@SAXD@Z 006383e0 f   LPM260_Printer.obj
 0002:000d64b0       ?EnterChineseMode@CLPM260_Printer@@SAXXZ 006384b0 f   LPM260_Printer.obj
 0002:000d65f0       ?ExitChineseMode@CLPM260_Printer@@SAXXZ 006385f0 f   LPM260_Printer.obj
 0002:000d6730       ?SelectCharType@CLPM260_Printer@@QAEXW4LPM260_CHAR_TYPE@@@Z 00638730 f   LPM260_Printer.obj
 0002:000d67f0       ?NextLine@CLPM260_Printer@@QAEXXZ 006387f0 f   LPM260_Printer.obj
 0002:000d68a0       ?FeedForward@CLPM260_Printer@@QAEXD@Z 006388a0 f   LPM260_Printer.obj
 0002:000d6970       ?SetLineGap@CLPM260_Printer@@SAXD@Z 00638970 f   LPM260_Printer.obj
 0002:000d6a30       ?SetCharGap@CLPM260_Printer@@QAEXD@Z 00638a30 f   LPM260_Printer.obj
 0002:000d6b00       ?SetDarkness@CLPM260_Printer@@QAEXD@Z 00638b00 f   LPM260_Printer.obj
 0002:000d6b40       ?PrinterInit@CLPM260_Printer@@SAXXZ 00638b40 f   LPM260_Printer.obj
 0002:000d6c10       ?PrintOneChineseLine@CLPM260_Printer@@SAXPAD@Z 00638c10 f   LPM260_Printer.obj
 0002:000d6de0       ?PrintOneLine@CLPM260_Printer@@SAXPAD@Z 00638de0 f   LPM260_Printer.obj
 0002:000d6f90       ?PrintTestPaper@CLPM260_Printer@@QAEXXZ 00638f90 f   LPM260_Printer.obj
 0002:000d7040       ?IsHaveSameGroupId@@YA_NPAHH@Z 00639040 f   LPM260_Printer.obj
 0002:000d70b0       ?PrintTestResult@CLPM260_Printer@@QAEXHPAURECORD@@PAHHUCONTROL_TEMP_RANGE@@EH@Z 006390b0 f   LPM260_Printer.obj
 0002:000d95b0       ?Cal3Sigma@CLPM260_Printer@@SAMPAMH@Z 0063b5b0 f   LPM260_Printer.obj
 0002:000d96f0       ?sqrt@@YAMM@Z              0063b6f0 f i LPM260_Printer.obj
 0002:000d9750       _sqrtf                     0063b750 f i LPM260_Printer.obj
 0002:000d97c0       ?CalCp@CLPM260_Printer@@SAMPAMHMM@Z 0063b7c0 f   LPM260_Printer.obj
 0002:000d9840       ?CalMax@CLPM260_Printer@@SAMPAMHMM@Z 0063b840 f   LPM260_Printer.obj
 0002:000d98d0       ?CalMin@CLPM260_Printer@@SAMPAMHMM@Z 0063b8d0 f   LPM260_Printer.obj
 0002:000d9960       ?CalAvr@CLPM260_Printer@@SAMPAMHMM@Z 0063b960 f   LPM260_Printer.obj
 0002:000d99e0       ?CalCpk@CLPM260_Printer@@SAMPAMHMM@Z 0063b9e0 f   LPM260_Printer.obj
 0002:000d9af0       ?PrintNoiseTest@CLPM260_Printer@@QAEXXZ 0063baf0 f   LPM260_Printer.obj
 0002:000da080       ?PrintResultHead@CLPM260_Printer@@SAXHPAURECORD@@EH@Z 0063c080 f   LPM260_Printer.obj
 0002:000da980       ?GetCount@?$CArray@UPrintLine@@U1@@@QBEHXZ 0063c980 f i LPM260_Printer.obj
 0002:000da9c0       ?GetAt@?$CArray@UPrintLine@@U1@@@QAEAAUPrintLine@@H@Z 0063c9c0 f i LPM260_Printer.obj
 0002:000daa70       ?Add@?$CArray@UPrintLine@@U1@@@QAEHUPrintLine@@@Z 0063ca70 f i LPM260_Printer.obj
 0002:000dab30       ?RemoveAt@?$CArray@UPrintLine@@U1@@@QAEXHH@Z 0063cb30 f i LPM260_Printer.obj
 0002:000dace0       ?SetAtGrow@?$CArray@UPrintLine@@U1@@@QAEXHUPrintLine@@@Z 0063cce0 f i LPM260_Printer.obj
 0002:000dadf0       ?SetSize@?$CArray@UPrintLine@@U1@@@QAEXHH@Z 0063cdf0 f i LPM260_Printer.obj
 0002:000db390       ??0?$CArray@UPrintLine@@U1@@@QAE@XZ 0063d390 f i LPM260_Printer.obj
 0002:000db420       ?Serialize@?$CArray@UPrintLine@@U1@@@UAEXAAVCArchive@@@Z 0063d420 f i LPM260_Printer.obj
 0002:000db4f0       ?Dump@?$CArray@UPrintLine@@U1@@@UBEXAAVCDumpContext@@@Z 0063d4f0 f i LPM260_Printer.obj
 0002:000db5d0       ?AssertValid@?$CArray@UPrintLine@@U1@@@UBEXXZ 0063d5d0 f i LPM260_Printer.obj
 0002:000db730       ??_G?$CArray@UPrintLine@@U1@@@UAEPAXI@Z 0063d730 f i LPM260_Printer.obj
 0002:000db730       ??_E?$CArray@UPrintLine@@U1@@@UAEPAXI@Z 0063d730 f i LPM260_Printer.obj
 0002:000db7a0       ??1?$CArray@UPrintLine@@U1@@@UAE@XZ 0063d7a0 f i LPM260_Printer.obj
 0002:000db8b0       ??$SerializeElements@UPrintLine@@@@YGXAAVCArchive@@PAUPrintLine@@H@Z 0063d8b0 f i LPM260_Printer.obj
 0002:000dbaa0       ??$DumpElements@UPrintLine@@@@YGXAAVCDumpContext@@PBUPrintLine@@H@Z 0063daa0 f i LPM260_Printer.obj
 0002:000dbb90       ??0CPM24_Printer@@QAE@XZ   0063db90 f   PM24_Printer.obj
 0002:000dbbd0       ??1CPM24_Printer@@QAE@XZ   0063dbd0 f   PM24_Printer.obj
 0002:000dbc10       ?SetComm@CPM24_Printer@@QAEXPAVCComm@@@Z 0063dc10 f   PM24_Printer.obj
 0002:000dbc60       ?SetPaperType@CPM24_Printer@@SAXD@Z 0063dc60 f   PM24_Printer.obj
 0002:000dbc90       ?EnterChineseMode@CPM24_Printer@@SAXXZ 0063dc90 f   PM24_Printer.obj
 0002:000dbdd0       ?ExitChineseMode@CPM24_Printer@@SAXXZ 0063ddd0 f   PM24_Printer.obj
 0002:000dbf10       ?SelectCharType@CPM24_Printer@@QAEXW4PM24_CHAR_TYPE@@@Z 0063df10 f   PM24_Printer.obj
 0002:000dbfd0       ?NextLine@CPM24_Printer@@QAEXXZ 0063dfd0 f   PM24_Printer.obj
 0002:000dc080       ?FeedForward@CPM24_Printer@@QAEXD@Z 0063e080 f   PM24_Printer.obj
 0002:000dc150       ?SetLineGap@CPM24_Printer@@SAXD@Z 0063e150 f   PM24_Printer.obj
 0002:000dc210       ?SetCharGap@CPM24_Printer@@QAEXD@Z 0063e210 f   PM24_Printer.obj
 0002:000dc2e0       ?SetDarkness@CPM24_Printer@@QAEXD@Z 0063e2e0 f   PM24_Printer.obj
 0002:000dc320       ?PrinterInit@CPM24_Printer@@SAXXZ 0063e320 f   PM24_Printer.obj
 0002:000dc3e0       ?PrintOneChineseLine@CPM24_Printer@@SAXPAD@Z 0063e3e0 f   PM24_Printer.obj
 0002:000dc5b0       ?PrintOneLine@CPM24_Printer@@SAXPAD@Z 0063e5b0 f   PM24_Printer.obj
 0002:000dc760       ?PrintTestPaper@CPM24_Printer@@SAXXZ 0063e760 f   PM24_Printer.obj
 0002:000dc830       ?PrintTestResult@CPM24_Printer@@QAEXHPAURECORD@@PAHHUCONTROL_TEMP_RANGE@@EH@Z 0063e830 f   PM24_Printer.obj
 0002:000ded50       ?Cal3Sigma@CPM24_Printer@@SAMPAMH@Z 00640d50 f   PM24_Printer.obj
 0002:000dee90       ?CalCp@CPM24_Printer@@SAMPAMHMM@Z 00640e90 f   PM24_Printer.obj
 0002:000def10       ?CalMax@CPM24_Printer@@SAMPAMHMM@Z 00640f10 f   PM24_Printer.obj
 0002:000defa0       ?CalMin@CPM24_Printer@@SAMPAMHMM@Z 00640fa0 f   PM24_Printer.obj
 0002:000df030       ?CalAvr@CPM24_Printer@@SAMPAMHMM@Z 00641030 f   PM24_Printer.obj
 0002:000df0b0       ?CalCpk@CPM24_Printer@@SAMPAMHMM@Z 006410b0 f   PM24_Printer.obj
 0002:000df1c0       ?PrintNoiseTest@CPM24_Printer@@QAEXXZ 006411c0 f   PM24_Printer.obj
 0002:000df750       ?PrintResultHead@CPM24_Printer@@SAXHPAURECORD@@EH@Z 00641750 f   PM24_Printer.obj
 0002:000e0050       ?PrintBMP@@YAXV?$CStringT@_WV?$StrTraitMFC@_WV?$ChTraitsCRT@_W@ATL@@@@@ATL@@@Z 00642050 f   PrintSocket.obj
 0002:000e02f0       ??0CPrintSocket@@QAE@XZ    006422f0 f   PrintSocket.obj
 0002:000e0360       ??_GCPrintSocket@@UAEPAXI@Z 00642360 f i PrintSocket.obj
 0002:000e0360       ??_ECPrintSocket@@UAEPAXI@Z 00642360 f i PrintSocket.obj
 0002:000e03d0       ??1CPrintSocket@@UAE@XZ    006423d0 f   PrintSocket.obj
 0002:000e0430       ?OnAccept@CPrintSocket@@UAEXH@Z 00642430 f   PrintSocket.obj
 0002:000e0490       ?OnConnect@CPrintSocket@@UAEXH@Z 00642490 f   PrintSocket.obj
 0002:000e04f0       ?OnReceive@CPrintSocket@@UAEXH@Z 006424f0 f   PrintSocket.obj
 0002:000e0940       ?Receive@CPrintSocket@@UAEHPAXHH@Z 00642940 f   PrintSocket.obj
 0002:000e09a0       ??0CSaveRecordSocket@@QAE@XZ 006429a0 f   SaveTestSocket.obj
 0002:000e0a10       ??_ECSaveRecordSocket@@UAEPAXI@Z 00642a10 f i SaveTestSocket.obj
 0002:000e0a10       ??_GCSaveRecordSocket@@UAEPAXI@Z 00642a10 f i SaveTestSocket.obj
 0002:000e0a80       ??1CSaveRecordSocket@@UAE@XZ 00642a80 f   SaveTestSocket.obj
 0002:000e0ae0       ?OnAccept@CSaveRecordSocket@@UAEXH@Z 00642ae0 f   SaveTestSocket.obj
 0002:000e0b40       ?OnConnect@CSaveRecordSocket@@UAEXH@Z 00642b40 f   SaveTestSocket.obj
 0002:000e0ba0       ?OnReceive@CSaveRecordSocket@@UAEXH@Z 00642ba0 f   SaveTestSocket.obj
 0002:000e0fa0       ?Receive@CSaveRecordSocket@@UAEHPAXHH@Z 00642fa0 f   SaveTestSocket.obj
 0002:000e1000       ?GetRuntimeClass@CSorterPlcDlg@@UBEPAUCRuntimeClass@@XZ 00643000 f   SorterPlcDlg.obj
 0002:000e1040       ??0CSorterPlcDlg@@QAE@PAVCWnd@@@Z 00643040 f   SorterPlcDlg.obj
 0002:000e1140       ??_GCSorterPlcDlg@@UAEPAXI@Z 00643140 f i SorterPlcDlg.obj
 0002:000e1140       ??_ECSorterPlcDlg@@UAEPAXI@Z 00643140 f i SorterPlcDlg.obj
 0002:000e11b0       ??1CSorterPlcDlg@@UAE@XZ   006431b0 f   SorterPlcDlg.obj
 0002:000e1220       ?DoDataExchange@CSorterPlcDlg@@MAEXPAVCDataExchange@@@Z 00643220 f   SorterPlcDlg.obj
 0002:000e1280       ?GetMessageMap@CSorterPlcDlg@@MBEPBUAFX_MSGMAP@@XZ 00643280 f   SorterPlcDlg.obj
 0002:000e12d0       ?GetThisMessageMap@CSorterPlcDlg@@KGPBUAFX_MSGMAP@@XZ 006432d0 f   SorterPlcDlg.obj
 0002:000e1310       ?OnBnClickedButtonRun@CSorterPlcDlg@@QAEXXZ 00643310 f   SorterPlcDlg.obj
 0002:000e14b0       ?OnCtlColor@CSorterPlcDlg@@QAEPAUHBRUSH__@@PAVCDC@@PAVCWnd@@I@Z 006434b0 f   SorterPlcDlg.obj
 0002:000e1e50       ?Deal_X_Status@CSorterPlcDlg@@QAEXI@Z 00643e50 f   SorterPlcDlg.obj
 0002:000e1f80       ?Deal_Y_Status@CSorterPlcDlg@@QAEXI@Z 00643f80 f   SorterPlcDlg.obj
 0002:000e20c0       ?OnInitDialog@CSorterPlcDlg@@UAEHXZ 006440c0 f   SorterPlcDlg.obj
 0002:000e22c0       ?OnStnClickedStaticLowLevelFailCyclinde@CSorterPlcDlg@@QAEXXZ 006442c0 f   SorterPlcDlg.obj
 0002:000e2350       ?OnStnClickedStaticLowLevelTestCyclinder@CSorterPlcDlg@@QAEXXZ 00644350 f   SorterPlcDlg.obj
 0002:000e23e0       ?OnStnClickedStaticLowLevelInputCyclinder@CSorterPlcDlg@@QAEXXZ 006443e0 f   SorterPlcDlg.obj
 0002:000e2470       ?OnStnClickedStaticLowLevelOutputCyclinder@CSorterPlcDlg@@QAEXXZ 00644470 f   SorterPlcDlg.obj
 0002:000e2500       ?OnStnClickedStaticHighLevelOutputCyclinder@CSorterPlcDlg@@QAEXXZ 00644500 f   SorterPlcDlg.obj
 0002:000e2590       ?OnStnClickedStaticHighLevelFailCyclinder@CSorterPlcDlg@@QAEXXZ 00644590 f   SorterPlcDlg.obj
 0002:000e2600       ?OnStnClickedStaticHighLevelPassCyclinder@CSorterPlcDlg@@QAEXXZ 00644600 f   SorterPlcDlg.obj
 0002:000e2670       ?OnStnClickedStaticHighLevelTestCyclinder@CSorterPlcDlg@@QAEXXZ 00644670 f   SorterPlcDlg.obj
 0002:000e2700       ?OnBnClickedStop@CSorterPlcDlg@@QAEXXZ 00644700 f   SorterPlcDlg.obj
 0002:000e2770       ?OnBnClickedRecover@CSorterPlcDlg@@QAEXXZ 00644770 f   SorterPlcDlg.obj
 0002:000e28a0       ?OnBnClickedAuto@CSorterPlcDlg@@QAEXXZ 006448a0 f   SorterPlcDlg.obj
 0002:000e2980       ?OnBnClickedOk@CSorterPlcDlg@@QAEXXZ 00644980 f   SorterPlcDlg.obj
 0002:000e29f0       ?OnBnClickedSetTemp@CSorterPlcDlg@@QAEXXZ 006449f0 f   SorterPlcDlg.obj
 0002:000e2af0       ?DisplaySendCmd@CSorterPlcDlg@@QAEXEPAEHH@Z 00644af0 f   SorterPlcDlg.obj
 0002:000e2cd0       ?DisplayReceiveCmd@CSorterPlcDlg@@QAEXEPAEHH@Z 00644cd0 f   SorterPlcDlg.obj
 0002:000e2e90       ?OnTimer@CSorterPlcDlg@@QAEXI@Z 00644e90 f   SorterPlcDlg.obj
 0002:000e3670       ?OnStnClickedStaticHighLevelInputCyclinder@CSorterPlcDlg@@QAEXXZ 00645670 f   SorterPlcDlg.obj
 0002:000e3700       ?DealCmdAnswer@CSorterPlcDlg@@QAEXPAE0_NH@Z 00645700 f   SorterPlcDlg.obj
 0002:000e3b20       ?SendSv@CSorterPlcDlg@@QAEXXZ 00645b20 f   SorterPlcDlg.obj
 0002:000e3d90       ?OnEnSetfocusEditSvLow@CSorterPlcDlg@@QAEXXZ 00645d90 f   SorterPlcDlg.obj
 0002:000e3f70       ?OnEnSetfocusEditSvHigh@CSorterPlcDlg@@QAEXXZ 00645f70 f   SorterPlcDlg.obj
 0002:000e4140       ?SendAdjust@CSorterPlcDlg@@QAEXXZ 00646140 f   SorterPlcDlg.obj
 0002:000e4300       ?OnEnSetfocusEditAdjLow@CSorterPlcDlg@@QAEXXZ 00646300 f   SorterPlcDlg.obj
 0002:000e4340       ?OnEnSetfocusEditAdjHigh@CSorterPlcDlg@@QAEXXZ 00646340 f   SorterPlcDlg.obj
 0002:000e44b0       ?OnEnKillfocusEditLowLevel@CSorterPlcDlg@@QAEXXZ 006464b0 f   SorterPlcDlg.obj
 0002:000e44f0       ?OnEnSetfocusEditHighLevel@CSorterPlcDlg@@QAEXXZ 006464f0 f   SorterPlcDlg.obj
 0002:000e4580       ?OnEnSetfocusEditMainLevel@CSorterPlcDlg@@QAEXXZ 00646580 f   SorterPlcDlg.obj
 0002:000e4610       ?OnEnChangeEditHighLevel@CSorterPlcDlg@@QAEXXZ 00646610 f   SorterPlcDlg.obj
 0002:000e4650       ?OnEnSetfocusEditLowLevel@CSorterPlcDlg@@QAEXXZ 00646650 f   SorterPlcDlg.obj
 0002:000e46e0       ?OnStnClickedStaticIsHasSwitch@CSorterPlcDlg@@QAEXXZ 006466e0 f   SorterPlcDlg.obj
 0002:000e4720       ?OnStnClickedStaticLowLevelTemp1@CSorterPlcDlg@@QAEXXZ 00646720 f   SorterPlcDlg.obj
 0002:000e4760       ?RemoveAll@?$CArray@UTEMP_RECORD_8TEMP_8SSR@@U1@@@QAEXXZ 00646760 f i SorterPlcDlg.obj
 0002:000e47c0       ?GetRuntimeClass@CSorterTempDlg@@UBEPAUCRuntimeClass@@XZ 006467c0 f   SorterTempDlg.obj
 0002:000e4800       ??0CSorterTempDlg@@QAE@PAVCWnd@@@Z 00646800 f   SorterTempDlg.obj
 0002:000e4880       ??_GCSorterTempDlg@@UAEPAXI@Z 00646880 f i SorterTempDlg.obj
 0002:000e4880       ??_ECSorterTempDlg@@UAEPAXI@Z 00646880 f i SorterTempDlg.obj
 0002:000e48f0       ??1CSorterTempDlg@@UAE@XZ  006468f0 f   SorterTempDlg.obj
 0002:000e4950       ?DoDataExchange@CSorterTempDlg@@MAEXPAVCDataExchange@@@Z 00646950 f   SorterTempDlg.obj
 0002:000e49b0       ?GetMessageMap@CSorterTempDlg@@MBEPBUAFX_MSGMAP@@XZ 006469b0 f   SorterTempDlg.obj
 0002:000e4a00       ?GetThisMessageMap@CSorterTempDlg@@KGPBUAFX_MSGMAP@@XZ 00646a00 f   SorterTempDlg.obj
 0002:000e4a40       ?OnBnClickedOk@CSorterTempDlg@@QAEXXZ 00646a40 f   SorterTempDlg.obj
 0002:000e4ab0       ?OnInitDialog@CSorterTempDlg@@UAEHXZ 00646ab0 f   SorterTempDlg.obj
 0002:000e5460       ?DealCmdAnswer@CSorterTempDlg@@QAEXPAE0_NH@Z 00647460 f   SorterTempDlg.obj
 0002:000e59c0       ?OnCtlColor@CSorterTempDlg@@QAEPAUHBRUSH__@@PAVCDC@@PAVCWnd@@I@Z 006479c0 f   SorterTempDlg.obj
 0002:000e5b00       ?SendSv@CSorterTempDlg@@QAEXXZ 00647b00 f   SorterTempDlg.obj
 0002:000e5c60       ?OnEnSetfocusEditSv4@CSorterTempDlg@@QAEXXZ 00647c60 f   SorterTempDlg.obj
 0002:000e6000       ?OnEnSetfocusEditSv8@CSorterTempDlg@@QAEXXZ 00648000 f   SorterTempDlg.obj
 0002:000e63a0       ?SendPIDT@CSorterTempDlg@@QAEXH@Z 006483a0 f   SorterTempDlg.obj
 0002:000e6620       ?OnEnSetfocusEditPidP1@CSorterTempDlg@@QAEXXZ 00648620 f   SorterTempDlg.obj
 0002:000e6790       ?OnEnSetfocusEditPidI1@CSorterTempDlg@@QAEXXZ 00648790 f   SorterTempDlg.obj
 0002:000e6900       ?OnEnSetfocusEditPidD1@CSorterTempDlg@@QAEXXZ 00648900 f   SorterTempDlg.obj
 0002:000e6a70       ?OnEnSetfocusEditPidP2@CSorterTempDlg@@QAEXXZ 00648a70 f   SorterTempDlg.obj
 0002:000e6be0       ?OnEnSetfocusEditPidI2@CSorterTempDlg@@QAEXXZ 00648be0 f   SorterTempDlg.obj
 0002:000e6d50       ?OnEnSetfocusEditPidD2@CSorterTempDlg@@QAEXXZ 00648d50 f   SorterTempDlg.obj
 0002:000e6ec0       ?OnEnSetfocusEditPidP3@CSorterTempDlg@@QAEXXZ 00648ec0 f   SorterTempDlg.obj
 0002:000e7030       ?OnEnSetfocusEditPidI3@CSorterTempDlg@@QAEXXZ 00649030 f   SorterTempDlg.obj
 0002:000e71a0       ?OnEnSetfocusEditPidD3@CSorterTempDlg@@QAEXXZ 006491a0 f   SorterTempDlg.obj
 0002:000e7310       ?OnEnSetfocusEditPidP4@CSorterTempDlg@@QAEXXZ 00649310 f   SorterTempDlg.obj
 0002:000e7480       ?OnEnSetfocusEditPidI4@CSorterTempDlg@@QAEXXZ 00649480 f   SorterTempDlg.obj
 0002:000e75f0       ?OnEnSetfocusEditPidD4@CSorterTempDlg@@QAEXXZ 006495f0 f   SorterTempDlg.obj
 0002:000e7760       ?OnEnSetfocusEditPidP5@CSorterTempDlg@@QAEXXZ 00649760 f   SorterTempDlg.obj
 0002:000e78d0       ?OnEnSetfocusEditPidI5@CSorterTempDlg@@QAEXXZ 006498d0 f   SorterTempDlg.obj
 0002:000e7a40       ?OnEnSetfocusEditPidD5@CSorterTempDlg@@QAEXXZ 00649a40 f   SorterTempDlg.obj
 0002:000e7bb0       ?OnEnSetfocusEditPidP6@CSorterTempDlg@@QAEXXZ 00649bb0 f   SorterTempDlg.obj
 0002:000e7d20       ?OnEnSetfocusEditPidI6@CSorterTempDlg@@QAEXXZ 00649d20 f   SorterTempDlg.obj
 0002:000e7e90       ?OnEnSetfocusEditPidD6@CSorterTempDlg@@QAEXXZ 00649e90 f   SorterTempDlg.obj
 0002:000e8000       ?OnEnSetfocusEditPidP7@CSorterTempDlg@@QAEXXZ 0064a000 f   SorterTempDlg.obj
 0002:000e8170       ?OnEnSetfocusEditPidI7@CSorterTempDlg@@QAEXXZ 0064a170 f   SorterTempDlg.obj
 0002:000e82e0       ?OnEnSetfocusEditPidD7@CSorterTempDlg@@QAEXXZ 0064a2e0 f   SorterTempDlg.obj
 0002:000e8450       ?OnEnSetfocusEditPidP8@CSorterTempDlg@@QAEXXZ 0064a450 f   SorterTempDlg.obj
 0002:000e85c0       ?OnEnSetfocusEditPidI8@CSorterTempDlg@@QAEXXZ 0064a5c0 f   SorterTempDlg.obj
 0002:000e8730       ?OnEnSetfocusEditPidD8@CSorterTempDlg@@QAEXXZ 0064a730 f   SorterTempDlg.obj
 0002:000e88a0       ?OnEnSetfocusEditPV4@CSorterTempDlg@@QAEXXZ 0064a8a0 f   SorterTempDlg.obj
 0002:000e88e0       ?OnEnSetfocusEditPV8@CSorterTempDlg@@QAEXXZ 0064a8e0 f   SorterTempDlg.obj
 0002:000e8920       ?OnEnSetfocusEditAdjust4@CSorterTempDlg@@QAEXXZ 0064a920 f   SorterTempDlg.obj
 0002:000e8960       ?SendAdjust@CSorterTempDlg@@QAEXXZ 0064a960 f   SorterTempDlg.obj
 0002:000e8ac0       ?OnEnSetfocusEditAdjust8@CSorterTempDlg@@QAEXXZ 0064aac0 f   SorterTempDlg.obj
 0002:000e8b00       ?IsTempOK@CSorterTempDlg@@QAE_NH@Z 0064ab00 f   SorterTempDlg.obj
 0002:000e9720       ?OnBnClickedButton1@CSorterTempDlg@@QAEXXZ 0064b720 f   SorterTempDlg.obj
 0002:000e9780       ?GetRuntimeClass@CTempAdjustDlg@@UBEPAUCRuntimeClass@@XZ 0064b780 f   TempAdjustDlg.obj
 0002:000e97c0       ??0CTempAdjustDlg@@QAE@PAVCWnd@@@Z 0064b7c0 f   TempAdjustDlg.obj
 0002:000e98d0       ??_GCTempAdjustDlg@@UAEPAXI@Z 0064b8d0 f i TempAdjustDlg.obj
 0002:000e98d0       ??_ECTempAdjustDlg@@UAEPAXI@Z 0064b8d0 f i TempAdjustDlg.obj
 0002:000e9940       ??1CTempAdjustDlg@@UAE@XZ  0064b940 f   TempAdjustDlg.obj
 0002:000e9a00       ?DoDataExchange@CTempAdjustDlg@@MAEXPAVCDataExchange@@@Z 0064ba00 f   TempAdjustDlg.obj
 0002:000e9a60       ?GetMessageMap@CTempAdjustDlg@@MBEPBUAFX_MSGMAP@@XZ 0064ba60 f   TempAdjustDlg.obj
 0002:000e9ab0       ?GetThisMessageMap@CTempAdjustDlg@@KGPBUAFX_MSGMAP@@XZ 0064bab0 f   TempAdjustDlg.obj
 0002:000e9af0       ?OnEditClicked@CTempAdjustDlg@@QAEXI@Z 0064baf0 f   TempAdjustDlg.obj
 0002:000e9d90       ?OnInitDialog@CTempAdjustDlg@@UAEHXZ 0064bd90 f   TempAdjustDlg.obj
 0002:000ea110       ?OnBnClickedOk@CTempAdjustDlg@@QAEXXZ 0064c110 f   TempAdjustDlg.obj
 0002:000ea180       ?OnBnClickedRadio1@CTempAdjustDlg@@QAEXXZ 0064c180 f   TempAdjustDlg.obj
 0002:000ea370       ?OnBnClickedRadio2@CTempAdjustDlg@@QAEXXZ 0064c370 f   TempAdjustDlg.obj
 0002:000ea560       ?OnBnClickedCancel@CTempAdjustDlg@@QAEXXZ 0064c560 f   TempAdjustDlg.obj
 0002:000ea5d0       ??0CTempMeter@@QAE@XZ      0064c5d0 f   TempMeter.obj
 0002:000ea6b0       ?Init@CTempMeter@@QAEXPAUHWND__@@PAVCDC@@VCRect@@UMODBUS_RS485_32TEMP_ANSWER@@@Z 0064c6b0 f   TempMeter.obj
 0002:000ea780       ?Init@CTempMeter@@QAEXPAUHWND__@@PAVCDC@@VCRect@@UMODBUS_RS485_8TEMP_8SSR_ANSWER@@@Z 0064c780 f   TempMeter.obj
 0002:000ea850       ?Init@CTempMeter@@QAEXPAUHWND__@@PAVCDC@@VCRect@@UMODBUS_RS485_TEMP_ANSWER_PARA_TEMP2_10IN_12OUT@@@Z 0064c850 f   TempMeter.obj
 0002:000ea930       ?Init@CTempMeter@@QAEXPAUHWND__@@PAVCDC@@VCRect@@UMODBUS_RS485_TEMP_ANSWER_PARA@@@Z 0064c930 f   TempMeter.obj
 0002:000eaa00       ??1CTempMeter@@QAE@XZ      0064ca00 f   TempMeter.obj
 0002:000eaa40       ?DrawMeter@CTempMeter@@QAEXUMODBUS_RS485_TEMP_ANSWER_PARA_TEMP2_10IN_12OUT@@@Z 0064ca40 f   TempMeter.obj
 0002:000eab40       ?DrawMeter@CTempMeter@@QAEXUMODBUS_RS485_8TEMP_8SSR_ANSWER@@@Z 0064cb40 f   TempMeter.obj
 0002:000eac10       ?DrawMeter@CTempMeter@@QAEXUMODBUS_RS485_32TEMP_ANSWER@@@Z 0064cc10 f   TempMeter.obj
 0002:000eace0       ?DrawMeter@CTempMeter@@QAEXUMODBUS_RS485_TEMP_ANSWER_PARA@@@Z 0064cce0 f   TempMeter.obj
 0002:000eadb0       ?GetCurAmp@CTempMeter@@QAEMXZ 0064cdb0 f   TempMeter.obj
 0002:000eaea0       ?GetCurAmp2@CTempMeter@@QAEMXZ 0064cea0 f   TempMeter.obj
 0002:000eaf80       ?GetCurPv@CTempMeter@@SAMUMODBUS_RS485_TEMP_ANSWER_PARA@@@Z 0064cf80 f   TempMeter.obj
 0002:000eb260       ?GetCurSv@CTempMeter@@QAEMXZ 0064d260 f   TempMeter.obj
 0002:000eb2d0       ?DrawMeter@CTempMeter@@QAEXHUMODBUS_RS485_TEMP_ANSWER_PARA_TEMP2_10IN_12OUT@@@Z 0064d2d0 f   TempMeter.obj
 0002:000ec350       ?DrawMeter@CTempMeter@@QAEXH@Z 0064e350 f   TempMeter.obj
 0002:000ede40       ?DrawMeter@CTempMeter@@QAEXHUMODBUS_RS485_8TEMP_8SSR_ANSWER@@@Z 0064fe40 f   TempMeter.obj
 0002:000ef540       ?DrawMeter@CTempMeter@@QAEXHUMODBUS_RS485_32TEMP_ANSWER@@@Z 00651540 f   TempMeter.obj
 0002:000f0970       ?RemoveAt@?$CArray@UTEMP_RECORD@@U1@@@QAEXHH@Z 00652970 f i TempMeter.obj
 0002:000f0b20       ??0CWorkMode@@QAE@XZ       00652b20 f   WorkMode.obj
 0002:000f0bf0       ??_ECWorkMode@@UAEPAXI@Z   00652bf0 f i WorkMode.obj
 0002:000f0bf0       ??_GCWorkMode@@UAEPAXI@Z   00652bf0 f i WorkMode.obj
 0002:000f0c60       ??1CWorkMode@@UAE@XZ       00652c60 f   WorkMode.obj
 0002:000f0cd0       ?SetTestMode@CWorkMode@@QAEXH@Z 00652cd0 f   WorkMode.obj
 0002:000f0d20       ?AutoTestStep_Ready@CWorkMode@@QAE?AW4SUB_MODE@@PAVCWnd@@HMUSWITCH_CONFIG_PARA@@@Z 00652d20 f   WorkMode.obj
 0002:000f1580       ?AutoTestStep_DirectHeat@CWorkMode@@QAE?AW4SUB_MODE@@PAVCWnd@@HMUSWITCH_CONFIG_PARA@@@Z 00653580 f   WorkMode.obj
 0002:000f18b0       ?Timer_Cal@CWorkMode@@QAEXPAVCWnd@@HQAM@Z 006538b0 f   WorkMode.obj
 0002:000f1960       ?Timer_Sorter@CWorkMode@@SAXXZ 00653960 f   WorkMode.obj
 0002:000f1dc0       ?Timer@CWorkMode@@QAEXPAVCWnd@@HQAMUSWITCH_CONFIG_PARA@@@Z 00653dc0 f   WorkMode.obj
 0002:000f2990       ?IsAllOpened@CWorkMode@@QAE_NH@Z 00654990 f   WorkMode.obj
 0002:000f2bf0       ?AuotTestStep_NormalPID@CWorkMode@@QAE?AW4SUB_MODE@@PAVCWnd@@HMUSWITCH_CONFIG_PARA@@@Z 00654bf0 f   WorkMode.obj
 0002:000f3560       ?AutoTestStep_StepPID@CWorkMode@@QAEXPAVCWnd@@HMUSWITCH_CONFIG_PARA@@@Z 00655560 f   WorkMode.obj
 0002:000f4150       ?ExitAutoTest@CWorkMode@@QAEXPAVCWnd@@HMUSWITCH_CONFIG_PARA@@@Z 00656150 f   WorkMode.obj
 0002:000f46d0       ?OpenDoor_For_OpenFlashTest@CWorkMode@@QAEXPAVCWnd@@HMUSWITCH_CONFIG_PARA@@@Z 006566d0 f   WorkMode.obj
 0002:000f4ea0       ?ReadSwitchConfigPara@CWorkMode@@QAEXPAVCWnd@@H@Z 00656ea0 f   WorkMode.obj
 0002:000f4f70       ?EnterAutoTest@CWorkMode@@QAEXPAVCWnd@@HQAMUSWITCH_CONFIG_PARA@@@Z 00656f70 f   WorkMode.obj
 0002:000f6af0       ?IsPT100Caled@CWorkMode@@QAE_NH@Z 00658af0 f   WorkMode.obj
 0002:000f6c70       ?AuotTestStep_NormalPID_2@CWorkMode@@QAE?AW4SUB_MODE@@PAVCWnd@@HMUSWITCH_CONFIG_PARA@@@Z 00658c70 f   WorkMode.obj
 0002:000f7080       ?AutoTestStep_StepPID_2@CWorkMode@@QAEXPAVCWnd@@HMUSWITCH_CONFIG_PARA@@@Z 00659080 f   WorkMode.obj
 0002:000f73f0       ?OpenDoor_For_CloseFlashTest@CWorkMode@@QAEXPAVCWnd@@HMUSWITCH_CONFIG_PARA@@@Z 006593f0 f   WorkMode.obj
 0002:000f78f0       ?AutoTestStep_DircetCool@CWorkMode@@QAEXPAVCWnd@@HMUSWITCH_CONFIG_PARA@@@Z 006598f0 f   WorkMode.obj
 0002:000f8130       ?IsAllClosed@CWorkMode@@QAE_NH@Z 0065a130 f   WorkMode.obj
 0002:000f8340       ?GetLowestOpenTemp@CWorkMode@@QAEHPAVCWnd@@HMUSWITCH_CONFIG_PARA@@@Z 0065a340 f   WorkMode.obj
 0002:000f84f0       ?GetHighestOpenTemp@CWorkMode@@QAEMPAVCWnd@@HMUSWITCH_CONFIG_PARA@@@Z 0065a4f0 f   WorkMode.obj
 0002:000f86a0       ?GetHighestCloseTemp@CWorkMode@@QAEHPAVCWnd@@HMUSWITCH_CONFIG_PARA@@@Z 0065a6a0 f   WorkMode.obj
 0002:000f8890       ?AutoTestStep_PidCool@CWorkMode@@QAEXPAVCWnd@@HMUSWITCH_CONFIG_PARA@@@Z 0065a890 f   WorkMode.obj
 0002:000f8e20       ?AutoTestStep_StepCool@CWorkMode@@QAEXPAVCWnd@@HMUSWITCH_CONFIG_PARA@@@Z 0065ae20 f   WorkMode.obj
 0002:000f9270       ?AutoTestStep_HeatAgain@CWorkMode@@QAEXPAVCWnd@@HMUSWITCH_CONFIG_PARA@@@Z 0065b270 f   WorkMode.obj
 0002:000f9510       ?AutoTestStep_TopPID@CWorkMode@@QAEXPAVCWnd@@HMUSWITCH_CONFIG_PARA@@@Z 0065b510 f   WorkMode.obj
 0002:000f98c0       ?OnClickStartButton@CWorkMode@@QAEXPAVCWnd@@HQAMUSWITCH_CONFIG_PARA@@@Z 0065b8c0 f   WorkMode.obj
 0002:000f9f60       ?DealStatusNormalClose@CWorkMode@@QAEXPAVCWnd@@HHPAUSWITCH_TEST_RESULT@@_NM2H2@Z 0065bf60 f   WorkMode.obj
 0002:000fa7e0       ?DealStatusNormalOpen@CWorkMode@@QAEXHHPAUSWITCH_TEST_RESULT@@_NM1H@Z 0065c7e0 f   WorkMode.obj
 0002:000fac00       ?Send_MES@CWorkMode@@SAXURECORD@@_N@Z 0065cc00 f   WorkMode.obj
 0002:000fb350       ?SaveTestRecord@CWorkMode@@QAEXH@Z 0065d350 f   WorkMode.obj
 0002:000fbd20       ?IsOtherBiMetalNoise@@YA_NEQAE@Z 0065dd20 f   WorkMode.obj
 0002:000fc100       ?DealStatus_DiscOpenTemp@CWorkMode@@QAEXHPAUDISC_RECORD@@EEHHMUCONTROL_TEMP_RANGE@@@Z 0065e100 f   WorkMode.obj
 0002:000fc870       ?CheckSameSound2Continue@CWorkMode@@QAE_NHH@Z 0065e870 f   WorkMode.obj
 0002:000fcbe0       ?DealStatus_DiscCloseTemp@CWorkMode@@QAEXHPAUDISC_RECORD@@EEHHMUCONTROL_TEMP_RANGE@@@Z 0065ebe0 f   WorkMode.obj
 0002:000fd380       ?DealStatus_Disc@CWorkMode@@QAEXHPAUMODBUS_RS485_DISC_ANSWER@@M@Z 0065f380 f   WorkMode.obj
 0002:000ff2a0       ?StartAirControl@CWorkMode@@QAEHPAVCWnd@@HM@Z 006612a0 f   WorkMode.obj
 0002:000ff440       ?StopAirControl@CWorkMode@@QAEHPAVCWnd@@HM@Z 00661440 f   WorkMode.obj
 0002:000ff5c0       ?GetOpenMode@CWorkMode@@QAE_NXZ 006615c0 f   WorkMode.obj
 0002:000ff660       ?GetCloseMode@CWorkMode@@QAE_NXZ 00661660 f   WorkMode.obj
 0002:000ff6f0       ?InitSwitchStatus@CWorkMode@@QAEXH@Z 006616f0 f   WorkMode.obj
 0002:00100230       ?AutoTestStep_CoolFirst_Ready@CWorkMode@@QAEXPAVCWnd@@HMUSWITCH_CONFIG_PARA@@@Z 00662230 f   WorkMode.obj
 0002:001006f0       ?AutoTestStep_CoolFirst_DirectCool@CWorkMode@@QAEXPAVCWnd@@HMUSWITCH_CONFIG_PARA@@@Z 006626f0 f   WorkMode.obj
 0002:00100a80       ?AutoTestStep_CoolFirst_CoolPid@CWorkMode@@QAEXPAVCWnd@@HMUSWITCH_CONFIG_PARA@@@Z 00662a80 f   WorkMode.obj
 0002:00100fb0       ?AutoTestStep_CoolFirst_StepCoolPid@CWorkMode@@QAEXPAVCWnd@@HMUSWITCH_CONFIG_PARA@@@Z 00662fb0 f   WorkMode.obj
 0002:00101570       ?AutoTestStep_CoolFirst_HeatPid@CWorkMode@@QAEXPAVCWnd@@HMUSWITCH_CONFIG_PARA@@@Z 00663570 f   WorkMode.obj
 0002:001019c0       ?AutoTestStep_CoolFirst_StepHeatPid@CWorkMode@@QAEXPAVCWnd@@HMUSWITCH_CONFIG_PARA@@@Z 006639c0 f   WorkMode.obj
 0002:00101c10       ?DisplaySendCmd@CWorkMode@@SAXPAVCWnd@@EPAEHH@Z 00663c10 f   WorkMode.obj
 0002:00102000       ?TempCmd_Disc@CWorkMode@@SAXPAVCWnd@@H@Z 00664000 f   WorkMode.obj
 0002:00102dd0       ?TempCmd_TX300W_POWER@CWorkMode@@SAXPAVCWnd@@H@Z 00664dd0 f   WorkMode.obj
 0002:00102e00       ?TempCmd_128@CWorkMode@@SAXPAVCWnd@@H@Z 00664e00 f   WorkMode.obj
 0002:00103e50       ?TempCmd_32PT100@CWorkMode@@SAXPAVCWnd@@H@Z 00665e50 f   WorkMode.obj
 0002:00104850       ?TempCmd_300@CWorkMode@@SAXPAVCWnd@@H@Z 00666850 f   WorkMode.obj
 0002:00105250       ?TempCmd_192@CWorkMode@@SAXPAVCWnd@@H@Z 00667250 f   WorkMode.obj
 0002:00105940       ?CheckTempStable@CWorkMode@@QAE_NPAVCWnd@@HM@Z 00667940 f   WorkMode.obj
 0002:00105b70       ?AutoTestStep_CalLow@CWorkMode@@QAEXPAVCWnd@@HQAM@Z 00667b70 f   WorkMode.obj
 0002:00105ea0       ?AutoTestStep_CalHigh@CWorkMode@@QAEXPAVCWnd@@HQAM@Z 00667ea0 f   WorkMode.obj
 0002:001061f0       ?InputGlassLowTemp@CWorkMode@@QAEXPAVCWnd@@H@Z 006681f0 f   WorkMode.obj
 0002:00106630       ?InputGlassHighTemp@CWorkMode@@QAEXPAVCWnd@@H@Z 00668630 f   WorkMode.obj
 0002:00106a70       ?EnterCalMode@CWorkMode@@QAEXPAVCWnd@@H@Z 00668a70 f   WorkMode.obj
 0002:00106f40       ?CalAdjustTemp@CWorkMode@@QAEXPAVCWnd@@H@Z 00668f40 f   WorkMode.obj
 0002:00107520       ?DealCmdAnswer@CWorkMode@@QAEXPAVCWnd@@HPAE1_NH@Z 00669520 f   WorkMode.obj
 0002:00109120       ?GetCount@?$CArray@UMODBUS_RS485_CMD_PROGRAM@@U1@@@QBEHXZ 0066b120 f i WorkMode.obj
 0002:00109160       ?GetAt@?$CArray@UMODBUS_RS485_CMD_PROGRAM@@U1@@@QAEAAUMODBUS_RS485_CMD_PROGRAM@@H@Z 0066b160 f i WorkMode.obj
 0002:00109210       ?GetAt@?$CArray@UDELTA_FREQUNCE_CMD_ASC@@U1@@@QAEAAUDELTA_FREQUNCE_CMD_ASC@@H@Z 0066b210 f i WorkMode.obj
 0002:001092c0       ?GetCount@?$CArray@UMODBUS_RS485_ARM_CMD_PROGRAM@@U1@@@QBEHXZ 0066b2c0 f i WorkMode.obj
 0002:00109300       ?GetAt@?$CArray@UMODBUS_RS485_ARM_CMD_PROGRAM@@U1@@@QAEAAUMODBUS_RS485_ARM_CMD_PROGRAM@@H@Z 0066b300 f i WorkMode.obj
 0002:001093b0       ?GetSize@?$CArray@UDELTA_PLC_SET_CMD@@U1@@@QBEHXZ 0066b3b0 f i WorkMode.obj
 0002:001093f0       ?GetAt@?$CArray@UDELTA_PLC_SET_CMD@@U1@@@QAEAAUDELTA_PLC_SET_CMD@@H@Z 0066b3f0 f i WorkMode.obj
 0002:001094a0       ?RemoveAt@?$CArray@UDELTA_PLC_SET_CMD@@U1@@@QAEXHH@Z 0066b4a0 f i WorkMode.obj
 0002:00109650       ?RemoveAll@?$CArray@UTEMP_TIME@@U1@@@QAEXXZ 0066b650 f i WorkMode.obj
 0002:001096b0       ?GetAt@?$CArray@UTEMP_TIME@@U1@@@QAEAAUTEMP_TIME@@H@Z 0066b6b0 f i WorkMode.obj
 0002:00109760       ?GetAt@?$CArray@UMODBUS_RS485_CMD_128@@U1@@@QAEAAUMODBUS_RS485_CMD_128@@H@Z 0066b760 f i WorkMode.obj
 0002:00109810       ?GetSize@?$CArray@UDISC_RECORD@@U1@@@QBEHXZ 0066b810 f i WorkMode.obj
 0002:00109850       ?RemoveAll@?$CArray@UDISC_RECORD@@U1@@@QAEXXZ 0066b850 f i WorkMode.obj
 0002:001098b0       ?GetAt@?$CArray@UDISC_RECORD@@U1@@@QAEAAUDISC_RECORD@@H@Z 0066b8b0 f i WorkMode.obj
 0002:00109960       ?Add@?$CArray@UDISC_RECORD@@U1@@@QAEHUDISC_RECORD@@@Z 0066b960 f i WorkMode.obj
 0002:00109a20       ?RemoveAt@?$CArray@UDISC_RECORD@@U1@@@QAEXHH@Z 0066ba20 f i WorkMode.obj
 0002:00109bd0       ?GetData@?$CArray@UTEMP_RECORD@@U1@@@QAEPAUTEMP_RECORD@@XZ 0066bbd0 f i WorkMode.obj
 0002:00109c10       ?GetAt@?$CArray@UMODBUS_RS485_CMD_32PT100@@U1@@@QAEAAUMODBUS_RS485_CMD_32PT100@@H@Z 0066bc10 f i WorkMode.obj
 0002:00109cc0       ?GetAt@?$CArray@UMODBUS_RS485_CMD_300@@U1@@@QAEAAUMODBUS_RS485_CMD_300@@H@Z 0066bcc0 f i WorkMode.obj
 0002:00109d70       ?GetAt@?$CArray@UMODBUS_RS485_CMD_192@@U1@@@QAEAAUMODBUS_RS485_CMD_192@@H@Z 0066bd70 f i WorkMode.obj
 0002:00109e20       ?SetAtGrow@?$CArray@UDISC_RECORD@@U1@@@QAEXHUDISC_RECORD@@@Z 0066be20 f i WorkMode.obj
 0002:00109f2c       _QueryWorkingSet@12        0066bf2c f   PSAPI:PSAPI.DLL
 0002:00109f32       _GetProcessMemoryInfo@12   0066bf32 f   PSAPI:PSAPI.DLL
 0002:00109f40       ??2CObject@@SGPAXI@Z       0066bf40 f   uafxcwd:afxmem.obj
 0002:00109f70       ??3CObject@@SGXPAX@Z       0066bf70 f   uafxcwd:afxmem.obj
 0002:00109f90       ??3CObject@@SGXPAX0@Z      0066bf90 f   uafxcwd:afxmem.obj
 0002:00109fb0       ??2@YAPAXIPBDH@Z           0066bfb0 f   uafxcwd:afxmem.obj
 0002:00109fe0       ??_U@YAPAXIPBDH@Z          0066bfe0 f   uafxcwd:afxmem.obj
 0002:0010a010       ??3@YAXPAXPBDH@Z           0066c010 f   uafxcwd:afxmem.obj
 0002:0010a030       ??_V@YAXPAXPBDH@Z          0066c030 f   uafxcwd:afxmem.obj
 0002:0010a050       ??2CObject@@SGPAXIPBDH@Z   0066c050 f   uafxcwd:afxmem.obj
 0002:0010a080       ??3CObject@@SGXPAXPBDH@Z   0066c080 f   uafxcwd:afxmem.obj
 0002:0010a0a0       ?AfxAllocMemoryDebug@@YGPAXIHPBDH@Z 0066c0a0 f   uafxcwd:afxmem.obj
 0002:0010a0e0       ?AfxFreeMemoryDebug@@YGXPAXH@Z 0066c0e0 f   uafxcwd:afxmem.obj
 0002:0010a110       ?_AfxDefaultAllocHook@@YGHIHJ@Z 0066c110 f   uafxcwd:afxmem.obj
 0002:0010a130       ?_AfxAllocHookProxy@@YAHHPAXIHJPBEH@Z 0066c130 f   uafxcwd:afxmem.obj
 0002:0010a1e0       ?AfxSetAllocHook@@YGP6GHIHJ@ZP6GHIHJ@Z@Z 0066c1e0 f   uafxcwd:afxmem.obj
 0002:0010a230       ?AfxEnableMemoryLeakOverride@@YGHH@Z 0066c230 f   uafxcwd:afxmem.obj
 0002:0010a260       ?AfxEnableMemoryTracking@@YGHH@Z 0066c260 f   uafxcwd:afxmem.obj
 0002:0010a2d0       ?AfxSetAllocStop@@YGXJ@Z   0066c2d0 f   uafxcwd:afxmem.obj
 0002:0010a2f0       ?AfxCheckMemory@@YGHXZ     0066c2f0 f   uafxcwd:afxmem.obj
 0002:0010a300       ?AfxIsMemoryBlock@@YGHPBXIPAJ@Z 0066c300 f   uafxcwd:afxmem.obj
 0002:0010a330       ??0CMemoryState@@QAE@XZ    0066c330 f   uafxcwd:afxmem.obj
 0002:0010a360       ?UpdateData@CMemoryState@@QAEXXZ 0066c360 f   uafxcwd:afxmem.obj
 0002:0010a3f0       ?Difference@CMemoryState@@QAEHABU1@0@Z 0066c3f0 f   uafxcwd:afxmem.obj
 0002:0010a440       ?DumpStatistics@CMemoryState@@QBEXXZ 0066c440 f   uafxcwd:afxmem.obj
 0002:0010a460       ?Checkpoint@CMemoryState@@QAEXXZ 0066c460 f   uafxcwd:afxmem.obj
 0002:0010a490       ?DumpAllObjectsSince@CMemoryState@@QBEXXZ 0066c490 f   uafxcwd:afxmem.obj
 0002:0010a4b0       ?_AfxDoForAllObjectsProxy@@YAXPAX0@Z 0066c4b0 f   uafxcwd:afxmem.obj
 0002:0010a4e0       ?AfxDoForAllObjects@@YGXP6AXPAVCObject@@PAX@Z1@Z 0066c4e0 f   uafxcwd:afxmem.obj
 0002:0010a530       ?AfxDumpMemoryLeaks@@YGHXZ 0066c530 f   uafxcwd:afxmem.obj
 0002:0010a540       ?AfxNewHandler@@YAHI@Z     0066c540 f   uafxcwd:afxmem.obj
 0002:0010a550       ?AfxGetNewHandler@@YGP6AHI@ZXZ 0066c550 f   uafxcwd:afxmem.obj
 0002:0010a560       ?AfxSetNewHandler@@YGP6AHI@ZP6AHI@Z@Z 0066c560 f   uafxcwd:afxmem.obj
 0002:0010a590       ??2@YAPAXI@Z               0066c590 f   uafxcwd:afxmem.obj
 0002:0010a5f0       ??3@YAXPAX@Z               0066c5f0 f   uafxcwd:afxmem.obj
 0002:0010a610       ??_U@YAPAXI@Z              0066c610 f   uafxcwd:afxmem.obj
 0002:0010a630       ??_V@YAXPAX@Z              0066c630 f   uafxcwd:afxmem.obj
 0002:0010a650       ??2@YAPAXIHPBDH@Z          0066c650 f   uafxcwd:afxmem.obj
 0002:0010a6c0       ??3@YAXPAXHPBDH@Z          0066c6c0 f   uafxcwd:afxmem.obj
 0002:0010a6e0       ??_U@YAPAXIHPBDH@Z         0066c6e0 f   uafxcwd:afxmem.obj
 0002:0010a710       ??_V@YAXPAXHPBDH@Z         0066c710 f   uafxcwd:afxmem.obj
 0002:0010a740       ?AfxDlgProc@@YGHPAUHWND__@@IIJ@Z 0066c740 f   uafxcwd:dlgcore.obj
 0002:0010a7b0       ?GetMessageMap@CDialog@@MBEPBUAFX_MSGMAP@@XZ 0066c7b0 f   uafxcwd:dlgcore.obj
 0002:0010a7d0       ?GetThisMessageMap@CDialog@@KGPBUAFX_MSGMAP@@XZ 0066c7d0 f   uafxcwd:dlgcore.obj
 0002:0010a7e0       ?PreTranslateMessage@CDialog@@UAEHPAUtagMSG@@@Z 0066c7e0 f   uafxcwd:dlgcore.obj
 0002:0010a920       ?OnCmdMsg@CDialog@@UAEHIHPAXPAUAFX_CMDHANDLERINFO@@@Z 0066c920 f   uafxcwd:dlgcore.obj
 0002:0010ab10       ??RCTraceFileAndLineInfo@ATL@@QBAXKIPBDZZ 0066cb10 f i uafxcwd:dlgcore.obj
 0002:0010ab70       ?TraceV@CTrace@ATL@@QBAXPBDHKI0PAD@Z 0066cb70 f i uafxcwd:dlgcore.obj
 0002:0010abb0       ??0CDialog@@QAE@XZ         0066cbb0 f   uafxcwd:dlgcore.obj
 0002:0010ac60       ??_ECDialog@@UAEPAXI@Z     0066cc60 f i uafxcwd:dlgcore.obj
 0002:0010ac60       ??_GCDialog@@UAEPAXI@Z     0066cc60 f i uafxcwd:dlgcore.obj
 0002:0010aca0       ??1CDialog@@UAE@XZ         0066cca0 f   uafxcwd:dlgcore.obj
 0002:0010ada0       ?OnPaint@CDialog@@IAEXXZ   0066cda0 f   uafxcwd:dlgcore.obj
 0002:0010ae60       ?Create@CDialog@@UAEHPB_WPAVCWnd@@@Z 0066ce60 f   uafxcwd:dlgcore.obj
 0002:0010afa0       ?CreateIndirect@CDialog@@UAEHPAXPAVCWnd@@@Z 0066cfa0 f   uafxcwd:dlgcore.obj
 0002:0010afd0       ?CreateIndirect@CDialog@@IAEHPAXPAVCWnd@@PAUHINSTANCE__@@@Z 0066cfd0 f   uafxcwd:dlgcore.obj
 0002:0010b050       ?UnlockResource@@YGHPAX@Z  0066d050 f i uafxcwd:dlgcore.obj
 0002:0010b060       ?CreateIndirect@CDialog@@UAEHPBUDLGTEMPLATE@@PAVCWnd@@PAX@Z 0066d060 f   uafxcwd:dlgcore.obj
 0002:0010b090       ?CreateIndirect@CDialog@@IAEHPBUDLGTEMPLATE@@PAVCWnd@@PAXPAUHINSTANCE__@@@Z 0066d090 f   uafxcwd:dlgcore.obj
 0002:0010b100       ?CreateDlg@CWnd@@IAEHPB_WPAV1@@Z 0066d100 f   uafxcwd:dlgcore.obj
 0002:0010b1d0       ?CreateDlgIndirect@CWnd@@IAEHPBUDLGTEMPLATE@@PAV1@PAUHINSTANCE__@@@Z 0066d1d0 f   uafxcwd:dlgcore.obj
 0002:0010b780       ?SetOccDialogInfo@CDialog@@MAEHPAU_AFX_OCC_DIALOG_INFO@@@Z 0066d780 f   uafxcwd:dlgcore.obj
 0002:0010b7b0       ?GetOccDialogInfo@CDialog@@MAEPAU_AFX_OCC_DIALOG_INFO@@XZ 0066d7b0 f   uafxcwd:dlgcore.obj
 0002:0010b7d0       ??0CDialog@@QAE@PB_WPAVCWnd@@@Z 0066d7d0 f   uafxcwd:dlgcore.obj
 0002:0010b8e0       ??0CDialog@@QAE@IPAVCWnd@@@Z 0066d8e0 f   uafxcwd:dlgcore.obj
 0002:0010b950       ?InitModalIndirect@CDialog@@QAEHPAXPAVCWnd@@@Z 0066d950 f   uafxcwd:dlgcore.obj
 0002:0010ba00       ?InitModalIndirect@CDialog@@QAEHPBUDLGTEMPLATE@@PAVCWnd@@PAX@Z 0066da00 f   uafxcwd:dlgcore.obj
 0002:0010bab0       ?PreModal@CDialog@@IAEPAUHWND__@@XZ 0066dab0 f   uafxcwd:dlgcore.obj
 0002:0010bb40       ?PostModal@CDialog@@IAEXXZ 0066db40 f   uafxcwd:dlgcore.obj
 0002:0010bbc0       ?DoModal@CDialog@@UAEHXZ   0066dbc0 f   uafxcwd:dlgcore.obj
 0002:0010bfb0       ?EndDialog@CDialog@@QAEXH@Z 0066dfb0 f   uafxcwd:dlgcore.obj
 0002:0010c030       ?HandleSetFont@CDialog@@IAEJIJ@Z 0066e030 f   uafxcwd:dlgcore.obj
 0002:0010c070       ?PreInitDialog@CDialog@@MAEXXZ 0066e070 f   uafxcwd:dlgcore.obj
 0002:0010c080       ?HandleInitDialog@CDialog@@IAEJIJ@Z 0066e080 f   uafxcwd:dlgcore.obj
 0002:0010c1f0       ?AfxHelpEnabled@@YGHXZ     0066e1f0 f   uafxcwd:dlgcore.obj
 0002:0010c280       ?OnSetFont@CDialog@@UAEXPAVCFont@@@Z 0066e280 f   uafxcwd:dlgcore.obj
 0002:0010c2a0       ?OnInitDialog@CDialog@@UAEHXZ 0066e2a0 f   uafxcwd:dlgcore.obj
 0002:0010c3e0       ?OnOK@CDialog@@MAEXXZ      0066e3e0 f   uafxcwd:dlgcore.obj
 0002:0010c450       ?OnCancel@CDialog@@MAEXXZ  0066e450 f   uafxcwd:dlgcore.obj
 0002:0010c470       ?CheckAutoCenter@CDialog@@UAEHXZ 0066e470 f   uafxcwd:dlgcore.obj
 0002:0010c5f0       ?OnCommandHelp@CDialog@@IAEJIJ@Z 0066e5f0 f   uafxcwd:dlgcore.obj
 0002:0010c670       ?OnHelpHitTest@CDialog@@IAEJIJ@Z 0066e670 f   uafxcwd:dlgcore.obj
 0002:0010c6a0       ?AssertValid@CDialog@@UBEXXZ 0066e6a0 f   uafxcwd:dlgcore.obj
 0002:0010c6c0       ?Dump@CDialog@@UBEXAAVCDumpContext@@@Z 0066e6c0 f   uafxcwd:dlgcore.obj
 0002:0010c7d0       ?_AfxCheckDialogTemplate@@YGHPB_WH@Z 0066e7d0 f   uafxcwd:dlgcore.obj
 0002:0010caf0       ?GetRuntimeClass@CDialog@@UBEPAUCRuntimeClass@@XZ 0066eaf0 f   uafxcwd:dlgcore.obj
 0002:0010cb10       ??_9CDialog@@$BBGE@AE      0066eb10 f i uafxcwd:dlgcore.obj
 0002:0010cb20       ??_9CDialog@@$BBGA@AE      0066eb20 f i uafxcwd:dlgcore.obj
 0002:0010cb30       ??BCWnd@@QBEPAUHWND__@@XZ  0066eb30 f   uafxcwd:afxinl3.obj
 0002:0010cb70       ??8CWnd@@QBEHABV0@@Z       0066eb70 f   uafxcwd:afxinl3.obj
 0002:0010cba0       ??9CWnd@@QBEHABV0@@Z       0066eba0 f   uafxcwd:afxinl3.obj
 0002:0010cbd0       ?GetSafeHwnd@CWnd@@QBEPAUHWND__@@XZ 0066ebd0 f   uafxcwd:afxinl3.obj
 0002:0010cc10       ?GetOwner@CWnd@@QBEPAV1@XZ 0066ec10 f   uafxcwd:afxinl3.obj
 0002:0010cc60       ?SetOwner@CWnd@@QAEXPAV1@@Z 0066ec60 f   uafxcwd:afxinl3.obj
 0002:0010cca0       ?SendMessageW@CWnd@@QBEJIIJ@Z 0066eca0 f   uafxcwd:afxinl3.obj
 0002:0010cd00       ?SendMessage@CWnd@@QBEJIIJ@Z 0066ed00 f   uafxcwd:afxinl3.obj
 0002:0010cd30       ?PostMessageW@CWnd@@QAEHIIJ@Z 0066ed30 f   uafxcwd:afxinl3.obj
 0002:0010cd90       ?DragDetect@CWnd@@QBEHUtagPOINT@@@Z 0066ed90 f   uafxcwd:afxinl3.obj
 0002:0010cdf0       ?SetFont@CWnd@@QAEXPAVCFont@@H@Z 0066edf0 f   uafxcwd:afxinl3.obj
 0002:0010ce50       ?GetFont@CWnd@@QBEPAVCFont@@XZ 0066ee50 f   uafxcwd:afxinl3.obj
 0002:0010ceb0       ?DragAcceptFiles@CWnd@@QAEXH@Z 0066eeb0 f   uafxcwd:afxinl3.obj
 0002:0010cf10       ?DrawMenuBar@CWnd@@QAEXXZ  0066ef10 f   uafxcwd:afxinl3.obj
 0002:0010cf60       ?GetSystemMenu@CWnd@@QBEPAVCMenu@@H@Z 0066ef60 f   uafxcwd:afxinl3.obj
 0002:0010cfc0       ?HiliteMenuItem@CWnd@@QAEHPAVCMenu@@II@Z 0066efc0 f   uafxcwd:afxinl3.obj
 0002:0010d020       ?EnsureParentFrame@CWnd@@QBEPAVCFrameWnd@@XZ 0066f020 f   uafxcwd:afxinl3.obj
 0002:0010d070       ?EnsureTopLevelParent@CWnd@@QBEPAV1@XZ 0066f070 f   uafxcwd:afxinl3.obj
 0002:0010d0c0       ?IsIconic@CWnd@@QBEHXZ     0066f0c0 f   uafxcwd:afxinl3.obj
 0002:0010d110       ?IsZoomed@CWnd@@QBEHXZ     0066f110 f   uafxcwd:afxinl3.obj
 0002:0010d160       ?MoveWindow@CWnd@@QAEXPBUtagRECT@@H@Z 0066f160 f   uafxcwd:afxinl3.obj
 0002:0010d1c0       ?ArrangeIconicWindows@CWnd@@QAEIXZ 0066f1c0 f   uafxcwd:afxinl3.obj
 0002:0010d210       ?SetWindowRgn@CWnd@@QAEHPAUHRGN__@@H@Z 0066f210 f   uafxcwd:afxinl3.obj
 0002:0010d270       ?GetWindowRgn@CWnd@@QBEHPAUHRGN__@@@Z 0066f270 f   uafxcwd:afxinl3.obj
 0002:0010d2d0       ?BringWindowToTop@CWnd@@QAEXXZ 0066f2d0 f   uafxcwd:afxinl3.obj
 0002:0010d320       ?GetWindowRect@CWnd@@QBEXPAUtagRECT@@@Z 0066f320 f   uafxcwd:afxinl3.obj
 0002:0010d380       ?GetClientRect@CWnd@@QBEXPAUtagRECT@@@Z 0066f380 f   uafxcwd:afxinl3.obj
 0002:0010d3e0       ?MapWindowPoints@CWnd@@QBEXPAV1@PAUtagPOINT@@I@Z 0066f3e0 f   uafxcwd:afxinl3.obj
 0002:0010d450       ?MapWindowPoints@CWnd@@QBEXPAV1@PAUtagRECT@@@Z 0066f450 f   uafxcwd:afxinl3.obj
 0002:0010d4b0       ?ClientToScreen@CWnd@@QBEXPAUtagPOINT@@@Z 0066f4b0 f   uafxcwd:afxinl3.obj
 0002:0010d510       ?ScreenToClient@CWnd@@QBEXPAUtagPOINT@@@Z 0066f510 f   uafxcwd:afxinl3.obj
 0002:0010d570       ?BeginPaint@CWnd@@QAEPAVCDC@@PAUtagPAINTSTRUCT@@@Z 0066f570 f   uafxcwd:afxinl3.obj
 0002:0010d5d0       ?EndPaint@CWnd@@QAEXPAUtagPAINTSTRUCT@@@Z 0066f5d0 f   uafxcwd:afxinl3.obj
 0002:0010d630       ?GetDC@CWnd@@QAEPAVCDC@@XZ 0066f630 f   uafxcwd:afxinl3.obj
 0002:0010d690       ?GetWindowDC@CWnd@@QAEPAVCDC@@XZ 0066f690 f   uafxcwd:afxinl3.obj
 0002:0010d6f0       ?ReleaseDC@CWnd@@QAEHPAVCDC@@@Z 0066f6f0 f   uafxcwd:afxinl3.obj
 0002:0010d750       ?UpdateWindow@CWnd@@QAEXXZ 0066f750 f   uafxcwd:afxinl3.obj
 0002:0010d7a0       ?SetRedraw@CWnd@@QAEXH@Z   0066f7a0 f   uafxcwd:afxinl3.obj
 0002:0010d800       ?GetUpdateRect@CWnd@@QAEHPAUtagRECT@@H@Z 0066f800 f   uafxcwd:afxinl3.obj
 0002:0010d860       ?GetUpdateRgn@CWnd@@QAEHPAVCRgn@@H@Z 0066f860 f   uafxcwd:afxinl3.obj
 0002:0010d8d0       ?Invalidate@CWnd@@QAEXH@Z  0066f8d0 f   uafxcwd:afxinl3.obj
 0002:0010d930       ?InvalidateRect@CWnd@@QAEXPBUtagRECT@@H@Z 0066f930 f   uafxcwd:afxinl3.obj
 0002:0010d990       ?InvalidateRgn@CWnd@@QAEXPAVCRgn@@H@Z 0066f990 f   uafxcwd:afxinl3.obj
 0002:0010da00       ?ValidateRect@CWnd@@QAEXPBUtagRECT@@@Z 0066fa00 f   uafxcwd:afxinl3.obj
 0002:0010da60       ?ValidateRgn@CWnd@@QAEXPAVCRgn@@@Z 0066fa60 f   uafxcwd:afxinl3.obj
 0002:0010dac0       ?IsWindowVisible@CWnd@@QBEHXZ 0066fac0 f   uafxcwd:afxinl3.obj
 0002:0010db10       ?ShowOwnedPopups@CWnd@@QAEXH@Z 0066fb10 f   uafxcwd:afxinl3.obj
 0002:0010db70       ?SendMessageToDescendants@CWnd@@QAEXIIJHH@Z 0066fb70 f   uafxcwd:afxinl3.obj
 0002:0010dbe0       ?GetDescendantWindow@CWnd@@QBEPAV1@HH@Z 0066fbe0 f   uafxcwd:afxinl3.obj
 0002:0010dc40       ?GetDCEx@CWnd@@QAEPAVCDC@@PAVCRgn@@K@Z 0066fc40 f   uafxcwd:afxinl3.obj
 0002:0010dcb0       ?LockWindowUpdate@CWnd@@QAEHXZ 0066fcb0 f   uafxcwd:afxinl3.obj
 0002:0010dd00       ?UnlockWindowUpdate@CWnd@@QAEXXZ 0066fd00 f   uafxcwd:afxinl3.obj
 0002:0010dd50       ?RedrawWindow@CWnd@@QAEHPBUtagRECT@@PAVCRgn@@I@Z 0066fd50 f   uafxcwd:afxinl3.obj
 0002:0010ddc0       ?EnableScrollBar@CWnd@@QAEHHI@Z 0066fdc0 f   uafxcwd:afxinl3.obj
 0002:0010de20       ?DrawAnimatedRects@CWnd@@QAEHHPBUtagRECT@@0@Z 0066fe20 f   uafxcwd:afxinl3.obj
 0002:0010de80       ?DrawCaption@CWnd@@QAEHPAVCDC@@PBUtagRECT@@I@Z 0066fe80 f   uafxcwd:afxinl3.obj
 0002:0010def0       ?SetTimer@CWnd@@QAEIIIP6GXPAUHWND__@@IIK@Z@Z 0066fef0 f   uafxcwd:afxinl3.obj
 0002:0010df50       ?KillTimer@CWnd@@QAEHI@Z   0066ff50 f   uafxcwd:afxinl3.obj
 0002:0010dfb0       ?GetActiveWindow@CWnd@@SGPAV1@XZ 0066ffb0 f   uafxcwd:afxinl3.obj
 0002:0010dfd0       ?SetActiveWindow@CWnd@@QAEPAV1@XZ 0066ffd0 f   uafxcwd:afxinl3.obj
 0002:0010e030       ?GetCapture@CWnd@@SGPAV1@XZ 00670030 f   uafxcwd:afxinl3.obj
 0002:0010e050       ?SetCapture@CWnd@@QAEPAV1@XZ 00670050 f   uafxcwd:afxinl3.obj
 0002:0010e0b0       ?GetFocus@CWnd@@SGPAV1@XZ  006700b0 f   uafxcwd:afxinl3.obj
 0002:0010e0d0       ?GetDesktopWindow@CWnd@@SGPAV1@XZ 006700d0 f   uafxcwd:afxinl3.obj
 0002:0010e0f0       ?DlgDirListW@CWnd@@QAEHPA_WHHI@Z 006700f0 f   uafxcwd:afxinl3.obj
 0002:0010e160       ?DlgDirListComboBoxW@CWnd@@QAEHPA_WHHI@Z 00670160 f   uafxcwd:afxinl3.obj
 0002:0010e1d0       ?DlgDirSelect@CWnd@@QAEHPA_WH@Z 006701d0 f   uafxcwd:afxinl3.obj
 0002:0010e240       ?DlgDirSelect@CWnd@@QAEHPA_WHH@Z 00670240 f   uafxcwd:afxinl3.obj
 0002:0010e2a0       ?DlgDirSelectComboBox@CWnd@@QAEHPA_WH@Z 006702a0 f   uafxcwd:afxinl3.obj
 0002:0010e310       ?DlgDirSelectComboBox@CWnd@@QAEHPA_WHH@Z 00670310 f   uafxcwd:afxinl3.obj
 0002:0010e370       ?GetNextDlgGroupItem@CWnd@@QBEPAV1@PAV1@H@Z 00670370 f   uafxcwd:afxinl3.obj
 0002:0010e3e0       ?GetNextDlgTabItem@CWnd@@QBEPAV1@PAV1@H@Z 006703e0 f   uafxcwd:afxinl3.obj
 0002:0010e450       ?ShowScrollBar@CWnd@@QAEXIH@Z 00670450 f   uafxcwd:afxinl3.obj
 0002:0010e4b0       ?ChildWindowFromPoint@CWnd@@QBEPAV1@UtagPOINT@@@Z 006704b0 f   uafxcwd:afxinl3.obj
 0002:0010e520       ?ChildWindowFromPoint@CWnd@@QBEPAV1@UtagPOINT@@I@Z 00670520 f   uafxcwd:afxinl3.obj
 0002:0010e590       ?FindWindowW@CWnd@@SGPAV1@PB_W0@Z 00670590 f   uafxcwd:afxinl3.obj
 0002:0010e5c0       ?FindWindowExW@CWnd@@SAPAV1@PAUHWND__@@0PB_W1@Z 006705c0 f   uafxcwd:afxinl3.obj
 0002:0010e5f0       ?GetNextWindow@CWnd@@QBEPAV1@I@Z 006705f0 f   uafxcwd:afxinl3.obj
 0002:0010e650       ?GetTopWindow@CWnd@@QBEPAV1@XZ 00670650 f   uafxcwd:afxinl3.obj
 0002:0010e6b0       ?GetWindow@CWnd@@QBEPAV1@I@Z 006706b0 f   uafxcwd:afxinl3.obj
 0002:0010e710       ?GetLastActivePopup@CWnd@@QBEPAV1@XZ 00670710 f   uafxcwd:afxinl3.obj
 0002:0010e770       ?IsChild@CWnd@@QBEHPBV1@@Z 00670770 f   uafxcwd:afxinl3.obj
 0002:0010e7d0       ?GetParent@CWnd@@QBEPAV1@XZ 006707d0 f   uafxcwd:afxinl3.obj
 0002:0010e830       ?SetParent@CWnd@@QAEPAV1@PAV1@@Z 00670830 f   uafxcwd:afxinl3.obj
 0002:0010e8a0       ?WindowFromPoint@CWnd@@SGPAV1@UtagPOINT@@@Z 006708a0 f   uafxcwd:afxinl3.obj
 0002:0010e8d0       ?GetNextWindow@@YAPAUHWND__@@PAU1@I@Z 006708d0 f i uafxcwd:afxinl3.obj
 0002:0010e8f0       ?MessageBox@CWnd@@QAEHPB_W0I@Z 006708f0 f   uafxcwd:afxinl3.obj
 0002:0010e920       ?FlashWindow@CWnd@@QAEHH@Z 00670920 f   uafxcwd:afxinl3.obj
 0002:0010e980       ?ChangeClipboardChain@CWnd@@QAEHPAUHWND__@@@Z 00670980 f   uafxcwd:afxinl3.obj
 0002:0010e9e0       ?SetClipboardViewer@CWnd@@QAEPAUHWND__@@XZ 006709e0 f   uafxcwd:afxinl3.obj
 0002:0010ea30       ?OpenClipboard@CWnd@@QAEHXZ 00670a30 f   uafxcwd:afxinl3.obj
 0002:0010ea80       ?GetOpenClipboardWindow@CWnd@@SGPAV1@XZ 00670a80 f   uafxcwd:afxinl3.obj
 0002:0010eaa0       ?GetClipboardOwner@CWnd@@SGPAV1@XZ 00670aa0 f   uafxcwd:afxinl3.obj
 0002:0010eac0       ?GetClipboardViewer@CWnd@@SGPAV1@XZ 00670ac0 f   uafxcwd:afxinl3.obj
 0002:0010eae0       ?CreateCaret@CWnd@@QAEXPAVCBitmap@@@Z 00670ae0 f   uafxcwd:afxinl3.obj
 0002:0010eb50       ?CreateSolidCaret@CWnd@@QAEXHH@Z 00670b50 f   uafxcwd:afxinl3.obj
 0002:0010ebb0       ?CreateGrayCaret@CWnd@@QAEXHH@Z 00670bb0 f   uafxcwd:afxinl3.obj
 0002:0010ec10       ?GetCaretPos@CWnd@@SG?AVCPoint@@XZ 00670c10 f   uafxcwd:afxinl3.obj
 0002:0010ec50       ?SetCaretPos@CWnd@@SGXUtagPOINT@@@Z 00670c50 f   uafxcwd:afxinl3.obj
 0002:0010ec70       ?HideCaret@CWnd@@QAEXXZ    00670c70 f   uafxcwd:afxinl3.obj
 0002:0010ecc0       ?ShowCaret@CWnd@@QAEXXZ    00670cc0 f   uafxcwd:afxinl3.obj
 0002:0010ed10       ?SetForegroundWindow@CWnd@@QAEHXZ 00670d10 f   uafxcwd:afxinl3.obj
 0002:0010ed60       ?GetForegroundWindow@CWnd@@SGPAV1@XZ 00670d60 f   uafxcwd:afxinl3.obj
 0002:0010ed80       ?SendNotifyMessageW@CWnd@@QAEHIIJ@Z 00670d80 f   uafxcwd:afxinl3.obj
 0002:0010ede0       ?SetIcon@CWnd@@QAEPAUHICON__@@PAU2@H@Z 00670de0 f   uafxcwd:afxinl3.obj
 0002:0010ee50       ?GetIcon@CWnd@@QBEPAUHICON__@@H@Z 00670e50 f   uafxcwd:afxinl3.obj
 0002:0010eeb0       ?Print@CWnd@@QBEXPAVCDC@@K@Z 00670eb0 f   uafxcwd:afxinl3.obj
 0002:0010ef20       ?PrintClient@CWnd@@QBEXPAVCDC@@K@Z 00670f20 f   uafxcwd:afxinl3.obj
 0002:0010ef90       ?SetWindowContextHelpId@CWnd@@QAEHK@Z 00670f90 f   uafxcwd:afxinl3.obj
 0002:0010eff0       ?GetWindowContextHelpId@CWnd@@QBEKXZ 00670ff0 f   uafxcwd:afxinl3.obj
 0002:0010f040       ?EnableActiveAccessibility@CWnd@@QAEXXZ 00671040 f   uafxcwd:afxinl3.obj
 0002:0010f060       ?NotifyWinEvent@CWnd@@QAEXKJJ@Z 00671060 f   uafxcwd:afxinl3.obj
 0002:0010f0d0       ?OnActivateApp@CWnd@@IAEXHK@Z 006710d0 f   uafxcwd:afxinl3.obj
 0002:0010f0f0       ?OnActivate@CWnd@@IAEXIPAV1@H@Z 006710f0 f   uafxcwd:afxinl3.obj
 0002:0010f110       ?OnCancelMode@CWnd@@IAEXXZ 00671110 f   uafxcwd:afxinl3.obj
 0002:0010f130       ?OnChildActivate@CWnd@@IAEXXZ 00671130 f   uafxcwd:afxinl3.obj
 0002:0010f150       ?OnClose@CWnd@@IAEXXZ      00671150 f   uafxcwd:afxinl3.obj
 0002:0010f170       ?OnContextMenu@CWnd@@IAEXPAV1@VCPoint@@@Z 00671170 f   uafxcwd:afxinl3.obj
 0002:0010f190       ?OnCopyData@CWnd@@IAEHPAV1@PAUtagCOPYDATASTRUCT@@@Z 00671190 f   uafxcwd:afxinl3.obj
 0002:0010f1b0       ?OnCreate@CWnd@@IAEHPAUtagCREATESTRUCTW@@@Z 006711b0 f   uafxcwd:afxinl3.obj
 0002:0010f1d0       ?OnEnable@CWnd@@IAEXH@Z    006711d0 f   uafxcwd:afxinl3.obj
 0002:0010f1f0       ?OnEndSession@CWnd@@IAEXH@Z 006711f0 f   uafxcwd:afxinl3.obj
 0002:0010f210       ?OnEraseBkgnd@CWnd@@IAEHPAVCDC@@@Z 00671210 f   uafxcwd:afxinl3.obj
 0002:0010f230       ?OnGetMinMaxInfo@CWnd@@IAEXPAUtagMINMAXINFO@@@Z 00671230 f   uafxcwd:afxinl3.obj
 0002:0010f250       ?OnIconEraseBkgnd@CWnd@@IAEXPAVCDC@@@Z 00671250 f   uafxcwd:afxinl3.obj
 0002:0010f270       ?OnKillFocus@CWnd@@IAEXPAV1@@Z 00671270 f   uafxcwd:afxinl3.obj
 0002:0010f290       ?OnMenuChar@CWnd@@IAEJIIPAVCMenu@@@Z 00671290 f   uafxcwd:afxinl3.obj
 0002:0010f2b0       ?OnMenuSelect@CWnd@@IAEXIIPAUHMENU__@@@Z 006712b0 f   uafxcwd:afxinl3.obj
 0002:0010f2d0       ?OnMove@CWnd@@IAEXHH@Z     006712d0 f   uafxcwd:afxinl3.obj
 0002:0010f2f0       ?OnSyncPaint@CWnd@@IAEXXZ  006712f0 f   uafxcwd:afxinl3.obj
 0002:0010f310       ?OnQueryDragIcon@CWnd@@IAEPAUHICON__@@XZ 00671310 f   uafxcwd:afxinl3.obj
 0002:0010f330       ?OnQueryEndSession@CWnd@@IAEHXZ 00671330 f   uafxcwd:afxinl3.obj
 0002:0010f350       ?OnQueryNewPalette@CWnd@@IAEHXZ 00671350 f   uafxcwd:afxinl3.obj
 0002:0010f370       ?OnQueryOpen@CWnd@@IAEHXZ  00671370 f   uafxcwd:afxinl3.obj
 0002:0010f390       ?OnSetCursor@CWnd@@IAEHPAV1@II@Z 00671390 f   uafxcwd:afxinl3.obj
 0002:0010f3b0       ?OnShowWindow@CWnd@@IAEXHI@Z 006713b0 f   uafxcwd:afxinl3.obj
 0002:0010f3d0       ?OnSize@CWnd@@IAEXIHH@Z    006713d0 f   uafxcwd:afxinl3.obj
 0002:0010f3f0       ?OnTCard@CWnd@@IAEXIK@Z    006713f0 f   uafxcwd:afxinl3.obj
 0002:0010f410       ?OnWindowPosChanging@CWnd@@IAEXPAUtagWINDOWPOS@@@Z 00671410 f   uafxcwd:afxinl3.obj
 0002:0010f430       ?OnWindowPosChanged@CWnd@@IAEXPAUtagWINDOWPOS@@@Z 00671430 f   uafxcwd:afxinl3.obj
 0002:0010f450       ?OnSessionChange@CWnd@@IAEXII@Z 00671450 f   uafxcwd:afxinl3.obj
 0002:0010f470       ?OnDropFiles@CWnd@@IAEXPAUHDROP__@@@Z 00671470 f   uafxcwd:afxinl3.obj
 0002:0010f490       ?OnPaletteIsChanging@CWnd@@IAEXPAV1@@Z 00671490 f   uafxcwd:afxinl3.obj
 0002:0010f4b0       ?OnNcActivate@CWnd@@IAEHH@Z 006714b0 f   uafxcwd:afxinl3.obj
 0002:0010f4d0       ?OnNcCalcSize@CWnd@@IAEXHPAUtagNCCALCSIZE_PARAMS@@@Z 006714d0 f   uafxcwd:afxinl3.obj
 0002:0010f4f0       ?OnNcCreate@CWnd@@IAEHPAUtagCREATESTRUCTW@@@Z 006714f0 f   uafxcwd:afxinl3.obj
 0002:0010f510       ?OnNcHitTest@CWnd@@IAEJVCPoint@@@Z 00671510 f   uafxcwd:afxinl3.obj
 0002:0010f530       ?OnNcLButtonDblClk@CWnd@@IAEXIVCPoint@@@Z 00671530 f   uafxcwd:afxinl3.obj
 0002:0010f550       ?OnNcLButtonDown@CWnd@@IAEXIVCPoint@@@Z 00671550 f   uafxcwd:afxinl3.obj
 0002:0010f570       ?OnNcLButtonUp@CWnd@@IAEXIVCPoint@@@Z 00671570 f   uafxcwd:afxinl3.obj
 0002:0010f590       ?OnNcMButtonDblClk@CWnd@@IAEXIVCPoint@@@Z 00671590 f   uafxcwd:afxinl3.obj
 0002:0010f5b0       ?OnNcMButtonDown@CWnd@@IAEXIVCPoint@@@Z 006715b0 f   uafxcwd:afxinl3.obj
 0002:0010f5d0       ?OnNcMButtonUp@CWnd@@IAEXIVCPoint@@@Z 006715d0 f   uafxcwd:afxinl3.obj
 0002:0010f5f0       ?OnNcMouseHover@CWnd@@IAEXIVCPoint@@@Z 006715f0 f   uafxcwd:afxinl3.obj
 0002:0010f610       ?OnNcMouseLeave@CWnd@@IAEXXZ 00671610 f   uafxcwd:afxinl3.obj
 0002:0010f630       ?OnNcMouseMove@CWnd@@IAEXIVCPoint@@@Z 00671630 f   uafxcwd:afxinl3.obj
 0002:0010f650       ?OnNcPaint@CWnd@@IAEXXZ    00671650 f   uafxcwd:afxinl3.obj
 0002:0010f670       ?OnNcRButtonDblClk@CWnd@@IAEXIVCPoint@@@Z 00671670 f   uafxcwd:afxinl3.obj
 0002:0010f690       ?OnNcRButtonDown@CWnd@@IAEXIVCPoint@@@Z 00671690 f   uafxcwd:afxinl3.obj
 0002:0010f6b0       ?OnNcRButtonUp@CWnd@@IAEXIVCPoint@@@Z 006716b0 f   uafxcwd:afxinl3.obj
 0002:0010f6d0       ?OnNcXButtonDown@CWnd@@IAEXFIVCPoint@@@Z 006716d0 f   uafxcwd:afxinl3.obj
 0002:0010f6f0       ?OnNcXButtonUp@CWnd@@IAEXFIVCPoint@@@Z 006716f0 f   uafxcwd:afxinl3.obj
 0002:0010f710       ?OnNcXButtonDblClk@CWnd@@IAEXFIVCPoint@@@Z 00671710 f   uafxcwd:afxinl3.obj
 0002:0010f730       ?OnSysChar@CWnd@@IAEXIII@Z 00671730 f   uafxcwd:afxinl3.obj
 0002:0010f750       ?OnSysCommand@CWnd@@IAEXIJ@Z 00671750 f   uafxcwd:afxinl3.obj
 0002:0010f770       ?OnSysDeadChar@CWnd@@IAEXIII@Z 00671770 f   uafxcwd:afxinl3.obj
 0002:0010f790       ?OnSysKeyDown@CWnd@@IAEXIII@Z 00671790 f   uafxcwd:afxinl3.obj
 0002:0010f7b0       ?OnSysKeyUp@CWnd@@IAEXIII@Z 006717b0 f   uafxcwd:afxinl3.obj
 0002:0010f7d0       ?OnAppCommand@CWnd@@IAEHPAV1@III@Z 006717d0 f   uafxcwd:afxinl3.obj
 0002:0010f7f0       ?OnRawInput@CWnd@@IAEXIPAUHRAWINPUT__@@@Z 006717f0 f   uafxcwd:afxinl3.obj
 0002:0010f810       ?OnCompacting@CWnd@@IAEXI@Z 00671810 f   uafxcwd:afxinl3.obj
 0002:0010f830       ?OnFontChange@CWnd@@IAEXXZ 00671830 f   uafxcwd:afxinl3.obj
 0002:0010f850       ?OnPaletteChanged@CWnd@@IAEXPAV1@@Z 00671850 f   uafxcwd:afxinl3.obj
 0002:0010f870       ?OnSpoolerStatus@CWnd@@IAEXII@Z 00671870 f   uafxcwd:afxinl3.obj
 0002:0010f890       ?OnTimeChange@CWnd@@IAEXXZ 00671890 f   uafxcwd:afxinl3.obj
 0002:0010f8b0       ?OnPowerBroadcast@CWnd@@IAEIII@Z 006718b0 f   uafxcwd:afxinl3.obj
 0002:0010f8d0       ?OnUserChanged@CWnd@@IAEXXZ 006718d0 f   uafxcwd:afxinl3.obj
 0002:0010f8f0       ?OnInputLangChange@CWnd@@IAEXII@Z 006718f0 f   uafxcwd:afxinl3.obj
 0002:0010f910       ?OnInputLangChangeRequest@CWnd@@IAEXII@Z 00671910 f   uafxcwd:afxinl3.obj
 0002:0010f930       ?OnInputDeviceChange@CWnd@@IAEXG@Z 00671930 f   uafxcwd:afxinl3.obj
 0002:0010f950       ?OnChar@CWnd@@IAEXIII@Z    00671950 f   uafxcwd:afxinl3.obj
 0002:0010f970       ?OnDeadChar@CWnd@@IAEXIII@Z 00671970 f   uafxcwd:afxinl3.obj
 0002:0010f990       ?OnUniChar@CWnd@@IAEXIII@Z 00671990 f   uafxcwd:afxinl3.obj
 0002:0010f9b0       ?OnKeyDown@CWnd@@IAEXIII@Z 006719b0 f   uafxcwd:afxinl3.obj
 0002:0010f9d0       ?OnKeyUp@CWnd@@IAEXIII@Z   006719d0 f   uafxcwd:afxinl3.obj
 0002:0010f9f0       ?OnHotKey@CWnd@@IAEXIII@Z  006719f0 f   uafxcwd:afxinl3.obj
 0002:0010fa10       ?OnLButtonDblClk@CWnd@@IAEXIVCPoint@@@Z 00671a10 f   uafxcwd:afxinl3.obj
 0002:0010fa30       ?OnLButtonDown@CWnd@@IAEXIVCPoint@@@Z 00671a30 f   uafxcwd:afxinl3.obj
 0002:0010fa50       ?OnLButtonUp@CWnd@@IAEXIVCPoint@@@Z 00671a50 f   uafxcwd:afxinl3.obj
 0002:0010fa70       ?OnMButtonDblClk@CWnd@@IAEXIVCPoint@@@Z 00671a70 f   uafxcwd:afxinl3.obj
 0002:0010fa90       ?OnMButtonDown@CWnd@@IAEXIVCPoint@@@Z 00671a90 f   uafxcwd:afxinl3.obj
 0002:0010fab0       ?OnMButtonUp@CWnd@@IAEXIVCPoint@@@Z 00671ab0 f   uafxcwd:afxinl3.obj
 0002:0010fad0       ?OnXButtonDblClk@CWnd@@IAEXIIVCPoint@@@Z 00671ad0 f   uafxcwd:afxinl3.obj
 0002:0010faf0       ?OnXButtonDown@CWnd@@IAEXIIVCPoint@@@Z 00671af0 f   uafxcwd:afxinl3.obj
 0002:0010fb10       ?OnXButtonUp@CWnd@@IAEXIIVCPoint@@@Z 00671b10 f   uafxcwd:afxinl3.obj
 0002:0010fb30       ?OnMouseActivate@CWnd@@IAEHPAV1@II@Z 00671b30 f   uafxcwd:afxinl3.obj
 0002:0010fb50       ?OnMouseHover@CWnd@@IAEXIVCPoint@@@Z 00671b50 f   uafxcwd:afxinl3.obj
 0002:0010fb70       ?OnMouseLeave@CWnd@@IAEXXZ 00671b70 f   uafxcwd:afxinl3.obj
 0002:0010fb90       ?OnMouseMove@CWnd@@IAEXIVCPoint@@@Z 00671b90 f   uafxcwd:afxinl3.obj
 0002:0010fbb0       ?OnMouseHWheel@CWnd@@IAEXIFVCPoint@@@Z 00671bb0 f   uafxcwd:afxinl3.obj
 0002:0010fbd0       ?OnMouseWheel@CWnd@@IAEHIFVCPoint@@@Z 00671bd0 f   uafxcwd:afxinl3.obj
 0002:0010fbf0       ?OnRButtonDblClk@CWnd@@IAEXIVCPoint@@@Z 00671bf0 f   uafxcwd:afxinl3.obj
 0002:0010fc10       ?OnRButtonDown@CWnd@@IAEXIVCPoint@@@Z 00671c10 f   uafxcwd:afxinl3.obj
 0002:0010fc30       ?OnRButtonUp@CWnd@@IAEXIVCPoint@@@Z 00671c30 f   uafxcwd:afxinl3.obj
 0002:0010fc50       ?OnTimer@CWnd@@IAEXI@Z     00671c50 f   uafxcwd:afxinl3.obj
 0002:0010fc70       ?OnInitMenu@CWnd@@IAEXPAVCMenu@@@Z 00671c70 f   uafxcwd:afxinl3.obj
 0002:0010fc90       ?OnInitMenuPopup@CWnd@@IAEXPAVCMenu@@IH@Z 00671c90 f   uafxcwd:afxinl3.obj
 0002:0010fcb0       ?OnUnInitMenuPopup@CWnd@@IAEXPAVCMenu@@I@Z 00671cb0 f   uafxcwd:afxinl3.obj
 0002:0010fcd0       ?OnAskCbFormatName@CWnd@@IAEXIPA_W@Z 00671cd0 f   uafxcwd:afxinl3.obj
 0002:0010fd00       ?OnChangeCbChain@CWnd@@IAEXPAUHWND__@@0@Z 00671d00 f   uafxcwd:afxinl3.obj
 0002:0010fd20       ?OnDestroyClipboard@CWnd@@IAEXXZ 00671d20 f   uafxcwd:afxinl3.obj
 0002:0010fd40       ?OnDrawClipboard@CWnd@@IAEXXZ 00671d40 f   uafxcwd:afxinl3.obj
 0002:0010fd60       ?OnHScrollClipboard@CWnd@@IAEXPAV1@II@Z 00671d60 f   uafxcwd:afxinl3.obj
 0002:0010fd80       ?OnPaintClipboard@CWnd@@IAEXPAV1@PAX@Z 00671d80 f   uafxcwd:afxinl3.obj
 0002:0010fda0       ?OnRenderAllFormats@CWnd@@IAEXXZ 00671da0 f   uafxcwd:afxinl3.obj
 0002:0010fdc0       ?OnRenderFormat@CWnd@@IAEXI@Z 00671dc0 f   uafxcwd:afxinl3.obj
 0002:0010fde0       ?OnSizeClipboard@CWnd@@IAEXPAV1@PAX@Z 00671de0 f   uafxcwd:afxinl3.obj
 0002:0010fe00       ?OnVScrollClipboard@CWnd@@IAEXPAV1@II@Z 00671e00 f   uafxcwd:afxinl3.obj
 0002:0010fe20       ?OnClipboardUpdate@CWnd@@IAEXXZ 00671e20 f   uafxcwd:afxinl3.obj
 0002:0010fe40       ?OnGetDlgCode@CWnd@@IAEIXZ 00671e40 f   uafxcwd:afxinl3.obj
 0002:0010fe60       ?OnMDIActivate@CWnd@@IAEXHPAV1@0@Z 00671e60 f   uafxcwd:afxinl3.obj
 0002:0010fe80       ?OnEnterMenuLoop@CWnd@@IAEXH@Z 00671e80 f   uafxcwd:afxinl3.obj
 0002:0010fea0       ?OnExitMenuLoop@CWnd@@IAEXH@Z 00671ea0 f   uafxcwd:afxinl3.obj
 0002:0010fec0       ?OnMenuRButtonUp@CWnd@@IAEXIPAVCMenu@@@Z 00671ec0 f   uafxcwd:afxinl3.obj
 0002:0010fee0       ?OnMenuDrag@CWnd@@IAEIIPAVCMenu@@@Z 00671ee0 f   uafxcwd:afxinl3.obj
 0002:0010ff00       ?OnMenuGetObject@CWnd@@IAEIPAUtagMENUGETOBJECTINFO@@@Z 00671f00 f   uafxcwd:afxinl3.obj
 0002:0010ff20       ?OnMenuCommand@CWnd@@IAEXIPAVCMenu@@@Z 00671f20 f   uafxcwd:afxinl3.obj
 0002:0010ff40       ?OnNextMenu@CWnd@@IAEXIPAUtagMDINEXTMENU@@@Z 00671f40 f   uafxcwd:afxinl3.obj
 0002:0010ff60       ?OnNotifyFormat@CWnd@@IAEIPAV1@I@Z 00671f60 f   uafxcwd:afxinl3.obj
 0002:0010ff80       ?OnStyleChanged@CWnd@@IAEXHPAUtagSTYLESTRUCT@@@Z 00671f80 f   uafxcwd:afxinl3.obj
 0002:0010ffa0       ?OnStyleChanging@CWnd@@IAEXHPAUtagSTYLESTRUCT@@@Z 00671fa0 f   uafxcwd:afxinl3.obj
 0002:0010ffc0       ?OnSizing@CWnd@@IAEXIPAUtagRECT@@@Z 00671fc0 f   uafxcwd:afxinl3.obj
 0002:0010ffe0       ?OnMoving@CWnd@@IAEXIPAUtagRECT@@@Z 00671fe0 f   uafxcwd:afxinl3.obj
 0002:00110000       ?OnEnterSizeMove@CWnd@@IAEXXZ 00672000 f   uafxcwd:afxinl3.obj
 0002:00110020       ?OnExitSizeMove@CWnd@@IAEXXZ 00672020 f   uafxcwd:afxinl3.obj
 0002:00110040       ?OnCaptureChanged@CWnd@@IAEXPAV1@@Z 00672040 f   uafxcwd:afxinl3.obj
 0002:00110060       ?OnDeviceChange@CWnd@@IAEHIK@Z 00672060 f   uafxcwd:afxinl3.obj
 0002:00110080       ?OnWinIniChange@CWnd@@IAEXPB_W@Z 00672080 f   uafxcwd:afxinl3.obj
 0002:001100a0       ?OnChangeUIState@CWnd@@IAEXII@Z 006720a0 f   uafxcwd:afxinl3.obj
 0002:001100c0       ?OnUpdateUIState@CWnd@@IAEXII@Z 006720c0 f   uafxcwd:afxinl3.obj
 0002:001100e0       ?OnQueryUIState@CWnd@@IAEIXZ 006720e0 f   uafxcwd:afxinl3.obj
 0002:00110100       ?OnCompositionChanged@CWnd@@IAEXXZ 00672100 f   uafxcwd:afxinl3.obj
 0002:00110120       ?OnNcRenderingChanged@CWnd@@IAEXH@Z 00672120 f   uafxcwd:afxinl3.obj
 0002:00110140       ?OnColorizationColorChanged@CWnd@@IAEXKH@Z 00672140 f   uafxcwd:afxinl3.obj
 0002:00110160       ?OnWindowMaximizedChange@CWnd@@IAEXH@Z 00672160 f   uafxcwd:afxinl3.obj
 0002:00110180       ?DoDataExchange@CWnd@@MAEXPAVCDataExchange@@@Z 00672180 f   uafxcwd:afxinl3.obj
 0002:001101a0       ?BeginModalState@CWnd@@UAEXXZ 006721a0 f   uafxcwd:afxinl3.obj
 0002:001101d0       ?EndModalState@CWnd@@UAEXXZ 006721d0 f   uafxcwd:afxinl3.obj
 0002:00110200       ?DelayUpdateFrameTitle@CFrameWnd@@QAEXXZ 00672200 f   uafxcwd:afxinl3.obj
 0002:00110230       ?DelayRecalcLayout@CFrameWnd@@QAEXH@Z 00672230 f   uafxcwd:afxinl3.obj
 0002:00110270       ?InModalState@CFrameWnd@@QBEHXZ 00672270 f   uafxcwd:afxinl3.obj
 0002:001102a0       ?AddControlBar@CFrameWnd@@QAEXPAVCControlBar@@@Z 006722a0 f   uafxcwd:afxinl3.obj
 0002:001102d0       ?SetTitle@CFrameWnd@@QAEXPB_W@Z 006722d0 f   uafxcwd:afxinl3.obj
 0002:00110300       ?GetTitle@CFrameWnd@@QBE?AV?$CStringT@_WV?$StrTraitMFC@_WV?$ChTraitsCRT@_W@ATL@@@@@ATL@@XZ 00672300 f   uafxcwd:afxinl3.obj
 0002:00110350       ?Create@CDialog@@UAEHIPAVCWnd@@@Z 00672350 f   uafxcwd:afxinl3.obj
 0002:00110380       ?MapDialogRect@CDialog@@QBEXPAUtagRECT@@@Z 00672380 f   uafxcwd:afxinl3.obj
 0002:001103e0       ?SetHelpID@CDialog@@QAEXI@Z 006723e0 f   uafxcwd:afxinl3.obj
 0002:00110400       ?NextDlgCtrl@CDialog@@QBEXXZ 00672400 f   uafxcwd:afxinl3.obj
 0002:00110460       ?PrevDlgCtrl@CDialog@@QBEXXZ 00672460 f   uafxcwd:afxinl3.obj
 0002:001104c0       ?GotoDlgCtrl@CDialog@@QAEXPAVCWnd@@@Z 006724c0 f   uafxcwd:afxinl3.obj
 0002:00110520       ?SetDefID@CDialog@@QAEXI@Z 00672520 f   uafxcwd:afxinl3.obj
 0002:00110580       ?GetDefID@CDialog@@QBEKXZ  00672580 f   uafxcwd:afxinl3.obj
 0002:001105e0       ??0CStatic@@QAE@XZ         006725e0 f   uafxcwd:afxinl3.obj
 0002:00110610       ??_ECStatic@@UAEPAXI@Z     00672610 f i uafxcwd:afxinl3.obj
 0002:00110610       ??_GCStatic@@UAEPAXI@Z     00672610 f i uafxcwd:afxinl3.obj
 0002:00110650       ?SetIcon@CStatic@@QAEPAUHICON__@@PAU2@@Z 00672650 f   uafxcwd:afxinl3.obj
 0002:001106b0       ?GetIcon@CStatic@@QBEPAUHICON__@@XZ 006726b0 f   uafxcwd:afxinl3.obj
 0002:00110710       ?SetEnhMetaFile@CStatic@@QAEPAUHENHMETAFILE__@@PAU2@@Z 00672710 f   uafxcwd:afxinl3.obj
 0002:00110770       ?GetEnhMetaFileW@CStatic@@QBEPAUHENHMETAFILE__@@XZ 00672770 f   uafxcwd:afxinl3.obj
 0002:001107d0       ?SetBitmap@CStatic@@QAEPAUHBITMAP__@@PAU2@@Z 006727d0 f   uafxcwd:afxinl3.obj
 0002:00110830       ?GetBitmap@CStatic@@QBEPAUHBITMAP__@@XZ 00672830 f   uafxcwd:afxinl3.obj
 0002:00110890       ?SetCursor@CStatic@@QAEPAUHICON__@@PAU2@@Z 00672890 f   uafxcwd:afxinl3.obj
 0002:001108f0       ?GetCursor@CStatic@@QAEPAUHICON__@@XZ 006728f0 f   uafxcwd:afxinl3.obj
 0002:00110950       ??0CButton@@QAE@XZ         00672950 f   uafxcwd:afxinl3.obj
 0002:00110980       ??_ECButton@@UAEPAXI@Z     00672980 f i uafxcwd:afxinl3.obj
 0002:00110980       ??_GCButton@@UAEPAXI@Z     00672980 f i uafxcwd:afxinl3.obj
 0002:001109c0       ?GetState@CButton@@QBEIXZ  006729c0 f   uafxcwd:afxinl3.obj
 0002:00110a20       ?SetState@CButton@@QAEXH@Z 00672a20 f   uafxcwd:afxinl3.obj
 0002:00110a50       ?GetCheck@CButton@@QBEHXZ  00672a50 f   uafxcwd:afxinl3.obj
 0002:00110ab0       ?SetCheck@CButton@@QAEXH@Z 00672ab0 f   uafxcwd:afxinl3.obj
 0002:00110b10       ?GetButtonStyle@CButton@@QBEIXZ 00672b10 f   uafxcwd:afxinl3.obj
 0002:00110b70       ?SetButtonStyle@CButton@@QAEXIH@Z 00672b70 f   uafxcwd:afxinl3.obj
 0002:00110be0       ?SetIcon@CButton@@QAEPAUHICON__@@PAU2@@Z 00672be0 f   uafxcwd:afxinl3.obj
 0002:00110c40       ?GetIcon@CButton@@QBEPAUHICON__@@XZ 00672c40 f   uafxcwd:afxinl3.obj
 0002:00110ca0       ?SetBitmap@CButton@@QAEPAUHBITMAP__@@PAU2@@Z 00672ca0 f   uafxcwd:afxinl3.obj
 0002:00110d00       ?GetBitmap@CButton@@QBEPAUHBITMAP__@@XZ 00672d00 f   uafxcwd:afxinl3.obj
 0002:00110d60       ?SetCursor@CButton@@QAEPAUHICON__@@PAU2@@Z 00672d60 f   uafxcwd:afxinl3.obj
 0002:00110dc0       ?GetCursor@CButton@@QAEPAUHICON__@@XZ 00672dc0 f   uafxcwd:afxinl3.obj
 0002:00110e20       ??0CSplitButton@@QAE@XZ    00672e20 f   uafxcwd:afxinl3.obj
 0002:00110e70       ??_ECSplitButton@@UAEPAXI@Z 00672e70 f i uafxcwd:afxinl3.obj
 0002:00110e70       ??_GCSplitButton@@UAEPAXI@Z 00672e70 f i uafxcwd:afxinl3.obj
 0002:00110eb0       ??0CSplitButton@@QAE@II@Z  00672eb0 f   uafxcwd:afxinl3.obj
 0002:00110f00       ??0CSplitButton@@QAE@PAVCMenu@@@Z 00672f00 f   uafxcwd:afxinl3.obj
 0002:00110f50       ??0CListBox@@QAE@XZ        00672f50 f   uafxcwd:afxinl3.obj
 0002:00110f80       ??_ECListBox@@UAEPAXI@Z    00672f80 f i uafxcwd:afxinl3.obj
 0002:00110f80       ??_GCListBox@@UAEPAXI@Z    00672f80 f i uafxcwd:afxinl3.obj
 0002:00110fc0       ?GetCount@CListBox@@QBEHXZ 00672fc0 f   uafxcwd:afxinl3.obj
 0002:00111020       ?GetCurSel@CListBox@@QBEHXZ 00673020 f   uafxcwd:afxinl3.obj
 0002:00111080       ?SetCurSel@CListBox@@QAEHH@Z 00673080 f   uafxcwd:afxinl3.obj
 0002:001110e0       ?GetHorizontalExtent@CListBox@@QBEHXZ 006730e0 f   uafxcwd:afxinl3.obj
 0002:00111140       ?SetHorizontalExtent@CListBox@@QAEXH@Z 00673140 f   uafxcwd:afxinl3.obj
 0002:001111a0       ?GetSelCount@CListBox@@QBEHXZ 006731a0 f   uafxcwd:afxinl3.obj
 0002:00111200       ?GetSelItems@CListBox@@QBEHHPAH@Z 00673200 f   uafxcwd:afxinl3.obj
 0002:00111270       ?GetTopIndex@CListBox@@QBEHXZ 00673270 f   uafxcwd:afxinl3.obj
 0002:001112d0       ?SetTopIndex@CListBox@@QAEHH@Z 006732d0 f   uafxcwd:afxinl3.obj
 0002:00111330       ?GetItemData@CListBox@@QBEKH@Z 00673330 f   uafxcwd:afxinl3.obj
 0002:00111390       ?SetItemData@CListBox@@QAEHHK@Z 00673390 f   uafxcwd:afxinl3.obj
 0002:00111400       ?GetItemDataPtr@CListBox@@QBEPAXH@Z 00673400 f   uafxcwd:afxinl3.obj
 0002:00111460       ?SetItemDataPtr@CListBox@@QAEHHPAX@Z 00673460 f   uafxcwd:afxinl3.obj
 0002:001114c0       ?GetItemRect@CListBox@@QBEHHPAUtagRECT@@@Z 006734c0 f   uafxcwd:afxinl3.obj
 0002:00111530       ?GetSel@CListBox@@QBEHH@Z  00673530 f   uafxcwd:afxinl3.obj
 0002:00111590       ?SetSel@CListBox@@QAEHHH@Z 00673590 f   uafxcwd:afxinl3.obj
 0002:00111600       ?GetText@CListBox@@QBEHHPA_W@Z 00673600 f   uafxcwd:afxinl3.obj
 0002:00111670       ?GetTextLen@CListBox@@QBEHH@Z 00673670 f   uafxcwd:afxinl3.obj
 0002:001116d0       ?SetColumnWidth@CListBox@@QAEXH@Z 006736d0 f   uafxcwd:afxinl3.obj
 0002:00111730       ?SetTabStops@CListBox@@QAEHHPAH@Z 00673730 f   uafxcwd:afxinl3.obj
 0002:001117a0       ?SetTabStops@CListBox@@QAEXXZ 006737a0 f   uafxcwd:afxinl3.obj
 0002:00111820       ?SetTabStops@CListBox@@QAEHABH@Z 00673820 f   uafxcwd:afxinl3.obj
 0002:00111880       ?SetItemHeight@CListBox@@QAEHHI@Z 00673880 f   uafxcwd:afxinl3.obj
 0002:001118f0       ?GetItemHeight@CListBox@@QBEHH@Z 006738f0 f   uafxcwd:afxinl3.obj
 0002:00111950       ?FindStringExact@CListBox@@QBEHHPB_W@Z 00673950 f   uafxcwd:afxinl3.obj
 0002:001119c0       ?GetCaretIndex@CListBox@@QBEHXZ 006739c0 f   uafxcwd:afxinl3.obj
 0002:00111a20       ?SetCaretIndex@CListBox@@QAEHHH@Z 00673a20 f   uafxcwd:afxinl3.obj
 0002:00111a90       ?AddString@CListBox@@QAEHPB_W@Z 00673a90 f   uafxcwd:afxinl3.obj
 0002:00111af0       ?DeleteString@CListBox@@QAEHI@Z 00673af0 f   uafxcwd:afxinl3.obj
 0002:00111b50       ?InsertString@CListBox@@QAEHHPB_W@Z 00673b50 f   uafxcwd:afxinl3.obj
 0002:00111bc0       ?ResetContent@CListBox@@QAEXXZ 00673bc0 f   uafxcwd:afxinl3.obj
 0002:00111c20       ?Dir@CListBox@@QAEHIPB_W@Z 00673c20 f   uafxcwd:afxinl3.obj
 0002:00111c90       ?FindString@CListBox@@QBEHHPB_W@Z 00673c90 f   uafxcwd:afxinl3.obj
 0002:00111d00       ?SelectString@CListBox@@QAEHHPB_W@Z 00673d00 f   uafxcwd:afxinl3.obj
 0002:00111d70       ?SelItemRange@CListBox@@QAEHHHH@Z 00673d70 f   uafxcwd:afxinl3.obj
 0002:00111e10       ?SetAnchorIndex@CListBox@@QAEXH@Z 00673e10 f   uafxcwd:afxinl3.obj
 0002:00111e70       ?GetAnchorIndex@CListBox@@QBEHXZ 00673e70 f   uafxcwd:afxinl3.obj
 0002:00111ed0       ?GetLocale@CListBox@@QBEKXZ 00673ed0 f   uafxcwd:afxinl3.obj
 0002:00111f30       ?SetLocale@CListBox@@QAEKK@Z 00673f30 f   uafxcwd:afxinl3.obj
 0002:00111f90       ?InitStorage@CListBox@@QAEHHI@Z 00673f90 f   uafxcwd:afxinl3.obj
 0002:00112000       ??0CCheckListBox@@QAE@XZ   00674000 f   uafxcwd:afxinl3.obj
 0002:001120a0       ??_ECCheckListBox@@UAEPAXI@Z 006740a0 f i uafxcwd:afxinl3.obj
 0002:001120a0       ??_GCCheckListBox@@UAEPAXI@Z 006740a0 f i uafxcwd:afxinl3.obj
 0002:001120e0       ??1CCheckListBox@@UAE@XZ   006740e0 f i uafxcwd:afxinl3.obj
 0002:00112100       ?GetCheckStyle@CCheckListBox@@QAEIXZ 00674100 f   uafxcwd:afxinl3.obj
 0002:00112120       ??0CComboBox@@QAE@XZ       00674120 f   uafxcwd:afxinl3.obj
 0002:00112150       ??_GCComboBox@@UAEPAXI@Z   00674150 f i uafxcwd:afxinl3.obj
 0002:00112150       ??_ECComboBox@@UAEPAXI@Z   00674150 f i uafxcwd:afxinl3.obj
 0002:00112190       ?GetCount@CComboBox@@QBEHXZ 00674190 f   uafxcwd:afxinl3.obj
 0002:001121f0       ?GetCurSel@CComboBox@@QBEHXZ 006741f0 f   uafxcwd:afxinl3.obj
 0002:00112250       ?SetCurSel@CComboBox@@QAEHH@Z 00674250 f   uafxcwd:afxinl3.obj
 0002:001122b0       ?GetEditSel@CComboBox@@QBEKXZ 006742b0 f   uafxcwd:afxinl3.obj
 0002:00112310       ?LimitText@CComboBox@@QAEHH@Z 00674310 f   uafxcwd:afxinl3.obj
 0002:00112370       ?SetEditSel@CComboBox@@QAEHHH@Z 00674370 f   uafxcwd:afxinl3.obj
 0002:001123f0       ?GetItemData@CComboBox@@QBEKH@Z 006743f0 f   uafxcwd:afxinl3.obj
 0002:00112450       ?SetItemData@CComboBox@@QAEHHK@Z 00674450 f   uafxcwd:afxinl3.obj
 0002:001124c0       ?GetItemDataPtr@CComboBox@@QBEPAXH@Z 006744c0 f   uafxcwd:afxinl3.obj
 0002:00112510       ?SetItemDataPtr@CComboBox@@QAEHHPAX@Z 00674510 f   uafxcwd:afxinl3.obj
 0002:00112570       ?GetLBText@CComboBox@@QBEHHPA_W@Z 00674570 f   uafxcwd:afxinl3.obj
 0002:001125e0       ?GetLBTextLen@CComboBox@@QBEHH@Z 006745e0 f   uafxcwd:afxinl3.obj
 0002:00112640       ?ShowDropDown@CComboBox@@QAEXH@Z 00674640 f   uafxcwd:afxinl3.obj
 0002:001126a0       ?AddString@CComboBox@@QAEHPB_W@Z 006746a0 f   uafxcwd:afxinl3.obj
 0002:00112700       ?DeleteString@CComboBox@@QAEHI@Z 00674700 f   uafxcwd:afxinl3.obj
 0002:00112760       ?InsertString@CComboBox@@QAEHHPB_W@Z 00674760 f   uafxcwd:afxinl3.obj
 0002:001127d0       ?ResetContent@CComboBox@@QAEXXZ 006747d0 f   uafxcwd:afxinl3.obj
 0002:00112830       ?Dir@CComboBox@@QAEHIPB_W@Z 00674830 f   uafxcwd:afxinl3.obj
 0002:001128a0       ?FindString@CComboBox@@QBEHHPB_W@Z 006748a0 f   uafxcwd:afxinl3.obj
 0002:00112910       ?SelectString@CComboBox@@QAEHHPB_W@Z 00674910 f   uafxcwd:afxinl3.obj
 0002:00112980       ?Clear@CComboBox@@QAEXXZ   00674980 f   uafxcwd:afxinl3.obj
 0002:001129e0       ?Copy@CComboBox@@QAEXXZ    006749e0 f   uafxcwd:afxinl3.obj
 0002:00112a40       ?Cut@CComboBox@@QAEXXZ     00674a40 f   uafxcwd:afxinl3.obj
 0002:00112aa0       ?Paste@CComboBox@@QAEXXZ   00674aa0 f   uafxcwd:afxinl3.obj
 0002:00112b00       ?SetItemHeight@CComboBox@@QAEHHI@Z 00674b00 f   uafxcwd:afxinl3.obj
 0002:00112b70       ?GetItemHeight@CComboBox@@QBEHH@Z 00674b70 f   uafxcwd:afxinl3.obj
 0002:00112bd0       ?FindStringExact@CComboBox@@QBEHHPB_W@Z 00674bd0 f   uafxcwd:afxinl3.obj
 0002:00112c40       ?SetExtendedUI@CComboBox@@QAEHH@Z 00674c40 f   uafxcwd:afxinl3.obj
 0002:00112ca0       ?GetExtendedUI@CComboBox@@QBEHXZ 00674ca0 f   uafxcwd:afxinl3.obj
 0002:00112d00       ?GetDroppedControlRect@CComboBox@@QBEXPAUtagRECT@@@Z 00674d00 f   uafxcwd:afxinl3.obj
 0002:00112d60       ?GetDroppedState@CComboBox@@QBEHXZ 00674d60 f   uafxcwd:afxinl3.obj
 0002:00112dc0       ?GetLocale@CComboBox@@QBEKXZ 00674dc0 f   uafxcwd:afxinl3.obj
 0002:00112e20       ?SetLocale@CComboBox@@QAEKK@Z 00674e20 f   uafxcwd:afxinl3.obj
 0002:00112e80       ?GetTopIndex@CComboBox@@QBEHXZ 00674e80 f   uafxcwd:afxinl3.obj
 0002:00112ee0       ?SetTopIndex@CComboBox@@QAEHH@Z 00674ee0 f   uafxcwd:afxinl3.obj
 0002:00112f40       ?InitStorage@CComboBox@@QAEHHI@Z 00674f40 f   uafxcwd:afxinl3.obj
 0002:00112fb0       ?SetHorizontalExtent@CComboBox@@QAEXI@Z 00674fb0 f   uafxcwd:afxinl3.obj
 0002:00113010       ?GetHorizontalExtent@CComboBox@@QBEIXZ 00675010 f   uafxcwd:afxinl3.obj
 0002:00113070       ?SetDroppedWidth@CComboBox@@QAEHI@Z 00675070 f   uafxcwd:afxinl3.obj
 0002:001130d0       ?GetDroppedWidth@CComboBox@@QBEHXZ 006750d0 f   uafxcwd:afxinl3.obj
 0002:00113130       ??0CEdit@@QAE@XZ           00675130 f   uafxcwd:afxinl3.obj
 0002:00113160       ??_ECEdit@@UAEPAXI@Z       00675160 f i uafxcwd:afxinl3.obj
 0002:00113160       ??_GCEdit@@UAEPAXI@Z       00675160 f i uafxcwd:afxinl3.obj
 0002:001131a0       ?CanUndo@CEdit@@QBEHXZ     006751a0 f   uafxcwd:afxinl3.obj
 0002:00113200       ?GetLineCount@CEdit@@QBEHXZ 00675200 f   uafxcwd:afxinl3.obj
 0002:00113260       ?GetModify@CEdit@@QBEHXZ   00675260 f   uafxcwd:afxinl3.obj
 0002:001132c0       ?SetModify@CEdit@@QAEXH@Z  006752c0 f   uafxcwd:afxinl3.obj
 0002:00113320       ?GetRect@CEdit@@QBEXPAUtagRECT@@@Z 00675320 f   uafxcwd:afxinl3.obj
 0002:00113380       ?GetSel@CEdit@@QBEXAAH0@Z  00675380 f   uafxcwd:afxinl3.obj
 0002:001133f0       ?GetSel@CEdit@@QBEKXZ      006753f0 f   uafxcwd:afxinl3.obj
 0002:00113450       ?GetHandle@CEdit@@QBEPAXXZ 00675450 f   uafxcwd:afxinl3.obj
 0002:001134b0       ?SetHandle@CEdit@@QAEXPAX@Z 006754b0 f   uafxcwd:afxinl3.obj
 0002:00113510       ?GetLine@CEdit@@QBEHHPA_W@Z 00675510 f   uafxcwd:afxinl3.obj
 0002:00113580       ?GetLine@CEdit@@QBEHHPA_WH@Z 00675580 f   uafxcwd:afxinl3.obj
 0002:001135f0       ?EmptyUndoBuffer@CEdit@@QAEXXZ 006755f0 f   uafxcwd:afxinl3.obj
 0002:00113650       ?FmtLines@CEdit@@QAEHH@Z   00675650 f   uafxcwd:afxinl3.obj
 0002:001136b0       ?LimitText@CEdit@@QAEXH@Z  006756b0 f   uafxcwd:afxinl3.obj
 0002:00113710       ?LineFromChar@CEdit@@QBEHH@Z 00675710 f   uafxcwd:afxinl3.obj
 0002:00113770       ?LineIndex@CEdit@@QBEHH@Z  00675770 f   uafxcwd:afxinl3.obj
 0002:001137d0       ?LineLength@CEdit@@QBEHH@Z 006757d0 f   uafxcwd:afxinl3.obj
 0002:00113830       ?LineScroll@CEdit@@QAEXHH@Z 00675830 f   uafxcwd:afxinl3.obj
 0002:001138a0       ?ReplaceSel@CEdit@@QAEXPB_WH@Z 006758a0 f   uafxcwd:afxinl3.obj
 0002:00113910       ?SetPasswordChar@CEdit@@QAEX_W@Z 00675910 f   uafxcwd:afxinl3.obj
 0002:00113970       ?SetRect@CEdit@@QAEXPBUtagRECT@@@Z 00675970 f   uafxcwd:afxinl3.obj
 0002:001139d0       ?SetRectNP@CEdit@@QAEXPBUtagRECT@@@Z 006759d0 f   uafxcwd:afxinl3.obj
 0002:00113a30       ?SetSel@CEdit@@QAEXKH@Z    00675a30 f   uafxcwd:afxinl3.obj
 0002:00113ad0       ?SetSel@CEdit@@QAEXHHH@Z   00675ad0 f   uafxcwd:afxinl3.obj
 0002:00113b60       ?SetTabStops@CEdit@@QAEHHPAH@Z 00675b60 f   uafxcwd:afxinl3.obj
 0002:00113bd0       ?SetTabStops@CEdit@@QAEXXZ 00675bd0 f   uafxcwd:afxinl3.obj
 0002:00113c50       ?SetTabStops@CEdit@@QAEHABH@Z 00675c50 f   uafxcwd:afxinl3.obj
 0002:00113cb0       ?Undo@CEdit@@QAEHXZ        00675cb0 f   uafxcwd:afxinl3.obj
 0002:00113d10       ?Clear@CEdit@@QAEXXZ       00675d10 f   uafxcwd:afxinl3.obj
 0002:00113d70       ?Copy@CEdit@@QAEXXZ        00675d70 f   uafxcwd:afxinl3.obj
 0002:00113dd0       ?Cut@CEdit@@QAEXXZ         00675dd0 f   uafxcwd:afxinl3.obj
 0002:00113e30       ?Paste@CEdit@@QAEXXZ       00675e30 f   uafxcwd:afxinl3.obj
 0002:00113e90       ?SetReadOnly@CEdit@@QAEHH@Z 00675e90 f   uafxcwd:afxinl3.obj
 0002:00113ef0       ?GetFirstVisibleLine@CEdit@@QBEHXZ 00675ef0 f   uafxcwd:afxinl3.obj
 0002:00113f50       ?GetPasswordChar@CEdit@@QBE_WXZ 00675f50 f   uafxcwd:afxinl3.obj
 0002:00113fb0       ?SetMargins@CEdit@@QAEXII@Z 00675fb0 f   uafxcwd:afxinl3.obj
 0002:00114030       ?GetMargins@CEdit@@QBEKXZ  00676030 f   uafxcwd:afxinl3.obj
 0002:00114090       ?SetLimitText@CEdit@@QAEXI@Z 00676090 f   uafxcwd:afxinl3.obj
 0002:001140f0       ?GetLimitText@CEdit@@QBEIXZ 006760f0 f   uafxcwd:afxinl3.obj
 0002:00114150       ?PosFromChar@CEdit@@QBE?AVCPoint@@I@Z 00676150 f   uafxcwd:afxinl3.obj
 0002:001141c0       ?CharFromPos@CEdit@@QBEHVCPoint@@@Z 006761c0 f   uafxcwd:afxinl3.obj
 0002:00114240       ??0CScrollBar@@QAE@XZ      00676240 f   uafxcwd:afxinl3.obj
 0002:00114270       ??_ECScrollBar@@UAEPAXI@Z  00676270 f i uafxcwd:afxinl3.obj
 0002:00114270       ??_GCScrollBar@@UAEPAXI@Z  00676270 f i uafxcwd:afxinl3.obj
 0002:001142b0       ?GetScrollPos@CScrollBar@@QBEHXZ 006762b0 f   uafxcwd:afxinl3.obj
 0002:00114310       ?SetScrollPos@CScrollBar@@QAEHHH@Z 00676310 f   uafxcwd:afxinl3.obj
 0002:00114370       ?GetScrollRange@CScrollBar@@QBEXPAH0@Z 00676370 f   uafxcwd:afxinl3.obj
 0002:001143d0       ?SetScrollRange@CScrollBar@@QAEXHHH@Z 006763d0 f   uafxcwd:afxinl3.obj
 0002:00114440       ?ShowScrollBar@CScrollBar@@QAEXH@Z 00676440 f   uafxcwd:afxinl3.obj
 0002:001144a0       ?EnableScrollBar@CScrollBar@@QAEHI@Z 006764a0 f   uafxcwd:afxinl3.obj
 0002:00114500       ?SetScrollInfo@CScrollBar@@QAEHPAUtagSCROLLINFO@@H@Z 00676500 f   uafxcwd:afxinl3.obj
 0002:00114530       ?GetScrollInfo@CScrollBar@@QAEHPAUtagSCROLLINFO@@I@Z 00676530 f   uafxcwd:afxinl3.obj
 0002:00114560       ?GetScrollLimit@CScrollBar@@QAEHXZ 00676560 f   uafxcwd:afxinl3.obj
 0002:00114580       ?MDIActivate@CMDIFrameWnd@@QAEXPAVCWnd@@@Z 00676580 f   uafxcwd:afxinl3.obj
 0002:001145f0       ?MDIIconArrange@CMDIFrameWnd@@QAEXXZ 006765f0 f   uafxcwd:afxinl3.obj
 0002:00114650       ?MDIMaximize@CMDIFrameWnd@@QAEXPAVCWnd@@@Z 00676650 f   uafxcwd:afxinl3.obj
 0002:001146c0       ?MDIPrev@CMDIFrameWnd@@QAEXXZ 006766c0 f   uafxcwd:afxinl3.obj
 0002:00114720       ?MDINext@CMDIFrameWnd@@QAEXXZ 00676720 f   uafxcwd:afxinl3.obj
 0002:00114780       ?MDIRestore@CMDIFrameWnd@@QAEXPAVCWnd@@@Z 00676780 f   uafxcwd:afxinl3.obj
 0002:001147f0       ?MDISetMenu@CMDIFrameWnd@@QAEPAVCMenu@@PAV2@0@Z 006767f0 f   uafxcwd:afxinl3.obj
 0002:00114870       ?MDITile@CMDIFrameWnd@@QAEXXZ 00676870 f   uafxcwd:afxinl3.obj
 0002:001148d0       ?MDICascade@CMDIFrameWnd@@QAEXXZ 006768d0 f   uafxcwd:afxinl3.obj
 0002:00114930       ?MDICascade@CMDIFrameWnd@@QAEXH@Z 00676930 f   uafxcwd:afxinl3.obj
 0002:001149a0       ?MDITile@CMDIFrameWnd@@QAEXH@Z 006769a0 f   uafxcwd:afxinl3.obj
 0002:00114a10       ?MDIDestroy@CMDIChildWnd@@QAEXXZ 00676a10 f   uafxcwd:afxinl3.obj
 0002:00114a80       ?MDIActivate@CMDIChildWnd@@QAEXXZ 00676a80 f   uafxcwd:afxinl3.obj
 0002:00114af0       ?MDIMaximize@CMDIChildWnd@@QAEXXZ 00676af0 f   uafxcwd:afxinl3.obj
 0002:00114b60       ?MDIRestore@CMDIChildWnd@@QAEXXZ 00676b60 f   uafxcwd:afxinl3.obj
 0002:00114bd0       ?GetDocument@CView@@QBEPAVCDocument@@XZ 00676bd0 f   uafxcwd:afxinl3.obj
 0002:00114c10       ?GetTotalSize@CScrollView@@QBE?AVCSize@@XZ 00676c10 f   uafxcwd:afxinl3.obj
 0002:00114c60       ?GetTitle@CDocument@@QBEABV?$CStringT@_WV?$StrTraitMFC@_WV?$ChTraitsCRT@_W@ATL@@@@@ATL@@XZ 00676c60 f   uafxcwd:afxinl3.obj
 0002:00114ca0       ?GetPathName@CDocument@@QBEABV?$CStringT@_WV?$StrTraitMFC@_WV?$ChTraitsCRT@_W@ATL@@@@@ATL@@XZ 00676ca0 f   uafxcwd:afxinl3.obj
 0002:00114ce0       ?GetDocTemplate@CDocument@@QBEPAVCDocTemplate@@XZ 00676ce0 f   uafxcwd:afxinl3.obj
 0002:00114d20       ?IsModified@CDocument@@UAEHXZ 00676d20 f   uafxcwd:afxinl3.obj
 0002:00114d60       ?SetModifiedFlag@CDocument@@UAEXH@Z 00676d60 f   uafxcwd:afxinl3.obj
 0002:00114da0       ??BCWinThread@@QBEPAXXZ    00676da0 f   uafxcwd:afxinl3.obj
 0002:00114de0       ?SetThreadPriority@CWinThread@@QAEHH@Z 00676de0 f   uafxcwd:afxinl3.obj
 0002:00114e30       ?GetThreadPriority@CWinThread@@QAEHXZ 00676e30 f   uafxcwd:afxinl3.obj
 0002:00114e80       ?ResumeThread@CWinThread@@QAEKXZ 00676e80 f   uafxcwd:afxinl3.obj
 0002:00114ed0       ?SuspendThread@CWinThread@@QAEKXZ 00676ed0 f   uafxcwd:afxinl3.obj
 0002:00114f20       ?PostThreadMessageW@CWinThread@@QAEHIIJ@Z 00676f20 f   uafxcwd:afxinl3.obj
 0002:00114f80       ?LoadCursorW@CWinApp@@QBEPAUHICON__@@PB_W@Z 00676f80 f   uafxcwd:afxinl3.obj
 0002:00114fb0       ?LoadCursorW@CWinApp@@QBEPAUHICON__@@I@Z 00676fb0 f   uafxcwd:afxinl3.obj
 0002:00114fe0       ?LoadStandardCursor@CWinApp@@QBEPAUHICON__@@PB_W@Z 00676fe0 f   uafxcwd:afxinl3.obj
 0002:00115010       ?LoadOEMCursor@CWinApp@@QBEPAUHICON__@@I@Z 00677010 f   uafxcwd:afxinl3.obj
 0002:00115040       ?LoadIconW@CWinApp@@QBEPAUHICON__@@PB_W@Z 00677040 f   uafxcwd:afxinl3.obj
 0002:00115070       ?LoadIconW@CWinApp@@QBEPAUHICON__@@I@Z 00677070 f   uafxcwd:afxinl3.obj
 0002:001150a0       ?LoadStandardIcon@CWinApp@@QBEPAUHICON__@@PB_W@Z 006770a0 f   uafxcwd:afxinl3.obj
 0002:001150d0       ?LoadOEMIcon@CWinApp@@QBEPAUHICON__@@I@Z 006770d0 f   uafxcwd:afxinl3.obj
 0002:00115100       ?EnableHtmlHelp@CWinApp@@QAEXXZ 00677100 f   uafxcwd:afxinl3.obj
 0002:00115120       ?GetHelpMode@CWinApp@@QAE?AW4AFX_HELP_TYPE@@XZ 00677120 f   uafxcwd:afxinl3.obj
 0002:00115140       ?SetHelpMode@CWinApp@@QAEXW4AFX_HELP_TYPE@@@Z 00677140 f   uafxcwd:afxinl3.obj
 0002:00115190       ?Enable3dControls@CWinApp@@IAEHXZ 00677190 f   uafxcwd:afxinl3.obj
 0002:001151b0       ?Enable3dControlsStatic@CWinApp@@IAEHXZ 006771b0 f   uafxcwd:afxinl3.obj
 0002:001151d0       ?SetDialogBkColor@CWinApp@@IAEXKK@Z 006771d0 f   uafxcwd:afxinl3.obj
 0002:001151f0       ??0CWaitCursor@@QAE@XZ     006771f0 f   uafxcwd:afxinl3.obj
 0002:00115220       ??1CWaitCursor@@QAE@XZ     00677220 f   uafxcwd:afxinl3.obj
 0002:00115430       ?Restore@CWaitCursor@@QAEXXZ 00677430 f   uafxcwd:afxinl3.obj
 0002:00115450       ?CloseWindow@CWnd@@QAEXXZ  00677450 f   uafxcwd:afxinl3.obj
 0002:001154a0       ?OpenIcon@CWnd@@QAEHXZ     006774a0 f   uafxcwd:afxinl3.obj
 0002:001154f0       ?Create@CStatic@@UAEHPB_WKABUtagRECT@@PAVCWnd@@I@Z 006774f0 f   uafxcwd:winctrl1.obj
 0002:00115540       ??1CStatic@@UAE@XZ         00677540 f   uafxcwd:winctrl1.obj
 0002:001155c0       ?DrawItem@CStatic@@UAEXPAUtagDRAWITEMSTRUCT@@@Z 006775c0 f   uafxcwd:winctrl1.obj
 0002:001155f0       ?OnChildNotify@CStatic@@MAEHIIJPAJ@Z 006775f0 f   uafxcwd:winctrl1.obj
 0002:00115670       ?Create@CButton@@UAEHPB_WKABUtagRECT@@PAVCWnd@@I@Z 00677670 f   uafxcwd:winctrl1.obj
 0002:001156c0       ??1CButton@@UAE@XZ         006776c0 f   uafxcwd:winctrl1.obj
 0002:00115740       ?GetCheckedRadioButton@CWnd@@QBEHHH@Z 00677740 f   uafxcwd:winctrl1.obj
 0002:001157a0       ?DrawItem@CButton@@UAEXPAUtagDRAWITEMSTRUCT@@@Z 006777a0 f   uafxcwd:winctrl1.obj
 0002:001157d0       ?OnChildNotify@CButton@@MAEHIIJPAJ@Z 006777d0 f   uafxcwd:winctrl1.obj
 0002:00115850       ?GetMessageMap@CSplitButton@@MBEPBUAFX_MSGMAP@@XZ 00677850 f   uafxcwd:winctrl1.obj
 0002:00115870       ?GetThisMessageMap@CSplitButton@@KGPBUAFX_MSGMAP@@XZ 00677870 f   uafxcwd:winctrl1.obj
 0002:00115880       ?Create@CSplitButton@@UAEHPB_WKABUtagRECT@@PAVCWnd@@I@Z 00677880 f   uafxcwd:winctrl1.obj
 0002:001158c0       ??1CSplitButton@@UAE@XZ    006778c0 f   uafxcwd:winctrl1.obj
 0002:00115940       ?SetDropDownMenu@CSplitButton@@QAEXII@Z 00677940 f   uafxcwd:winctrl1.obj
 0002:00115980       ?SetDropDownMenu@CSplitButton@@QAEXPAVCMenu@@@Z 00677980 f   uafxcwd:winctrl1.obj
 0002:001159b0       ?Cleanup@CSplitButton@@IAEXXZ 006779b0 f   uafxcwd:winctrl1.obj
 0002:00115a30       ?OnDropDown@CSplitButton@@IAEXPAUtagNMHDR@@PAJ@Z 00677a30 f   uafxcwd:winctrl1.obj
 0002:00115b90       ?Create@CListBox@@UAEHKABUtagRECT@@PAVCWnd@@I@Z 00677b90 f   uafxcwd:winctrl1.obj
 0002:00115be0       ??1CListBox@@UAE@XZ        00677be0 f   uafxcwd:winctrl1.obj
 0002:00115c60       ?DrawItem@CListBox@@UAEXPAUtagDRAWITEMSTRUCT@@@Z 00677c60 f   uafxcwd:winctrl1.obj
 0002:00115c90       ?MeasureItem@CListBox@@UAEXPAUtagMEASUREITEMSTRUCT@@@Z 00677c90 f   uafxcwd:winctrl1.obj
 0002:00115cc0       ?CompareItem@CListBox@@UAEHPAUtagCOMPAREITEMSTRUCT@@@Z 00677cc0 f   uafxcwd:winctrl1.obj
 0002:00115d00       ?DeleteItem@CListBox@@UAEXPAUtagDELETEITEMSTRUCT@@@Z 00677d00 f   uafxcwd:winctrl1.obj
 0002:00115d20       ?VKeyToItem@CListBox@@UAEHII@Z 00677d20 f   uafxcwd:winctrl1.obj
 0002:00115d40       ?CharToItem@CListBox@@UAEHII@Z 00677d40 f   uafxcwd:winctrl1.obj
 0002:00115d60       ?OnChildNotify@CListBox@@MAEHIIJPAJ@Z 00677d60 f   uafxcwd:winctrl1.obj
 0002:00115f90       ?GetText@CListBox@@QBEXHAAV?$CStringT@_WV?$StrTraitMFC@_WV?$ChTraitsCRT@_W@ATL@@@@@ATL@@@Z 00677f90 f   uafxcwd:winctrl1.obj
 0002:00116010       ?ItemFromPoint@CListBox@@QBEIVCPoint@@AAH@Z 00678010 f   uafxcwd:winctrl1.obj
 0002:001160d0       ?Create@CComboBox@@UAEHKABUtagRECT@@PAVCWnd@@I@Z 006780d0 f   uafxcwd:winctrl1.obj
 0002:00116120       ??1CComboBox@@UAE@XZ       00678120 f   uafxcwd:winctrl1.obj
 0002:001161a0       ?DrawItem@CComboBox@@UAEXPAUtagDRAWITEMSTRUCT@@@Z 006781a0 f   uafxcwd:winctrl1.obj
 0002:001161d0       ?MeasureItem@CComboBox@@UAEXPAUtagMEASUREITEMSTRUCT@@@Z 006781d0 f   uafxcwd:winctrl1.obj
 0002:00116200       ?CompareItem@CComboBox@@UAEHPAUtagCOMPAREITEMSTRUCT@@@Z 00678200 f   uafxcwd:winctrl1.obj
 0002:00116240       ?DeleteItem@CComboBox@@UAEXPAUtagDELETEITEMSTRUCT@@@Z 00678240 f   uafxcwd:winctrl1.obj
 0002:00116260       ?OnChildNotify@CComboBox@@MAEHIIJPAJ@Z 00678260 f   uafxcwd:winctrl1.obj
 0002:00116400       ?GetLBText@CComboBox@@QBEXHAAV?$CStringT@_WV?$StrTraitMFC@_WV?$ChTraitsCRT@_W@ATL@@@@@ATL@@@Z 00678400 f   uafxcwd:winctrl1.obj
 0002:00116480       ?Create@CEdit@@QAEHKABUtagRECT@@PAVCWnd@@I@Z 00678480 f   uafxcwd:winctrl1.obj
 0002:001164d0       ??1CEdit@@UAE@XZ           006784d0 f   uafxcwd:winctrl1.obj
 0002:00116550       ?Create@CScrollBar@@UAEHKABUtagRECT@@PAVCWnd@@I@Z 00678550 f   uafxcwd:winctrl1.obj
 0002:001165a0       ??1CScrollBar@@UAE@XZ      006785a0 f   uafxcwd:winctrl1.obj
 0002:00116620       ?GetRuntimeClass@CStatic@@UBEPAUCRuntimeClass@@XZ 00678620 f   uafxcwd:winctrl1.obj
 0002:00116640       ?GetRuntimeClass@CButton@@UBEPAUCRuntimeClass@@XZ 00678640 f   uafxcwd:winctrl1.obj
 0002:00116660       ?GetRuntimeClass@CSplitButton@@UBEPAUCRuntimeClass@@XZ 00678660 f   uafxcwd:winctrl1.obj
 0002:00116680       ?GetRuntimeClass@CListBox@@UBEPAUCRuntimeClass@@XZ 00678680 f   uafxcwd:winctrl1.obj
 0002:001166a0       ?GetRuntimeClass@CComboBox@@UBEPAUCRuntimeClass@@XZ 006786a0 f   uafxcwd:winctrl1.obj
 0002:001166c0       ?GetRuntimeClass@CEdit@@UBEPAUCRuntimeClass@@XZ 006786c0 f   uafxcwd:winctrl1.obj
 0002:001166e0       ?GetRuntimeClass@CScrollBar@@UBEPAUCRuntimeClass@@XZ 006786e0 f   uafxcwd:winctrl1.obj
 0002:00116700       ??0CObject@@IAE@XZ         00678700 f   uafxcwd:afxinl1.obj
 0002:00116720       ??1CObject@@UAE@XZ         00678720 f   uafxcwd:afxinl1.obj
 0002:00116740       ?Serialize@CObject@@UAEXAAVCArchive@@@Z 00678740 f   uafxcwd:afxinl1.obj
 0002:00116760       ??2CObject@@SGPAXIPAX@Z    00678760 f   uafxcwd:afxinl1.obj
 0002:00116770       ?AfxDynamicDownCast@@YAPBVCObject@@PAUCRuntimeClass@@PBV1@@Z 00678770 f   uafxcwd:afxinl1.obj
 0002:00116790       ?AfxStaticDownCast@@YAPBVCObject@@PAUCRuntimeClass@@PBV1@@Z 00678790 f   uafxcwd:afxinl1.obj
 0002:001167b0       ??1CException@@UAE@XZ      006787b0 f   uafxcwd:afxinl1.obj
 0002:001167e0       ??0CSimpleException@@QAE@XZ 006787e0 f   uafxcwd:afxinl1.obj
 0002:00116830       ??0CSimpleException@@QAE@H@Z 00678830 f   uafxcwd:afxinl1.obj
 0002:00116880       ??1CSimpleException@@UAE@XZ 00678880 f   uafxcwd:afxinl1.obj
 0002:001168b0       ??0CMemoryException@@QAE@XZ 006788b0 f   uafxcwd:afxinl1.obj
 0002:001168e0       ??_ECMemoryException@@UAEPAXI@Z 006788e0 f i uafxcwd:afxinl1.obj
 0002:001168e0       ??_GCMemoryException@@UAEPAXI@Z 006788e0 f i uafxcwd:afxinl1.obj
 0002:00116920       ??0CMemoryException@@QAE@HI@Z 00678920 f   uafxcwd:afxinl1.obj
 0002:00116960       ??1CMemoryException@@UAE@XZ 00678960 f   uafxcwd:afxinl1.obj
 0002:00116990       ??0CNotSupportedException@@QAE@XZ 00678990 f   uafxcwd:afxinl1.obj
 0002:001169c0       ??_GCNotSupportedException@@UAEPAXI@Z 006789c0 f i uafxcwd:afxinl1.obj
 0002:001169c0       ??_ECNotSupportedException@@UAEPAXI@Z 006789c0 f i uafxcwd:afxinl1.obj
 0002:00116a00       ??0CNotSupportedException@@QAE@HI@Z 00678a00 f   uafxcwd:afxinl1.obj
 0002:00116a40       ??1CNotSupportedException@@UAE@XZ 00678a40 f   uafxcwd:afxinl1.obj
 0002:00116a70       ??0CInvalidArgException@@QAE@XZ 00678a70 f   uafxcwd:afxinl1.obj
 0002:00116aa0       ??_ECInvalidArgException@@UAEPAXI@Z 00678aa0 f i uafxcwd:afxinl1.obj
 0002:00116aa0       ??_GCInvalidArgException@@UAEPAXI@Z 00678aa0 f i uafxcwd:afxinl1.obj
 0002:00116ae0       ??0CInvalidArgException@@QAE@HI@Z 00678ae0 f   uafxcwd:afxinl1.obj
 0002:00116b20       ??1CInvalidArgException@@UAE@XZ 00678b20 f   uafxcwd:afxinl1.obj
 0002:00116b50       ??0CArchiveException@@QAE@HPB_W@Z 00678b50 f   uafxcwd:afxinl1.obj
 0002:00116c00       ??_GCArchiveException@@UAEPAXI@Z 00678c00 f i uafxcwd:afxinl1.obj
 0002:00116c00       ??_ECArchiveException@@UAEPAXI@Z 00678c00 f i uafxcwd:afxinl1.obj
 0002:00116c40       ??1CArchiveException@@UAE@XZ 00678c40 f   uafxcwd:afxinl1.obj
 0002:00116c80       ??0CFileException@@QAE@HJPB_W@Z 00678c80 f   uafxcwd:afxinl1.obj
 0002:00116d30       ??_GCFileException@@UAEPAXI@Z 00678d30 f i uafxcwd:afxinl1.obj
 0002:00116d30       ??_ECFileException@@UAEPAXI@Z 00678d30 f i uafxcwd:afxinl1.obj
 0002:00116d70       ??1CFileException@@UAE@XZ  00678d70 f   uafxcwd:afxinl1.obj
 0002:00116db0       ??BCFile@@QBEPAXXZ         00678db0 f   uafxcwd:afxinl1.obj
 0002:00116dd0       ?SeekToEnd@CFile@@QAE_KXZ  00678dd0 f   uafxcwd:afxinl1.obj
 0002:00116e00       ?SeekToBegin@CFile@@QAEXXZ 00678e00 f   uafxcwd:afxinl1.obj
 0002:00116e30       ?SetFilePath@CFile@@UAEXPB_W@Z 00678e30 f   uafxcwd:afxinl1.obj
 0002:00116eb0       ?IsReadOnly@CFileFind@@QBEHXZ 00678eb0 f   uafxcwd:afxinl1.obj
 0002:00116ee0       ?IsDirectory@CFileFind@@QBEHXZ 00678ee0 f   uafxcwd:afxinl1.obj
 0002:00116f10       ?IsCompressed@CFileFind@@QBEHXZ 00678f10 f   uafxcwd:afxinl1.obj
 0002:00116f40       ?IsSystem@CFileFind@@QBEHXZ 00678f40 f   uafxcwd:afxinl1.obj
 0002:00116f70       ?IsHidden@CFileFind@@QBEHXZ 00678f70 f   uafxcwd:afxinl1.obj
 0002:00116fa0       ?IsTemporary@CFileFind@@QBEHXZ 00678fa0 f   uafxcwd:afxinl1.obj
 0002:00116fd0       ?IsNormal@CFileFind@@QBEHXZ 00678fd0 f   uafxcwd:afxinl1.obj
 0002:00117000       ?IsArchived@CFileFind@@QBEHXZ 00679000 f   uafxcwd:afxinl1.obj
 0002:00117030       ?IsLoading@CArchive@@QBEHXZ 00679030 f   uafxcwd:afxinl1.obj
 0002:00117060       ?IsStoring@CArchive@@QBEHXZ 00679060 f   uafxcwd:afxinl1.obj
 0002:00117090       ?IsByteSwapping@CArchive@@QBEHXZ 00679090 f   uafxcwd:afxinl1.obj
 0002:001170b0       ?IsBufferEmpty@CArchive@@QBEHXZ 006790b0 f   uafxcwd:afxinl1.obj
 0002:001170e0       ?GetFile@CArchive@@QBEPAVCFile@@XZ 006790e0 f   uafxcwd:afxinl1.obj
 0002:00117100       ?SetObjectSchema@CArchive@@QAEXI@Z 00679100 f   uafxcwd:afxinl1.obj
 0002:00117120       ?SetStoreParams@CArchive@@QAEXII@Z 00679120 f   uafxcwd:afxinl1.obj
 0002:001171a0       ?SetLoadParams@CArchive@@QAEXI@Z 006791a0 f   uafxcwd:afxinl1.obj
 0002:00117210       ??6CArchive@@QAEAAV0@H@Z   00679210 f   uafxcwd:afxinl1.obj
 0002:00117240       ??6CArchive@@QAEAAV0@I@Z   00679240 f   uafxcwd:afxinl1.obj
 0002:00117270       ??6CArchive@@QAEAAV0@F@Z   00679270 f   uafxcwd:afxinl1.obj
 0002:001172a0       ??6CArchive@@QAEAAV0@D@Z   006792a0 f   uafxcwd:afxinl1.obj
 0002:001172d0       ??6CArchive@@QAEAAV0@_W@Z  006792d0 f   uafxcwd:afxinl1.obj
 0002:00117300       ??6CArchive@@QAEAAV0@_N@Z  00679300 f   uafxcwd:afxinl1.obj
 0002:00117330       ??6CArchive@@QAEAAV0@E@Z   00679330 f   uafxcwd:afxinl1.obj
 0002:001173b0       ??6CArchive@@QAEAAV0@_J@Z  006793b0 f   uafxcwd:afxinl1.obj
 0002:00117440       ??6CArchive@@QAEAAV0@_K@Z  00679440 f   uafxcwd:afxinl1.obj
 0002:001174d0       ??6CArchive@@QAEAAV0@G@Z   006794d0 f   uafxcwd:afxinl1.obj
 0002:00117550       ??6CArchive@@QAEAAV0@J@Z   00679550 f   uafxcwd:afxinl1.obj
 0002:001175d0       ??6CArchive@@QAEAAV0@K@Z   006795d0 f   uafxcwd:afxinl1.obj
 0002:00117650       ??6CArchive@@QAEAAV0@M@Z   00679650 f   uafxcwd:afxinl1.obj
 0002:001176d0       ??6CArchive@@QAEAAV0@N@Z   006796d0 f   uafxcwd:afxinl1.obj
 0002:00117750       ??5CArchive@@QAEAAV0@AAH@Z 00679750 f   uafxcwd:afxinl1.obj
 0002:00117780       ??5CArchive@@QAEAAV0@AAI@Z 00679780 f   uafxcwd:afxinl1.obj
 0002:001177b0       ??5CArchive@@QAEAAV0@AAF@Z 006797b0 f   uafxcwd:afxinl1.obj
 0002:001177e0       ??5CArchive@@QAEAAV0@AAD@Z 006797e0 f   uafxcwd:afxinl1.obj
 0002:00117810       ??5CArchive@@QAEAAV0@AA_W@Z 00679810 f   uafxcwd:afxinl1.obj
 0002:00117840       ??5CArchive@@QAEAAV0@AA_N@Z 00679840 f   uafxcwd:afxinl1.obj
 0002:00117880       ??5CArchive@@QAEAAV0@AAE@Z 00679880 f   uafxcwd:afxinl1.obj
 0002:00117920       ??5CArchive@@QAEAAV0@AA_J@Z 00679920 f   uafxcwd:afxinl1.obj
 0002:001179c0       ??5CArchive@@QAEAAV0@AA_K@Z 006799c0 f   uafxcwd:afxinl1.obj
 0002:00117a60       ??5CArchive@@QAEAAV0@AAG@Z 00679a60 f   uafxcwd:afxinl1.obj
 0002:00117b00       ??5CArchive@@QAEAAV0@AAK@Z 00679b00 f   uafxcwd:afxinl1.obj
 0002:00117ba0       ??5CArchive@@QAEAAV0@AAM@Z 00679ba0 f   uafxcwd:afxinl1.obj
 0002:00117c40       ??5CArchive@@QAEAAV0@AAN@Z 00679c40 f   uafxcwd:afxinl1.obj
 0002:00117ce0       ??5CArchive@@QAEAAV0@AAJ@Z 00679ce0 f   uafxcwd:afxinl1.obj
 0002:00117d80       ??0CArchive@@IAE@ABV0@@Z   00679d80 f   uafxcwd:afxinl1.obj
 0002:00117db0       ??4CArchive@@IAEXABV0@@Z   00679db0 f   uafxcwd:afxinl1.obj
 0002:00117dd0       ??6@YGAAVCArchive@@AAV0@PBVCObject@@@Z 00679dd0 f   uafxcwd:afxinl1.obj
 0002:00117df0       ??5@YGAAVCArchive@@AAV0@AAPAVCObject@@@Z 00679df0 f   uafxcwd:afxinl1.obj
 0002:00117e20       ??5@YGAAVCArchive@@AAV0@AAPBVCObject@@@Z 00679e20 f   uafxcwd:afxinl1.obj
 0002:00117e50       ?EnsureRead@CArchive@@QAEXPAXI@Z 00679e50 f   uafxcwd:afxinl1.obj
 0002:00117ea0       ?GetDepth@CDumpContext@@QBEHXZ 00679ea0 f   uafxcwd:afxinl1.obj
 0002:00117ec0       ?SetDepth@CDumpContext@@QAEXH@Z 00679ec0 f   uafxcwd:afxinl1.obj
 0002:00117ee0       ??0CDumpContext@@IAE@ABV0@@Z 00679ee0 f   uafxcwd:afxinl1.obj
 0002:00117f00       ??4CDumpContext@@IAEXABV0@@Z 00679f00 f   uafxcwd:afxinl1.obj
 0002:00117f20       ?GetSize@CByteArray@@QBEHXZ 00679f20 f   uafxcwd:afxinl1.obj
 0002:00117f40       ?GetCount@CByteArray@@QBEHXZ 00679f40 f   uafxcwd:afxinl1.obj
 0002:00117f60       ?IsEmpty@CByteArray@@QBEHXZ 00679f60 f   uafxcwd:afxinl1.obj
 0002:00117f90       ?GetUpperBound@CByteArray@@QBEHXZ 00679f90 f   uafxcwd:afxinl1.obj
 0002:00117fb0       ?RemoveAll@CByteArray@@QAEXXZ 00679fb0 f   uafxcwd:afxinl1.obj
 0002:00117fd0       ?GetAt@CByteArray@@QBEEH@Z 00679fd0 f   uafxcwd:afxinl1.obj
 0002:00118040       ?SetAt@CByteArray@@QAEXHE@Z 0067a040 f   uafxcwd:afxinl1.obj
 0002:001180b0       ?ElementAt@CByteArray@@QAEAAEH@Z 0067a0b0 f   uafxcwd:afxinl1.obj
 0002:00118120       ?GetData@CByteArray@@QBEPBEXZ 0067a120 f   uafxcwd:afxinl1.obj
 0002:00118140       ?GetData@CByteArray@@QAEPAEXZ 0067a140 f   uafxcwd:afxinl1.obj
 0002:00118160       ?Add@CByteArray@@QAEHE@Z   0067a160 f   uafxcwd:afxinl1.obj
 0002:001181a0       ??ACByteArray@@QBEEH@Z     0067a1a0 f   uafxcwd:afxinl1.obj
 0002:001181d0       ??ACByteArray@@QAEAAEH@Z   0067a1d0 f   uafxcwd:afxinl1.obj
 0002:00118200       ?GetSize@CWordArray@@QBEHXZ 0067a200 f   uafxcwd:afxinl1.obj
 0002:00118220       ?GetCount@CWordArray@@QBEHXZ 0067a220 f   uafxcwd:afxinl1.obj
 0002:00118240       ?IsEmpty@CWordArray@@QBEHXZ 0067a240 f   uafxcwd:afxinl1.obj
 0002:00118270       ?GetUpperBound@CWordArray@@QBEHXZ 0067a270 f   uafxcwd:afxinl1.obj
 0002:00118290       ?RemoveAll@CWordArray@@QAEXXZ 0067a290 f   uafxcwd:afxinl1.obj
 0002:001182b0       ?GetAt@CWordArray@@QBEGH@Z 0067a2b0 f   uafxcwd:afxinl1.obj
 0002:00118320       ?SetAt@CWordArray@@QAEXHG@Z 0067a320 f   uafxcwd:afxinl1.obj
 0002:00118390       ?ElementAt@CWordArray@@QAEAAGH@Z 0067a390 f   uafxcwd:afxinl1.obj
 0002:00118400       ?GetData@CWordArray@@QBEPBGXZ 0067a400 f   uafxcwd:afxinl1.obj
 0002:00118420       ?GetData@CWordArray@@QAEPAGXZ 0067a420 f   uafxcwd:afxinl1.obj
 0002:00118440       ?Add@CWordArray@@QAEHG@Z   0067a440 f   uafxcwd:afxinl1.obj
 0002:00118480       ??ACWordArray@@QBEGH@Z     0067a480 f   uafxcwd:afxinl1.obj
 0002:001184b0       ??ACWordArray@@QAEAAGH@Z   0067a4b0 f   uafxcwd:afxinl1.obj
 0002:001184e0       ?GetSize@CDWordArray@@QBEHXZ 0067a4e0 f   uafxcwd:afxinl1.obj
 0002:00118500       ?GetCount@CDWordArray@@QBEHXZ 0067a500 f   uafxcwd:afxinl1.obj
 0002:00118520       ?IsEmpty@CDWordArray@@QBEHXZ 0067a520 f   uafxcwd:afxinl1.obj
 0002:00118550       ?GetUpperBound@CDWordArray@@QBEHXZ 0067a550 f   uafxcwd:afxinl1.obj
 0002:00118570       ?RemoveAll@CDWordArray@@QAEXXZ 0067a570 f   uafxcwd:afxinl1.obj
 0002:00118590       ?GetAt@CDWordArray@@QBEKH@Z 0067a590 f   uafxcwd:afxinl1.obj
 0002:00118600       ?SetAt@CDWordArray@@QAEXHK@Z 0067a600 f   uafxcwd:afxinl1.obj
 0002:00118670       ?ElementAt@CDWordArray@@QAEAAKH@Z 0067a670 f   uafxcwd:afxinl1.obj
 0002:001186e0       ?GetData@CDWordArray@@QBEPBKXZ 0067a6e0 f   uafxcwd:afxinl1.obj
 0002:00118700       ?GetData@CDWordArray@@QAEPAKXZ 0067a700 f   uafxcwd:afxinl1.obj
 0002:00118720       ?Add@CDWordArray@@QAEHK@Z  0067a720 f   uafxcwd:afxinl1.obj
 0002:00118760       ??ACDWordArray@@QBEKH@Z    0067a760 f   uafxcwd:afxinl1.obj
 0002:00118790       ??ACDWordArray@@QAEAAKH@Z  0067a790 f   uafxcwd:afxinl1.obj
 0002:001187c0       ?GetSize@CUIntArray@@QBEHXZ 0067a7c0 f   uafxcwd:afxinl1.obj
 0002:001187e0       ?GetCount@CUIntArray@@QBEHXZ 0067a7e0 f   uafxcwd:afxinl1.obj
 0002:00118800       ?IsEmpty@CUIntArray@@QBEHXZ 0067a800 f   uafxcwd:afxinl1.obj
 0002:00118830       ?GetUpperBound@CUIntArray@@QBEHXZ 0067a830 f   uafxcwd:afxinl1.obj
 0002:00118850       ?RemoveAll@CUIntArray@@QAEXXZ 0067a850 f   uafxcwd:afxinl1.obj
 0002:00118870       ?GetAt@CUIntArray@@QBEIH@Z 0067a870 f   uafxcwd:afxinl1.obj
 0002:001188e0       ?SetAt@CUIntArray@@QAEXHI@Z 0067a8e0 f   uafxcwd:afxinl1.obj
 0002:00118950       ?ElementAt@CUIntArray@@QAEAAIH@Z 0067a950 f   uafxcwd:afxinl1.obj
 0002:001189c0       ?GetData@CUIntArray@@QBEPBIXZ 0067a9c0 f   uafxcwd:afxinl1.obj
 0002:001189e0       ?GetData@CUIntArray@@QAEPAIXZ 0067a9e0 f   uafxcwd:afxinl1.obj
 0002:00118a00       ?Add@CUIntArray@@QAEHI@Z   0067aa00 f   uafxcwd:afxinl1.obj
 0002:00118a40       ??ACUIntArray@@QBEIH@Z     0067aa40 f   uafxcwd:afxinl1.obj
 0002:00118a70       ??ACUIntArray@@QAEAAIH@Z   0067aa70 f   uafxcwd:afxinl1.obj
 0002:00118aa0       ?GetSize@CPtrArray@@QBEHXZ 0067aaa0 f   uafxcwd:afxinl1.obj
 0002:00118ac0       ?GetCount@CPtrArray@@QBEHXZ 0067aac0 f   uafxcwd:afxinl1.obj
 0002:00118ae0       ?IsEmpty@CPtrArray@@QBEHXZ 0067aae0 f   uafxcwd:afxinl1.obj
 0002:00118b10       ?GetUpperBound@CPtrArray@@QBEHXZ 0067ab10 f   uafxcwd:afxinl1.obj
 0002:00118b30       ?RemoveAll@CPtrArray@@QAEXXZ 0067ab30 f   uafxcwd:afxinl1.obj
 0002:00118b50       ?GetAt@CPtrArray@@QBEPAXH@Z 0067ab50 f   uafxcwd:afxinl1.obj
 0002:00118bc0       ?SetAt@CPtrArray@@QAEXHPAX@Z 0067abc0 f   uafxcwd:afxinl1.obj
 0002:00118c30       ?ElementAt@CPtrArray@@QAEAAPAXH@Z 0067ac30 f   uafxcwd:afxinl1.obj
 0002:00118ca0       ?GetData@CPtrArray@@QBEPAPBXXZ 0067aca0 f   uafxcwd:afxinl1.obj
 0002:00118cc0       ?GetData@CPtrArray@@QAEPAPAXXZ 0067acc0 f   uafxcwd:afxinl1.obj
 0002:00118ce0       ?Add@CPtrArray@@QAEHPAX@Z  0067ace0 f   uafxcwd:afxinl1.obj
 0002:00118d20       ??ACPtrArray@@QBEPAXH@Z    0067ad20 f   uafxcwd:afxinl1.obj
 0002:00118d50       ??ACPtrArray@@QAEAAPAXH@Z  0067ad50 f   uafxcwd:afxinl1.obj
 0002:00118d80       ?GetSize@CObArray@@QBEHXZ  0067ad80 f   uafxcwd:afxinl1.obj
 0002:00118da0       ?GetCount@CObArray@@QBEHXZ 0067ada0 f   uafxcwd:afxinl1.obj
 0002:00118dc0       ?IsEmpty@CObArray@@QBEHXZ  0067adc0 f   uafxcwd:afxinl1.obj
 0002:00118df0       ?GetUpperBound@CObArray@@QBEHXZ 0067adf0 f   uafxcwd:afxinl1.obj
 0002:00118e10       ?RemoveAll@CObArray@@QAEXXZ 0067ae10 f   uafxcwd:afxinl1.obj
 0002:00118e30       ?GetAt@CObArray@@QBEPAVCObject@@H@Z 0067ae30 f   uafxcwd:afxinl1.obj
 0002:00118ea0       ?SetAt@CObArray@@QAEXHPAVCObject@@@Z 0067aea0 f   uafxcwd:afxinl1.obj
 0002:00118f10       ?ElementAt@CObArray@@QAEAAPAVCObject@@H@Z 0067af10 f   uafxcwd:afxinl1.obj
 0002:00118f80       ?GetData@CObArray@@QBEPAPBVCObject@@XZ 0067af80 f   uafxcwd:afxinl1.obj
 0002:00118fa0       ?GetData@CObArray@@QAEPAPAVCObject@@XZ 0067afa0 f   uafxcwd:afxinl1.obj
 0002:00118fc0       ?Add@CObArray@@QAEHPAVCObject@@@Z 0067afc0 f   uafxcwd:afxinl1.obj
 0002:00119000       ??ACObArray@@QBEPAVCObject@@H@Z 0067b000 f   uafxcwd:afxinl1.obj
 0002:00119030       ??ACObArray@@QAEAAPAVCObject@@H@Z 0067b030 f   uafxcwd:afxinl1.obj
 0002:00119060       ?GetSize@CStringArray@@QBEHXZ 0067b060 f   uafxcwd:afxinl1.obj
 0002:00119080       ?GetCount@CStringArray@@QBEHXZ 0067b080 f   uafxcwd:afxinl1.obj
 0002:001190a0       ?IsEmpty@CStringArray@@QBEHXZ 0067b0a0 f   uafxcwd:afxinl1.obj
 0002:001190d0       ?GetUpperBound@CStringArray@@QBEHXZ 0067b0d0 f   uafxcwd:afxinl1.obj
 0002:001190f0       ?RemoveAll@CStringArray@@QAEXXZ 0067b0f0 f   uafxcwd:afxinl1.obj
 0002:00119110       ?GetAt@CStringArray@@QBEABV?$CStringT@_WV?$StrTraitMFC@_WV?$ChTraitsCRT@_W@ATL@@@@@ATL@@H@Z 0067b110 f   uafxcwd:afxinl1.obj
 0002:00119180       ?SetAt@CStringArray@@QAEXHPB_W@Z 0067b180 f   uafxcwd:afxinl1.obj
 0002:00119200       ?SetAt@CStringArray@@QAEXHABV?$CStringT@_WV?$StrTraitMFC@_WV?$ChTraitsCRT@_W@ATL@@@@@ATL@@@Z 0067b200 f   uafxcwd:afxinl1.obj
 0002:00119280       ?ElementAt@CStringArray@@QAEAAV?$CStringT@_WV?$StrTraitMFC@_WV?$ChTraitsCRT@_W@ATL@@@@@ATL@@H@Z 0067b280 f   uafxcwd:afxinl1.obj
 0002:001192f0       ?GetData@CStringArray@@QBEPBV?$CStringT@_WV?$StrTraitMFC@_WV?$ChTraitsCRT@_W@ATL@@@@@ATL@@XZ 0067b2f0 f   uafxcwd:afxinl1.obj
 0002:00119310       ?GetData@CStringArray@@QAEPAV?$CStringT@_WV?$StrTraitMFC@_WV?$ChTraitsCRT@_W@ATL@@@@@ATL@@XZ 0067b310 f   uafxcwd:afxinl1.obj
 0002:00119330       ?Add@CStringArray@@QAEHPB_W@Z 0067b330 f   uafxcwd:afxinl1.obj
 0002:00119370       ?Add@CStringArray@@QAEHABV?$CStringT@_WV?$StrTraitMFC@_WV?$ChTraitsCRT@_W@ATL@@@@@ATL@@@Z 0067b370 f   uafxcwd:afxinl1.obj
 0002:001193b0       ??ACStringArray@@QBEABV?$CStringT@_WV?$StrTraitMFC@_WV?$ChTraitsCRT@_W@ATL@@@@@ATL@@H@Z 0067b3b0 f   uafxcwd:afxinl1.obj
 0002:001193e0       ??ACStringArray@@QAEAAV?$CStringT@_WV?$StrTraitMFC@_WV?$ChTraitsCRT@_W@ATL@@@@@ATL@@H@Z 0067b3e0 f   uafxcwd:afxinl1.obj
 0002:00119410       ?GetCount@CPtrList@@QBEHXZ 0067b410 f   uafxcwd:afxinl1.obj
 0002:00119430       ?GetSize@CPtrList@@QBEHXZ  0067b430 f   uafxcwd:afxinl1.obj
 0002:00119450       ?IsEmpty@CPtrList@@QBEHXZ  0067b450 f   uafxcwd:afxinl1.obj
 0002:00119480       ?GetHead@CPtrList@@QAEAAPAXXZ 0067b480 f   uafxcwd:afxinl1.obj
 0002:001194c0       ?GetHead@CPtrList@@QBEPBXXZ 0067b4c0 f   uafxcwd:afxinl1.obj
 0002:00119500       ?GetTail@CPtrList@@QAEAAPAXXZ 0067b500 f   uafxcwd:afxinl1.obj
 0002:00119540       ?GetTail@CPtrList@@QBEPBXXZ 0067b540 f   uafxcwd:afxinl1.obj
 0002:00119580       ?GetHeadPosition@CPtrList@@QBEPAU__POSITION@@XZ 0067b580 f   uafxcwd:afxinl1.obj
 0002:001195a0       ?GetTailPosition@CPtrList@@QBEPAU__POSITION@@XZ 0067b5a0 f   uafxcwd:afxinl1.obj
 0002:001195c0       ?GetNext@CPtrList@@QAEAAPAXAAPAU__POSITION@@@Z 0067b5c0 f   uafxcwd:afxinl1.obj
 0002:00119630       ?GetNext@CPtrList@@QBEPBXAAPAU__POSITION@@@Z 0067b630 f   uafxcwd:afxinl1.obj
 0002:001196a0       ?GetPrev@CPtrList@@QAEAAPAXAAPAU__POSITION@@@Z 0067b6a0 f   uafxcwd:afxinl1.obj
 0002:00119710       ?GetPrev@CPtrList@@QBEPBXAAPAU__POSITION@@@Z 0067b710 f   uafxcwd:afxinl1.obj
 0002:00119780       ?GetAt@CPtrList@@QAEAAPAXPAU__POSITION@@@Z 0067b780 f   uafxcwd:afxinl1.obj
 0002:001197e0       ?GetAt@CPtrList@@QBEPBXPAU__POSITION@@@Z 0067b7e0 f   uafxcwd:afxinl1.obj
 0002:00119840       ?SetAt@CPtrList@@QAEXPAU__POSITION@@PAX@Z 0067b840 f   uafxcwd:afxinl1.obj
 0002:001198b0       ?GetCount@CObList@@QBEHXZ  0067b8b0 f   uafxcwd:afxinl1.obj
 0002:001198d0       ?GetSize@CObList@@QBEHXZ   0067b8d0 f   uafxcwd:afxinl1.obj
 0002:001198f0       ?IsEmpty@CObList@@QBEHXZ   0067b8f0 f   uafxcwd:afxinl1.obj
 0002:00119920       ?GetHead@CObList@@QAEAAPAVCObject@@XZ 0067b920 f   uafxcwd:afxinl1.obj
 0002:00119960       ?GetHead@CObList@@QBEPBVCObject@@XZ 0067b960 f   uafxcwd:afxinl1.obj
 0002:001199a0       ?GetTail@CObList@@QAEAAPAVCObject@@XZ 0067b9a0 f   uafxcwd:afxinl1.obj
 0002:001199e0       ?GetTail@CObList@@QBEPBVCObject@@XZ 0067b9e0 f   uafxcwd:afxinl1.obj
 0002:00119a20       ?GetHeadPosition@CObList@@QBEPAU__POSITION@@XZ 0067ba20 f   uafxcwd:afxinl1.obj
 0002:00119a40       ?GetTailPosition@CObList@@QBEPAU__POSITION@@XZ 0067ba40 f   uafxcwd:afxinl1.obj
 0002:00119a60       ?GetNext@CObList@@QAEAAPAVCObject@@AAPAU__POSITION@@@Z 0067ba60 f   uafxcwd:afxinl1.obj
 0002:00119ad0       ?GetNext@CObList@@QBEPBVCObject@@AAPAU__POSITION@@@Z 0067bad0 f   uafxcwd:afxinl1.obj
 0002:00119b40       ?GetPrev@CObList@@QAEAAPAVCObject@@AAPAU__POSITION@@@Z 0067bb40 f   uafxcwd:afxinl1.obj
 0002:00119bb0       ?GetPrev@CObList@@QBEPBVCObject@@AAPAU__POSITION@@@Z 0067bbb0 f   uafxcwd:afxinl1.obj
 0002:00119c20       ?GetAt@CObList@@QAEAAPAVCObject@@PAU__POSITION@@@Z 0067bc20 f   uafxcwd:afxinl1.obj
 0002:00119c80       ?GetAt@CObList@@QBEPBVCObject@@PAU__POSITION@@@Z 0067bc80 f   uafxcwd:afxinl1.obj
 0002:00119ce0       ?SetAt@CObList@@QAEXPAU__POSITION@@PAVCObject@@@Z 0067bce0 f   uafxcwd:afxinl1.obj
 0002:00119d50       ?GetCount@CStringList@@QBEHXZ 0067bd50 f   uafxcwd:afxinl1.obj
 0002:00119d70       ?GetSize@CStringList@@QBEHXZ 0067bd70 f   uafxcwd:afxinl1.obj
 0002:00119d90       ?IsEmpty@CStringList@@QBEHXZ 0067bd90 f   uafxcwd:afxinl1.obj
 0002:00119dc0       ?GetHead@CStringList@@QAEAAV?$CStringT@_WV?$StrTraitMFC@_WV?$ChTraitsCRT@_W@ATL@@@@@ATL@@XZ 0067bdc0 f   uafxcwd:afxinl1.obj
 0002:00119e00       ?GetHead@CStringList@@QBEABV?$CStringT@_WV?$StrTraitMFC@_WV?$ChTraitsCRT@_W@ATL@@@@@ATL@@XZ 0067be00 f   uafxcwd:afxinl1.obj
 0002:00119e40       ?GetTail@CStringList@@QAEAAV?$CStringT@_WV?$StrTraitMFC@_WV?$ChTraitsCRT@_W@ATL@@@@@ATL@@XZ 0067be40 f   uafxcwd:afxinl1.obj
 0002:00119e80       ?GetTail@CStringList@@QBEABV?$CStringT@_WV?$StrTraitMFC@_WV?$ChTraitsCRT@_W@ATL@@@@@ATL@@XZ 0067be80 f   uafxcwd:afxinl1.obj
 0002:00119ec0       ?GetHeadPosition@CStringList@@QBEPAU__POSITION@@XZ 0067bec0 f   uafxcwd:afxinl1.obj
 0002:00119ee0       ?GetTailPosition@CStringList@@QBEPAU__POSITION@@XZ 0067bee0 f   uafxcwd:afxinl1.obj
 0002:00119f00       ?GetNext@CStringList@@QAEAAV?$CStringT@_WV?$StrTraitMFC@_WV?$ChTraitsCRT@_W@ATL@@@@@ATL@@AAPAU__POSITION@@@Z 0067bf00 f   uafxcwd:afxinl1.obj
 0002:00119f70       ?GetNext@CStringList@@QBEABV?$CStringT@_WV?$StrTraitMFC@_WV?$ChTraitsCRT@_W@ATL@@@@@ATL@@AAPAU__POSITION@@@Z 0067bf70 f   uafxcwd:afxinl1.obj
 0002:00119fe0       ?GetPrev@CStringList@@QAEAAV?$CStringT@_WV?$StrTraitMFC@_WV?$ChTraitsCRT@_W@ATL@@@@@ATL@@AAPAU__POSITION@@@Z 0067bfe0 f   uafxcwd:afxinl1.obj
 0002:0011a050       ?GetPrev@CStringList@@QBEABV?$CStringT@_WV?$StrTraitMFC@_WV?$ChTraitsCRT@_W@ATL@@@@@ATL@@AAPAU__POSITION@@@Z 0067c050 f   uafxcwd:afxinl1.obj
 0002:0011a0c0       ?GetAt@CStringList@@QAEAAV?$CStringT@_WV?$StrTraitMFC@_WV?$ChTraitsCRT@_W@ATL@@@@@ATL@@PAU__POSITION@@@Z 0067c0c0 f   uafxcwd:afxinl1.obj
 0002:0011a120       ?GetAt@CStringList@@QBEABV?$CStringT@_WV?$StrTraitMFC@_WV?$ChTraitsCRT@_W@ATL@@@@@ATL@@PAU__POSITION@@@Z 0067c120 f   uafxcwd:afxinl1.obj
 0002:0011a180       ?SetAt@CStringList@@QAEXPAU__POSITION@@PB_W@Z 0067c180 f   uafxcwd:afxinl1.obj
 0002:0011a1f0       ?SetAt@CStringList@@QAEXPAU__POSITION@@ABV?$CStringT@_WV?$StrTraitMFC@_WV?$ChTraitsCRT@_W@ATL@@@@@ATL@@@Z 0067c1f0 f   uafxcwd:afxinl1.obj
 0002:0011a260       ?GetCount@CMapWordToPtr@@QBEHXZ 0067c260 f   uafxcwd:afxinl1.obj
 0002:0011a280       ?GetSize@CMapWordToPtr@@QBEHXZ 0067c280 f   uafxcwd:afxinl1.obj
 0002:0011a2a0       ?IsEmpty@CMapWordToPtr@@QBEHXZ 0067c2a0 f   uafxcwd:afxinl1.obj
 0002:0011a2d0       ?SetAt@CMapWordToPtr@@QAEXGPAX@Z 0067c2d0 f   uafxcwd:afxinl1.obj
 0002:0011a300       ?GetStartPosition@CMapWordToPtr@@QBEPAU__POSITION@@XZ 0067c300 f   uafxcwd:afxinl1.obj
 0002:0011a320       ?GetHashTableSize@CMapWordToPtr@@QBEIXZ 0067c320 f   uafxcwd:afxinl1.obj
 0002:0011a340       ?GetCount@CMapPtrToWord@@QBEHXZ 0067c340 f   uafxcwd:afxinl1.obj
 0002:0011a360       ?GetSize@CMapPtrToWord@@QBEHXZ 0067c360 f   uafxcwd:afxinl1.obj
 0002:0011a380       ?IsEmpty@CMapPtrToWord@@QBEHXZ 0067c380 f   uafxcwd:afxinl1.obj
 0002:0011a3b0       ?SetAt@CMapPtrToWord@@QAEXPAXG@Z 0067c3b0 f   uafxcwd:afxinl1.obj
 0002:0011a3e0       ?GetStartPosition@CMapPtrToWord@@QBEPAU__POSITION@@XZ 0067c3e0 f   uafxcwd:afxinl1.obj
 0002:0011a400       ?GetHashTableSize@CMapPtrToWord@@QBEIXZ 0067c400 f   uafxcwd:afxinl1.obj
 0002:0011a420       ?GetCount@CMapPtrToPtr@@QBEHXZ 0067c420 f   uafxcwd:afxinl1.obj
 0002:0011a440       ?GetSize@CMapPtrToPtr@@QBEHXZ 0067c440 f   uafxcwd:afxinl1.obj
 0002:0011a460       ?IsEmpty@CMapPtrToPtr@@QBEHXZ 0067c460 f   uafxcwd:afxinl1.obj
 0002:0011a490       ?SetAt@CMapPtrToPtr@@QAEXPAX0@Z 0067c490 f   uafxcwd:afxinl1.obj
 0002:0011a4c0       ?GetStartPosition@CMapPtrToPtr@@QBEPAU__POSITION@@XZ 0067c4c0 f   uafxcwd:afxinl1.obj
 0002:0011a4e0       ?GetHashTableSize@CMapPtrToPtr@@QBEIXZ 0067c4e0 f   uafxcwd:afxinl1.obj
 0002:0011a500       ?GetCount@CMapWordToOb@@QBEHXZ 0067c500 f   uafxcwd:afxinl1.obj
 0002:0011a520       ?GetSize@CMapWordToOb@@QBEHXZ 0067c520 f   uafxcwd:afxinl1.obj
 0002:0011a540       ?IsEmpty@CMapWordToOb@@QBEHXZ 0067c540 f   uafxcwd:afxinl1.obj
 0002:0011a570       ?SetAt@CMapWordToOb@@QAEXGPAVCObject@@@Z 0067c570 f   uafxcwd:afxinl1.obj
 0002:0011a5a0       ?GetStartPosition@CMapWordToOb@@QBEPAU__POSITION@@XZ 0067c5a0 f   uafxcwd:afxinl1.obj
 0002:0011a5c0       ?GetHashTableSize@CMapWordToOb@@QBEIXZ 0067c5c0 f   uafxcwd:afxinl1.obj
 0002:0011a5e0       ?GetCount@CMapStringToPtr@@QBEHXZ 0067c5e0 f   uafxcwd:afxinl1.obj
 0002:0011a600       ?GetSize@CMapStringToPtr@@QBEHXZ 0067c600 f   uafxcwd:afxinl1.obj
 0002:0011a620       ?IsEmpty@CMapStringToPtr@@QBEHXZ 0067c620 f   uafxcwd:afxinl1.obj
 0002:0011a650       ?SetAt@CMapStringToPtr@@QAEXPB_WPAX@Z 0067c650 f   uafxcwd:afxinl1.obj
 0002:0011a680       ?GetStartPosition@CMapStringToPtr@@QBEPAU__POSITION@@XZ 0067c680 f   uafxcwd:afxinl1.obj
 0002:0011a6a0       ?GetHashTableSize@CMapStringToPtr@@QBEIXZ 0067c6a0 f   uafxcwd:afxinl1.obj
 0002:0011a6c0       ?GetCount@CMapStringToOb@@QBEHXZ 0067c6c0 f   uafxcwd:afxinl1.obj
 0002:0011a6e0       ?GetSize@CMapStringToOb@@QBEHXZ 0067c6e0 f   uafxcwd:afxinl1.obj
 0002:0011a700       ?IsEmpty@CMapStringToOb@@QBEHXZ 0067c700 f   uafxcwd:afxinl1.obj
 0002:0011a730       ?SetAt@CMapStringToOb@@QAEXPB_WPAVCObject@@@Z 0067c730 f   uafxcwd:afxinl1.obj
 0002:0011a760       ?GetStartPosition@CMapStringToOb@@QBEPAU__POSITION@@XZ 0067c760 f   uafxcwd:afxinl1.obj
 0002:0011a780       ?GetHashTableSize@CMapStringToOb@@QBEIXZ 0067c780 f   uafxcwd:afxinl1.obj
 0002:0011a7a0       ?GetCount@CMapStringToString@@QBEHXZ 0067c7a0 f   uafxcwd:afxinl1.obj
 0002:0011a7c0       ?GetSize@CMapStringToString@@QBEHXZ 0067c7c0 f   uafxcwd:afxinl1.obj
 0002:0011a7e0       ?IsEmpty@CMapStringToString@@QBEHXZ 0067c7e0 f   uafxcwd:afxinl1.obj
 0002:0011a810       ?SetAt@CMapStringToString@@QAEXPB_W0@Z 0067c810 f   uafxcwd:afxinl1.obj
 0002:0011a840       ?GetStartPosition@CMapStringToString@@QBEPAU__POSITION@@XZ 0067c840 f   uafxcwd:afxinl1.obj
 0002:0011a860       ?GetHashTableSize@CMapStringToString@@QBEIXZ 0067c860 f   uafxcwd:afxinl1.obj
 0002:0011a880       ??0CCommonDialog@@QAE@PAVCWnd@@@Z 0067c880 f   uafxcwd:afxinl1.obj
 0002:0011a8c0       ?GetReadOnlyPref@CFileDialog@@QBEHXZ 0067c8c0 f   uafxcwd:afxinl1.obj
 0002:0011a8f0       ?SetTemplate@CFileDialog@@QAEXII@Z 0067c8f0 f   uafxcwd:afxinl1.obj
 0002:0011a920       ?GetStartPosition@CFileDialog@@QBEPAU__POSITION@@XZ 0067c920 f   uafxcwd:afxinl1.obj
 0002:0011a940       ?GetFaceName@CFontDialog@@QBE?AV?$CStringT@_WV?$StrTraitMFC@_WV?$ChTraitsCRT@_W@ATL@@@@@ATL@@XZ 0067c940 f   uafxcwd:afxinl1.obj
 0002:0011a990       ?GetStyleName@CFontDialog@@QBE?AV?$CStringT@_WV?$StrTraitMFC@_WV?$ChTraitsCRT@_W@ATL@@@@@ATL@@XZ 0067c990 f   uafxcwd:afxinl1.obj
 0002:0011a9e0       ?GetSize@CFontDialog@@QBEHXZ 0067c9e0 f   uafxcwd:afxinl1.obj
 0002:0011aa00       ?GetWeight@CFontDialog@@QBEHXZ 0067ca00 f   uafxcwd:afxinl1.obj
 0002:0011aa20       ?IsItalic@CFontDialog@@QBEHXZ 0067ca20 f   uafxcwd:afxinl1.obj
 0002:0011aa50       ?IsStrikeOut@CFontDialog@@QBEHXZ 0067ca50 f   uafxcwd:afxinl1.obj
 0002:0011aa80       ?IsBold@CFontDialog@@QBEHXZ 0067ca80 f   uafxcwd:afxinl1.obj
 0002:0011aab0       ?IsUnderline@CFontDialog@@QBEHXZ 0067cab0 f   uafxcwd:afxinl1.obj
 0002:0011aae0       ?GetColor@CFontDialog@@QBEKXZ 0067cae0 f   uafxcwd:afxinl1.obj
 0002:0011ab00       ?GetColor@CColorDialog@@QBEKXZ 0067cb00 f   uafxcwd:afxinl1.obj
 0002:0011ab20       ?PrintSelection@CPrintDialog@@QBEHXZ 0067cb20 f   uafxcwd:afxinl1.obj
 0002:0011ab50       ?PrintRange@CPrintDialog@@QBEHXZ 0067cb50 f   uafxcwd:afxinl1.obj
 0002:0011ab80       ?PrintAll@CPrintDialog@@QBEHXZ 0067cb80 f   uafxcwd:afxinl1.obj
 0002:0011abd0       ?PrintCollate@CPrintDialog@@QBEHXZ 0067cbd0 f   uafxcwd:afxinl1.obj
 0002:0011ac00       ?GetFromPage@CPrintDialog@@QBEHXZ 0067cc00 f   uafxcwd:afxinl1.obj
 0002:0011ac50       ?GetToPage@CPrintDialog@@QBEHXZ 0067cc50 f   uafxcwd:afxinl1.obj
 0002:0011aca0       ?GetPrinterDC@CPrintDialog@@QBEPAUHDC__@@XZ 0067cca0 f   uafxcwd:afxinl1.obj
 0002:0011ad00       ?PrintSelection@CPrintDialogEx@@QBEHXZ 0067cd00 f   uafxcwd:afxinl1.obj
 0002:0011ad30       ?PrintRange@CPrintDialogEx@@QBEHXZ 0067cd30 f   uafxcwd:afxinl1.obj
 0002:0011ad60       ?PrintCurrentPage@CPrintDialogEx@@QBEHXZ 0067cd60 f   uafxcwd:afxinl1.obj
 0002:0011ad90       ?PrintAll@CPrintDialogEx@@QBEHXZ 0067cd90 f   uafxcwd:afxinl1.obj
 0002:0011adf0       ?PrintCollate@CPrintDialogEx@@QBEHXZ 0067cdf0 f   uafxcwd:afxinl1.obj
 0002:0011ae20       ?GetPrinterDC@CPrintDialogEx@@QBEPAUHDC__@@XZ 0067ce20 f   uafxcwd:afxinl1.obj
 0002:0011ae80       ?IsTerminating@CFindReplaceDialog@@QBEHXZ 0067ce80 f   uafxcwd:afxinl1.obj
 0002:0011aeb0       ?GetReplaceString@CFindReplaceDialog@@QBE?AV?$CStringT@_WV?$StrTraitMFC@_WV?$ChTraitsCRT@_W@ATL@@@@@ATL@@XZ 0067ceb0 f   uafxcwd:afxinl1.obj
 0002:0011af00       ?GetFindString@CFindReplaceDialog@@QBE?AV?$CStringT@_WV?$StrTraitMFC@_WV?$ChTraitsCRT@_W@ATL@@@@@ATL@@XZ 0067cf00 f   uafxcwd:afxinl1.obj
 0002:0011af50       ?SearchDown@CFindReplaceDialog@@QBEHXZ 0067cf50 f   uafxcwd:afxinl1.obj
 0002:0011af80       ?FindNext@CFindReplaceDialog@@QBEHXZ 0067cf80 f   uafxcwd:afxinl1.obj
 0002:0011afb0       ?MatchCase@CFindReplaceDialog@@QBEHXZ 0067cfb0 f   uafxcwd:afxinl1.obj
 0002:0011afe0       ?MatchWholeWord@CFindReplaceDialog@@QBEHXZ 0067cfe0 f   uafxcwd:afxinl1.obj
 0002:0011b010       ?ReplaceCurrent@CFindReplaceDialog@@QBEHXZ 0067d010 f   uafxcwd:afxinl1.obj
 0002:0011b040       ?ReplaceAll@CFindReplaceDialog@@QBEHXZ 0067d040 f   uafxcwd:afxinl1.obj
 0002:0011b070       ?MapDialogRect@CPropertySheet@@QBEXPAUtagRECT@@@Z 0067d070 f   uafxcwd:afxinl1.obj
 0002:0011b0d0       ?GetPage@CPropertySheet@@QBEPAVCPropertyPage@@H@Z 0067d0d0 f   uafxcwd:afxinl1.obj
 0002:0011b160       ?SetWizardMode@CPropertySheet@@QAEXXZ 0067d160 f   uafxcwd:afxinl1.obj
 0002:0011b190       ?SetFinishText@CPropertySheet@@QAEXPB_W@Z 0067d190 f   uafxcwd:afxinl1.obj
 0002:0011b1f0       ?SetWizardButtons@CPropertySheet@@QAEXK@Z 0067d1f0 f   uafxcwd:afxinl1.obj
 0002:0011b250       ?GetTabControl@CPropertySheet@@QBEPAVCTabCtrl@@XZ 0067d250 f   uafxcwd:afxinl1.obj
 0002:0011b2b0       ?PressButton@CPropertySheet@@QAEXH@Z 0067d2b0 f   uafxcwd:afxinl1.obj
 0002:0011b330       ?IsWizard@CPropertySheet@@QBEHXZ 0067d330 f   uafxcwd:afxinl1.obj
 0002:0011b360       ?IsModeless@CPropertySheet@@QBEHXZ 0067d360 f   uafxcwd:afxinl1.obj
 0002:0011b380       ?GetPaperSize@CPageSetupDialog@@QBE?AVCSize@@XZ 0067d380 f   uafxcwd:afxinl1.obj
 0002:0011b3c0       ??0CCreateContext@@QAE@XZ  0067d3c0 f   uafxcwd:afxinl1.obj
 0002:0011b3f0       ?Create@CMetaFileDC@@QAEHPB_W@Z 0067d3f0 f   uafxcwd:afxinl1.obj
 0002:0011b420       ?Close@CMetaFileDC@@QAEPAUHMETAFILE__@@XZ 0067d420 f   uafxcwd:afxinl1.obj
 0002:0011b450       ?CreateEnhanced@CMetaFileDC@@QAEHPAVCDC@@PB_WPBUtagRECT@@1@Z 0067d450 f   uafxcwd:afxinl1.obj
 0002:0011b490       ?CloseEnhanced@CMetaFileDC@@QAEPAUHENHMETAFILE__@@XZ 0067d490 f   uafxcwd:afxinl1.obj
 0002:0011b4c0       ?SetViewportOrg@CMetaFileDC@@QAE?AVCPoint@@UtagPOINT@@@Z 0067d4c0 f   uafxcwd:afxinl1.obj
 0002:0011b520       ?SetViewportExt@CMetaFileDC@@QAE?AVCSize@@UtagSIZE@@@Z 0067d520 f   uafxcwd:afxinl1.obj
 0002:0011b580       ?TextOutW@CMetaFileDC@@QAEHHHABV?$CStringT@_WV?$StrTraitMFC@_WV?$ChTraitsCRT@_W@ATL@@@@@ATL@@@Z 0067d580 f   uafxcwd:afxinl1.obj
 0002:0011b5f0       ?ExtTextOutW@CMetaFileDC@@QAEHHHIPBUtagRECT@@ABV?$CStringT@_WV?$StrTraitMFC@_WV?$ChTraitsCRT@_W@ATL@@@@@ATL@@PAH@Z 0067d5f0 f   uafxcwd:afxinl1.obj
 0002:0011b670       ?TabbedTextOutW@CMetaFileDC@@QAE?AVCSize@@HHABV?$CStringT@_WV?$StrTraitMFC@_WV?$ChTraitsCRT@_W@ATL@@@@@ATL@@HPAHH@Z 0067d670 f   uafxcwd:afxinl1.obj
 0002:0011b700       ?DrawTextW@CMetaFileDC@@QAEHABV?$CStringT@_WV?$StrTraitMFC@_WV?$ChTraitsCRT@_W@ATL@@@@@ATL@@PAUtagRECT@@I@Z 0067d700 f   uafxcwd:afxinl1.obj
 0002:0011b770       ?DrawTextExW@CMetaFileDC@@QAEHABV?$CStringT@_WV?$StrTraitMFC@_WV?$ChTraitsCRT@_W@ATL@@@@@ATL@@PAUtagRECT@@IPAUtagDRAWTEXTPARAMS@@@Z 0067d770 f   uafxcwd:afxinl1.obj
 0002:0011b7e0       ?DrawText@CMetaFileDC@@QAEHPB_WHPAUtagRECT@@I@Z 0067d7e0 f   uafxcwd:afxinl1.obj
 0002:0011b820       ?DrawText@CMetaFileDC@@QAEHABV?$CStringT@_WV?$StrTraitMFC@_WV?$ChTraitsCRT@_W@ATL@@@@@ATL@@PAUtagRECT@@I@Z 0067d820 f   uafxcwd:afxinl1.obj
 0002:0011b850       ?DrawTextEx@CMetaFileDC@@QAEHPA_WHPAUtagRECT@@IPAUtagDRAWTEXTPARAMS@@@Z 0067d850 f   uafxcwd:afxinl1.obj
 0002:0011b890       ?DrawTextEx@CMetaFileDC@@QAEHABV?$CStringT@_WV?$StrTraitMFC@_WV?$ChTraitsCRT@_W@ATL@@@@@ATL@@PAUtagRECT@@IPAUtagDRAWTEXTPARAMS@@@Z 0067d890 f   uafxcwd:afxinl1.obj
 0002:0011b8c0       ?PtVisible@CMetaFileDC@@QBEHUtagPOINT@@@Z 0067d8c0 f   uafxcwd:afxinl1.obj
 0002:0011b910       ?GetRowCount@CSplitterWnd@@QBEHXZ 0067d910 f   uafxcwd:afxinl1.obj
 0002:0011b930       ?GetColumnCount@CSplitterWnd@@QBEHXZ 0067d930 f   uafxcwd:afxinl1.obj
 0002:0011b950       ?IsChildPane@CSplitterWnd@@QAEHPAVCWnd@@AAH1@Z 0067d950 f   uafxcwd:afxinl1.obj
 0002:0011b980       ?GetActivePane@CSplitterWnd@@IAEPAVCWnd@@AAH0@Z 0067d980 f   uafxcwd:afxinl1.obj
 0002:0011b9b0       ?IsTracking@CSplitterWnd@@QAEHXZ 0067d9b0 f   uafxcwd:afxinl1.obj
 0002:0011b9d0       ?GetCount@CControlBar@@QBEHXZ 0067d9d0 f   uafxcwd:afxinl1.obj
 0002:0011b9f0       ?GetBarStyle@CControlBar@@QAEKXZ 0067d9f0 f   uafxcwd:afxinl1.obj
 0002:0011ba10       ?SetBorders@CControlBar@@QAEXPBUtagRECT@@@Z 0067da10 f   uafxcwd:afxinl1.obj
 0002:0011ba50       ?GetBorders@CControlBar@@QBE?AVCRect@@XZ 0067da50 f   uafxcwd:afxinl1.obj
 0002:0011baa0       ?LoadToolBar@CToolBar@@QAEHI@Z 0067daa0 f   uafxcwd:afxinl1.obj
 0002:0011bad0       ?LoadBitmapW@CToolBar@@QAEHI@Z 0067dad0 f   uafxcwd:afxinl1.obj
 0002:0011bb00       ?GetToolBarCtrl@CToolBar@@QBEAAVCToolBarCtrl@@XZ 0067db00 f   uafxcwd:afxinl1.obj
 0002:0011bb20       ?Create@CDialogBar@@UAEHPAVCWnd@@III@Z 0067db20 f   uafxcwd:afxinl1.obj
 0002:0011bb60       ?GetStatusBarCtrl@CStatusBar@@QBEAAVCStatusBarCtrl@@XZ 0067db60 f   uafxcwd:afxinl1.obj
 0002:0011bb80       ?SetBorders@CStatusBar@@QAEXPBUtagRECT@@@Z 0067db80 f   uafxcwd:afxinl1.obj
 0002:0011bbc0       ?SetBorders@CStatusBar@@QAEXHHHH@Z 0067dbc0 f   uafxcwd:afxinl1.obj
 0002:0011bc10       ?EnableDocking@CStatusBar@@QAEXK@Z 0067dc10 f   uafxcwd:afxinl1.obj
 0002:0011bc40       ?GetReBarCtrl@CReBar@@QBEAAVCReBarCtrl@@XZ 0067dc40 f   uafxcwd:afxinl1.obj
 0002:0011bc60       ?GetReBarBandInfoSize@CReBar@@QBEIXZ 0067dc60 f   uafxcwd:afxinl1.obj
 0002:0011bc80       ?EnableDocking@CReBar@@QAEXK@Z 0067dc80 f   uafxcwd:afxinl1.obj
 0002:0011bcb0       ??0CRectTracker@@QAE@XZ    0067dcb0 f   uafxcwd:afxinl1.obj
 0002:0011bd10       ??_GCRectTracker@@UAEPAXI@Z 0067dd10 f i uafxcwd:afxinl1.obj
 0002:0011bd10       ??_ECRectTracker@@UAEPAXI@Z 0067dd10 f i uafxcwd:afxinl1.obj
 0002:0011bd50       ??0CBitmapButton@@QAE@XZ   0067dd50 f   uafxcwd:afxinl1.obj
 0002:0011be10       ??_GCBitmapButton@@UAEPAXI@Z 0067de10 f i uafxcwd:afxinl1.obj
 0002:0011be10       ??_ECBitmapButton@@UAEPAXI@Z 0067de10 f i uafxcwd:afxinl1.obj
 0002:0011be50       ??1CBitmapButton@@UAE@XZ   0067de50 f i uafxcwd:afxinl1.obj
 0002:0011bf00       ?LoadBitmaps@CBitmapButton@@QAEHIIII@Z 0067df00 f   uafxcwd:afxinl1.obj
 0002:0011bf40       ?SetMinPage@CPrintInfo@@QAEXI@Z 0067df40 f   uafxcwd:afxinl1.obj
 0002:0011bf70       ?SetMaxPage@CPrintInfo@@QAEXI@Z 0067df70 f   uafxcwd:afxinl1.obj
 0002:0011bfa0       ?GetMinPage@CPrintInfo@@QBEIXZ 0067dfa0 f   uafxcwd:afxinl1.obj
 0002:0011bfc0       ?GetMaxPage@CPrintInfo@@QBEIXZ 0067dfc0 f   uafxcwd:afxinl1.obj
 0002:0011bfe0       ?GetFromPage@CPrintInfo@@QBEIXZ 0067dfe0 f   uafxcwd:afxinl1.obj
 0002:0011c000       ?GetToPage@CPrintInfo@@QBEIXZ 0067e000 f   uafxcwd:afxinl1.obj
 0002:0011c020       ?GetEditCtrl@CEditView@@QBEAAVCEdit@@XZ 0067e020 f   uafxcwd:afxinl1.obj
 0002:0011c040       _IsPlatformNT              0067e040 f   uafxcwd:wincore.obj
 0002:0011c0c0       _InitMultipleMonitorStubs  0067e0c0 f   uafxcwd:wincore.obj
 0002:0011c2e0       _xGetSystemMetrics@4       0067e2e0 f   uafxcwd:wincore.obj
 0002:0011c380       _xMonitorFromPoint@12      0067e380 f   uafxcwd:wincore.obj
 0002:0011c400       _xMonitorFromRect@8        0067e400 f   uafxcwd:wincore.obj
 0002:0011c480       _xMonitorFromWindow@8      0067e480 f   uafxcwd:wincore.obj
 0002:0011c520       _xGetMonitorInfo@8         0067e520 f   uafxcwd:wincore.obj
 0002:0011c690       _xEnumDisplayMonitors@16   0067e690 f   uafxcwd:wincore.obj
 0002:0011c810       _xEnumDisplayDevices@16    0067e810 f   uafxcwd:wincore.obj
 0002:0011c8e0       ??0CWnd@@QAE@XZ            0067e8e0 f   uafxcwd:wincore.obj
 0002:0011c9b0       ??_GCWnd@@UAEPAXI@Z        0067e9b0 f i uafxcwd:wincore.obj
 0002:0011c9b0       ??_ECWnd@@UAEPAXI@Z        0067e9b0 f i uafxcwd:wincore.obj
 0002:0011c9f0       ??0XAccessible@CWnd@@QAE@XZ 0067e9f0 f i uafxcwd:wincore.obj
 0002:0011ca10       ??0XAccessibleServer@CWnd@@QAE@XZ 0067ea10 f i uafxcwd:wincore.obj
 0002:0011ca30       ??0CWnd@@AAE@PAUHWND__@@@Z 0067ea30 f   uafxcwd:wincore.obj
 0002:0011caf0       ?_AfxModifyStyle@@YGHPAUHWND__@@HKKI@Z 0067eaf0 f   uafxcwd:wincore.obj
 0002:0011cba0       ?ModifyStyle@CWnd@@SGHPAUHWND__@@KKI@Z 0067eba0 f   uafxcwd:wincore.obj
 0002:0011cbd0       ?ModifyStyleEx@CWnd@@SGHPAUHWND__@@KKI@Z 0067ebd0 f   uafxcwd:wincore.obj
 0002:0011cc00       ?_AfxPreInitDialog@@YGXPAVCWnd@@PAUtagRECT@@PAK@Z 0067ec00 f   uafxcwd:wincore.obj
 0002:0011cc70       ?_AfxPostInitDialog@@YGXPAVCWnd@@ABUtagRECT@@K@Z 0067ec70 f   uafxcwd:wincore.obj
 0002:0011cd40       ?_AfxHandleActivate@@YGXPAVCWnd@@I0@Z 0067ed40 f   uafxcwd:wincore.obj
 0002:0011ce00       ?_AfxHandleSetCursor@@YGHPAVCWnd@@II@Z 0067ee00 f   uafxcwd:wincore.obj
 0002:0011cea0       ?AfxCallWndProc@@YGJPAVCWnd@@PAUHWND__@@IIJ@Z 0067eea0 f   uafxcwd:wincore.obj
 0002:0011d0f0       ?GetCurrentMessage@CWnd@@KGPBUtagMSG@@XZ 0067f0f0 f   uafxcwd:wincore.obj
 0002:0011d150       ?Default@CWnd@@IAEJXZ      0067f150 f   uafxcwd:wincore.obj
 0002:0011d1b0       ?afxMapHWND@@YGPAVCHandleMap@@H@Z 0067f1b0 f   uafxcwd:wincore.obj
 0002:0011d2d0       ?FromHandle@CWnd@@SGPAV1@PAUHWND__@@@Z 0067f2d0 f   uafxcwd:wincore.obj
 0002:0011d370       ?FromHandlePermanent@CWnd@@SGPAV1@PAUHWND__@@@Z 0067f370 f   uafxcwd:wincore.obj
 0002:0011d3f0       ?Attach@CWnd@@QAEHPAUHWND__@@@Z 0067f3f0 f   uafxcwd:wincore.obj
 0002:0011d4c0       ?Detach@CWnd@@QAEPAUHWND__@@XZ 0067f4c0 f   uafxcwd:wincore.obj
 0002:0011d530       ?PreSubclassWindow@CWnd@@UAEXXZ 0067f530 f   uafxcwd:wincore.obj
 0002:0011d540       ?GetMenu@CWnd@@UBEPAVCMenu@@XZ 0067f540 f   uafxcwd:wincore.obj
 0002:0011d5a0       ?SetMenu@CWnd@@UAEHPAVCMenu@@@Z 0067f5a0 f   uafxcwd:wincore.obj
 0002:0011d600       ?AfxWndProc@@YGJPAUHWND__@@IIJ@Z 0067f600 f   uafxcwd:wincore.obj
 0002:0011d6e0       ?AfxGetAfxWndProc@@YGP6GJPAUHWND__@@IIJ@ZXZ 0067f6e0 f   uafxcwd:wincore.obj
 0002:0011d6f0       ?_AfxActivationWndProc@@YGJPAUHWND__@@IIJ@Z 0067f6f0 f   uafxcwd:wincore.obj
 0002:0011da40       ?_AfxCbtFilterHook@@YGJHIJ@Z 0067fa40 f   uafxcwd:wincore.obj
 0002:0011df50       ?AfxHookWindowCreate@@YGXPAVCWnd@@@Z 0067ff50 f   uafxcwd:wincore.obj
 0002:0011e060       ?AfxUnhookWindowCreate@@YGHXZ 00680060 f   uafxcwd:wincore.obj
 0002:0011e0e0       ?CreateEx@CWnd@@UAEHKPB_W0KABUtagRECT@@PAV1@IPAX@Z 006800e0 f   uafxcwd:wincore.obj
 0002:0011e160       ?CreateEx@CWnd@@UAEHKPB_W0KHHHHPAUHWND__@@PAUHMENU__@@PAX@Z 00680160 f   uafxcwd:wincore.obj
 0002:0011e3b0       ?PreCreateWindow@CWnd@@UAEHAAUtagCREATESTRUCTW@@@Z 006803b0 f   uafxcwd:wincore.obj
 0002:0011e430       ?Create@CWnd@@UAEHPB_W0KABUtagRECT@@PAV1@IPAUCCreateContext@@@Z 00680430 f   uafxcwd:wincore.obj
 0002:0011e500       ??1CWnd@@UAE@XZ            00680500 f   uafxcwd:wincore.obj
 0002:0011e660       ?OnDestroy@CWnd@@IAEXXZ    00680660 f   uafxcwd:wincore.obj
 0002:0011e720       ?OnNcDestroy@CWnd@@IAEXXZ  00680720 f   uafxcwd:wincore.obj
 0002:0011e960       ?PostNcDestroy@CWnd@@MAEXXZ 00680960 f   uafxcwd:wincore.obj
 0002:0011e970       ?OnFinalRelease@CWnd@@UAEXXZ 00680970 f   uafxcwd:wincore.obj
 0002:0011e9c0       ?AssertValid@CWnd@@UBEXXZ  006809c0 f   uafxcwd:wincore.obj
 0002:0011eb70       ?Dump@CWnd@@UBEXAAVCDumpContext@@@Z 00680b70 f   uafxcwd:wincore.obj
 0002:0011ee90       ?DestroyWindow@CWnd@@UAEHXZ 00680e90 f   uafxcwd:wincore.obj
 0002:0011f030       ?DefWindowProcW@CWnd@@MAEJIIJ@Z 00681030 f   uafxcwd:wincore.obj
 0002:0011f0f0       ?GetSuperWndProcAddr@CWnd@@MAEPAP6GJPAUHWND__@@IIJ@ZXZ 006810f0 f   uafxcwd:wincore.obj
 0002:0011f110       ?PreTranslateMessage@CWnd@@UAEHPAUtagMSG@@@Z 00681110 f   uafxcwd:wincore.obj
 0002:0011f160       ?CancelToolTips@CWnd@@SGXH@Z 00681160 f   uafxcwd:wincore.obj
 0002:0011f1f0       ?OnToolHitTest@CWnd@@UBEHVCPoint@@PAUtagTOOLINFOW@@@Z 006811f0 f   uafxcwd:wincore.obj
 0002:0011f2e0       ?GetWindowTextW@CWnd@@QBEXAAV?$CStringT@_WV?$StrTraitMFC@_WV?$ChTraitsCRT@_W@ATL@@@@@ATL@@@Z 006812e0 f   uafxcwd:wincore.obj
 0002:0011f3a0       ?GetDlgItemTextW@CWnd@@QBEHHAAV?$CStringT@_WV?$StrTraitMFC@_WV?$ChTraitsCRT@_W@ATL@@@@@ATL@@@Z 006813a0 f   uafxcwd:wincore.obj
 0002:0011f4a0       ?GetWindowPlacement@CWnd@@QBEHPAUtagWINDOWPLACEMENT@@@Z 006814a0 f   uafxcwd:wincore.obj
 0002:0011f510       ?SetWindowPlacement@CWnd@@QAEHPBUtagWINDOWPLACEMENT@@@Z 00681510 f   uafxcwd:wincore.obj
 0002:0011f580       ?OnDrawItem@CWnd@@IAEXHPAUtagDRAWITEMSTRUCT@@@Z 00681580 f   uafxcwd:wincore.obj
 0002:0011f600       ?OnCompareItem@CWnd@@IAEHHPAUtagCOMPAREITEMSTRUCT@@@Z 00681600 f   uafxcwd:wincore.obj
 0002:0011f640       ?OnDeleteItem@CWnd@@IAEXHPAUtagDELETEITEMSTRUCT@@@Z 00681640 f   uafxcwd:wincore.obj
 0002:0011f680       ?OnCharToItem@CWnd@@IAEHIPAVCListBox@@I@Z 00681680 f   uafxcwd:wincore.obj
 0002:0011f6d0       ?OnVKeyToItem@CWnd@@IAEHIPAVCListBox@@I@Z 006816d0 f   uafxcwd:wincore.obj
 0002:0011f720       ?TrackPopupMenu@CMenu@@QAEHIHHPAVCWnd@@PBUtagRECT@@@Z 00681720 f   uafxcwd:wincore.obj
 0002:0011f7f0       ?TrackPopupMenuEx@CMenu@@QAEHIHHPAVCWnd@@PAUtagTPMPARAMS@@@Z 006817f0 f   uafxcwd:wincore.obj
 0002:0011f8c0       ?_AfxFindPopupMenuFromID@@YGPAVCMenu@@PAV1@I@Z 006818c0 f   uafxcwd:wincore.obj
 0002:0011f9d0       ?OnMeasureItem@CWnd@@IAEXHPAUtagMEASUREITEMSTRUCT@@@Z 006819d0 f   uafxcwd:wincore.obj
 0002:0011fb70       ?AfxRegisterClass@@YGHPAUtagWNDCLASSW@@@Z 00681b70 f   uafxcwd:wincore.obj
 0002:0011fd30       ?AfxRegisterWndClass@@YGPB_WIPAUHICON__@@PAUHBRUSH__@@0@Z 00681d30 f   uafxcwd:wincore.obj
 0002:0011ff20       ?AtlCrtErrorCheck@ATL@@YAHH@Z 00681f20 f i uafxcwd:wincore.obj
 0002:00120000       ?OnNTCtlColor@CWnd@@IAEJIJ@Z 00682000 f   uafxcwd:wincore.obj
 0002:00120090       ?WinHelpW@CWnd@@UAEXKI@Z   00682090 f   uafxcwd:wincore.obj
 0002:00120210       ?HtmlHelpW@CWnd@@UAEXKI@Z  00682210 f   uafxcwd:wincore.obj
 0002:00120390       ?PrepareForHelp@CWnd@@QAEXXZ 00682390 f   uafxcwd:wincore.obj
 0002:00120460       ??1_AFX_HTMLHELP_STATE@@UAE@XZ 00682460 f   uafxcwd:wincore.obj
 0002:001204b0       ??1CNoTrackObject@@UAE@XZ  006824b0 f i uafxcwd:wincore.obj
 0002:001204d0       ??_GCNoTrackObject@@UAEPAXI@Z 006824d0 f i uafxcwd:wincore.obj
 0002:001204d0       ??_ECNoTrackObject@@UAEPAXI@Z 006824d0 f i uafxcwd:wincore.obj
 0002:00120510       ??_G_AFX_HTMLHELP_STATE@@UAEPAXI@Z 00682510 f i uafxcwd:wincore.obj
 0002:00120510       ??_E_AFX_HTMLHELP_STATE@@UAEPAXI@Z 00682510 f i uafxcwd:wincore.obj
 0002:00120550       ?AfxHtmlHelp@@YGPAUHWND__@@PAU1@PB_WIK@Z 00682550 f   uafxcwd:wincore.obj
 0002:00120650       ?WinHelpInternal@CWnd@@UAEXKI@Z 00682650 f   uafxcwd:wincore.obj
 0002:00120740       ?GetMessageMap@CWnd@@MBEPBUAFX_MSGMAP@@XZ 00682740 f   uafxcwd:wincore.obj
 0002:00120760       ?GetThisMessageMap@CWnd@@KGPBUAFX_MSGMAP@@XZ 00682760 f   uafxcwd:wincore.obj
 0002:00120770       ?AfxFindMessageEntry@@YGPBUAFX_MSGMAP_ENTRY@@PBU1@III@Z 00682770 f   uafxcwd:wincore.obj
 0002:001207d0       ?AfxResetMsgCache@@YGXXZ   006827d0 f   uafxcwd:wincore.obj
 0002:00120800       ?WindowProc@CWnd@@MAEJIIJ@Z 00682800 f   uafxcwd:wincore.obj
 0002:00120880       ?OnWndMsg@CWnd@@MAEHIIJPAJ@Z 00682880 f   uafxcwd:wincore.obj
 0002:00121f30       ??0CTestCmdUI@@QAE@XZ      00683f30 f   uafxcwd:wincore.obj
 0002:00121f70       ?Enable@CTestCmdUI@@UAEXH@Z 00683f70 f   uafxcwd:wincore.obj
 0002:00121fa0       ?SetCheck@CTestCmdUI@@UAEXH@Z 00683fa0 f   uafxcwd:wincore.obj
 0002:00121fc0       ?SetRadio@CTestCmdUI@@UAEXH@Z 00683fc0 f   uafxcwd:wincore.obj
 0002:00121fe0       ?SetText@CTestCmdUI@@UAEXPB_W@Z 00683fe0 f   uafxcwd:wincore.obj
 0002:00122000       ?OnCommand@CWnd@@MAEHIJ@Z  00684000 f   uafxcwd:wincore.obj
 0002:001221e0       ?OnNotify@CWnd@@MAEHIJPAJ@Z 006841e0 f   uafxcwd:wincore.obj
 0002:00122320       ?GetParentFrame@CWnd@@QBEPAVCFrameWnd@@XZ 00684320 f   uafxcwd:wincore.obj
 0002:001223b0       ?AfxGetParentOwner@@YGPAUHWND__@@PAU1@@Z 006843b0 f   uafxcwd:wincore.obj
 0002:00122430       ?GetTopLevelParent@CWnd@@QBEPAV1@XZ 00684430 f   uafxcwd:wincore.obj
 0002:001224b0       ?GetTopLevelOwner@CWnd@@QBEPAV1@XZ 006844b0 f   uafxcwd:wincore.obj
 0002:00122530       ?GetParentOwner@CWnd@@QBEPAV1@XZ 00684530 f   uafxcwd:wincore.obj
 0002:001225c0       ?IsTopParentActive@CWnd@@QBEHXZ 006845c0 f   uafxcwd:wincore.obj
 0002:00122640       ?ActivateTopParent@CWnd@@QAEXXZ 00684640 f   uafxcwd:wincore.obj
 0002:001226b0       ?GetTopLevelFrame@CWnd@@QBEPAVCFrameWnd@@XZ 006846b0 f   uafxcwd:wincore.obj
 0002:00122750       ?GetSafeOwner@CWnd@@SGPAV1@PAV1@PAPAUHWND__@@@Z 00684750 f   uafxcwd:wincore.obj
 0002:00122790       ?MessageBoxW@CWnd@@QAEHPB_W0I@Z 00684790 f   uafxcwd:wincore.obj
 0002:001227f0       ?GetDescendantWindow@CWnd@@SGPAV1@PAUHWND__@@HH@Z 006847f0 f   uafxcwd:wincore.obj
 0002:001228f0       ?SendMessageToDescendants@CWnd@@SGXPAUHWND__@@IIJHH@Z 006848f0 f   uafxcwd:wincore.obj
 0002:001229e0       ?GetScrollBarCtrl@CWnd@@UBEPAVCScrollBar@@H@Z 006849e0 f   uafxcwd:wincore.obj
 0002:00122a00       ?SetScrollPos@CWnd@@QAEHHHH@Z 00684a00 f   uafxcwd:wincore.obj
 0002:00122a80       ?GetScrollPos@CWnd@@QBEHH@Z 00684a80 f   uafxcwd:wincore.obj
 0002:00122ae0       ?SetScrollRange@CWnd@@QAEXHHHH@Z 00684ae0 f   uafxcwd:wincore.obj
 0002:00122b60       ?GetScrollRange@CWnd@@QBEXHPAH0@Z 00684b60 f   uafxcwd:wincore.obj
 0002:00122bd0       ?EnableScrollBarCtrl@CWnd@@QAEXHH@Z 00684bd0 f   uafxcwd:wincore.obj
 0002:00122c60       ?SetScrollInfo@CWnd@@QAEHHPAUtagSCROLLINFO@@H@Z 00684c60 f   uafxcwd:wincore.obj
 0002:00122d10       ?GetScrollInfo@CWnd@@QAEHHPAUtagSCROLLINFO@@I@Z 00684d10 f   uafxcwd:wincore.obj
 0002:00122dc0       ?GetScrollLimit@CWnd@@QAEHH@Z 00684dc0 f   uafxcwd:wincore.obj
 0002:00122e40       ?ScrollWindow@CWnd@@QAEXHHPBUtagRECT@@0@Z 00684e40 f   uafxcwd:wincore.obj
 0002:00122fa0       ?RepositionBars@CWnd@@QAEXIIIIPAUtagRECT@@PBU2@H@Z 00684fa0 f   uafxcwd:wincore.obj
 0002:001232c0       ?AfxRepositionWindow@@YGXPAUAFX_SIZEPARENTPARAMS@@PAUHWND__@@PBUtagRECT@@@Z 006852c0 f   uafxcwd:wincore.obj
 0002:00123470       ?CalcWindowRect@CWnd@@UAEXPAUtagRECT@@I@Z 00685470 f   uafxcwd:wincore.obj
 0002:001234d0       ?HandleFloatingSysCommand@CWnd@@QAEHIJ@Z 006854d0 f   uafxcwd:wincore.obj
 0002:00123720       ?WalkPreTranslateTree@CWnd@@SGHPAUHWND__@@PAUtagMSG@@@Z 00685720 f   uafxcwd:wincore.obj
 0002:00123800       ?SendChildNotifyLastMsg@CWnd@@QAEHPAJ@Z 00685800 f   uafxcwd:wincore.obj
 0002:00123860       ?ReflectLastMsg@CWnd@@KGHPAUHWND__@@PAJ@Z 00685860 f   uafxcwd:wincore.obj
 0002:00123a00       ?OnChildNotify@CWnd@@MAEHIIJPAJ@Z 00685a00 f   uafxcwd:wincore.obj
 0002:00123aa0       ?ReflectChildNotify@CWnd@@IAEHIIJPAJ@Z 00685aa0 f   uafxcwd:wincore.obj
 0002:00123ce0       ?OnParentNotify@CWnd@@IAEXIJ@Z 00685ce0 f   uafxcwd:wincore.obj
 0002:00123d40       ?OnSetFocus@CWnd@@IAEXPAV1@@Z 00685d40 f   uafxcwd:wincore.obj
 0002:00123da0       ?OnActivateTopLevel@CWnd@@IAEJIJ@Z 00685da0 f   uafxcwd:wincore.obj
 0002:00123e00       ?OnSysColorChange@CWnd@@IAEXXZ 00685e00 f   uafxcwd:wincore.obj
 0002:00123e80       ?OnSettingChange@CWnd@@IAEXIPB_W@Z 00685e80 f   uafxcwd:wincore.obj
 0002:00123ee0       ?OnDevModeChange@CWnd@@IAEXPA_W@Z 00685ee0 f   uafxcwd:wincore.obj
 0002:00123f70       ?OnHelpInfo@CWnd@@IAEHPAUtagHELPINFO@@@Z 00685f70 f   uafxcwd:wincore.obj
 0002:00124020       ?OnDisplayChange@CWnd@@IAEJIJ@Z 00686020 f   uafxcwd:wincore.obj
 0002:001240a0       ?OnDragList@CWnd@@IAEJIJ@Z 006860a0 f   uafxcwd:wincore.obj
 0002:00124110       ?OnGetObject@CWnd@@IAEJIJ@Z 00686110 f   uafxcwd:wincore.obj
 0002:00124190       ?GetInterfaceMap@CWnd@@MBEPBUAFX_INTERFACEMAP@@XZ 00686190 f   uafxcwd:wincore.obj
 0002:001241b0       ?AddRef@XAccessible@CWnd@@UAGKXZ 006861b0 f   uafxcwd:wincore.obj
 0002:00124250       ?Release@XAccessible@CWnd@@UAGKXZ 00686250 f   uafxcwd:wincore.obj
 0002:001242f0       ?QueryInterface@XAccessible@CWnd@@UAGJABU_GUID@@PAPAX@Z 006862f0 f   uafxcwd:wincore.obj
 0002:001243a0       ?Invoke@XAccessible@CWnd@@UAGJJABU_GUID@@KGPAUtagDISPPARAMS@@PAUtagVARIANT@@PAUtagEXCEPINFO@@PAI@Z 006863a0 f   uafxcwd:wincore.obj
 0002:00124470       ?AtlIAccessibleInvokeHelper@ATL@@YGJPAUIAccessible@@JABU_GUID@@KGPAUtagDISPPARAMS@@PAUtagVARIANT@@PAUtagEXCEPINFO@@PAI@Z 00686470 f i uafxcwd:wincore.obj
 0002:00125680       ?GetIDsOfNames@XAccessible@CWnd@@UAGJABU_GUID@@PAPA_WIKPAJ@Z 00687680 f   uafxcwd:wincore.obj
 0002:001256b0       ?AtlIAccessibleGetIDsOfNamesHelper@ATL@@YGJABU_GUID@@PAPA_WIKPAJ@Z 006876b0 f i uafxcwd:wincore.obj
 0002:00125770       ?GetTypeInfoCount@XAccessible@CWnd@@UAGJPAI@Z 00687770 f   uafxcwd:wincore.obj
 0002:001257a0       ?GetTypeInfo@XAccessible@CWnd@@UAGJIKPAPAUITypeInfo@@@Z 006877a0 f   uafxcwd:wincore.obj
 0002:001257c0       ?get_accParent@XAccessible@CWnd@@UAGJPAPAUIDispatch@@@Z 006877c0 f   uafxcwd:wincore.obj
 0002:00125870       ?get_accChildCount@XAccessible@CWnd@@UAGJPAJ@Z 00687870 f   uafxcwd:wincore.obj
 0002:00125920       ?get_accChild@XAccessible@CWnd@@UAGJUtagVARIANT@@PAPAUIDispatch@@@Z 00687920 f   uafxcwd:wincore.obj
 0002:001259f0       ?get_accName@XAccessible@CWnd@@UAGJUtagVARIANT@@PAPA_W@Z 006879f0 f   uafxcwd:wincore.obj
 0002:00125ac0       ?get_accValue@XAccessible@CWnd@@UAGJUtagVARIANT@@PAPA_W@Z 00687ac0 f   uafxcwd:wincore.obj
 0002:00125b90       ?get_accDescription@XAccessible@CWnd@@UAGJUtagVARIANT@@PAPA_W@Z 00687b90 f   uafxcwd:wincore.obj
 0002:00125c60       ?get_accRole@XAccessible@CWnd@@UAGJUtagVARIANT@@PAU3@@Z 00687c60 f   uafxcwd:wincore.obj
 0002:00125d30       ?get_accState@XAccessible@CWnd@@UAGJUtagVARIANT@@PAU3@@Z 00687d30 f   uafxcwd:wincore.obj
 0002:00125e00       ?get_accHelp@XAccessible@CWnd@@UAGJUtagVARIANT@@PAPA_W@Z 00687e00 f   uafxcwd:wincore.obj
 0002:00125ed0       ?get_accHelpTopic@XAccessible@CWnd@@UAGJPAPA_WUtagVARIANT@@PAJ@Z 00687ed0 f   uafxcwd:wincore.obj
 0002:00125fa0       ?get_accKeyboardShortcut@XAccessible@CWnd@@UAGJUtagVARIANT@@PAPA_W@Z 00687fa0 f   uafxcwd:wincore.obj
 0002:00126070       ?get_accFocus@XAccessible@CWnd@@UAGJPAUtagVARIANT@@@Z 00688070 f   uafxcwd:wincore.obj
 0002:00126120       ?get_accSelection@XAccessible@CWnd@@UAGJPAUtagVARIANT@@@Z 00688120 f   uafxcwd:wincore.obj
 0002:001261d0       ?get_accDefaultAction@XAccessible@CWnd@@UAGJUtagVARIANT@@PAPA_W@Z 006881d0 f   uafxcwd:wincore.obj
 0002:001262a0       ?accSelect@XAccessible@CWnd@@UAGJJUtagVARIANT@@@Z 006882a0 f   uafxcwd:wincore.obj
 0002:00126370       ?accLocation@XAccessible@CWnd@@UAGJPAJ000UtagVARIANT@@@Z 00688370 f   uafxcwd:wincore.obj
 0002:00126450       ?accNavigate@XAccessible@CWnd@@UAGJJUtagVARIANT@@PAU3@@Z 00688450 f   uafxcwd:wincore.obj
 0002:00126520       ?accHitTest@XAccessible@CWnd@@UAGJJJPAUtagVARIANT@@@Z 00688520 f   uafxcwd:wincore.obj
 0002:001265d0       ?accDoDefaultAction@XAccessible@CWnd@@UAGJUtagVARIANT@@@Z 006885d0 f   uafxcwd:wincore.obj
 0002:001266a0       ?put_accName@XAccessible@CWnd@@UAGJUtagVARIANT@@PA_W@Z 006886a0 f   uafxcwd:wincore.obj
 0002:00126770       ?put_accValue@XAccessible@CWnd@@UAGJUtagVARIANT@@PA_W@Z 00688770 f   uafxcwd:wincore.obj
 0002:00126840       ?AddRef@XAccessibleServer@CWnd@@UAGKXZ 00688840 f   uafxcwd:wincore.obj
 0002:001268e0       ?Release@XAccessibleServer@CWnd@@UAGKXZ 006888e0 f   uafxcwd:wincore.obj
 0002:00126980       ?QueryInterface@XAccessibleServer@CWnd@@UAGJABU_GUID@@PAPAX@Z 00688980 f   uafxcwd:wincore.obj
 0002:00126a30       ?SetProxy@XAccessibleServer@CWnd@@UAGJPAUIAccessibleProxy@@@Z 00688a30 f   uafxcwd:wincore.obj
 0002:00126ae0       ?GetHWND@XAccessibleServer@CWnd@@UAGJPAPAUHWND__@@@Z 00688ae0 f   uafxcwd:wincore.obj
 0002:00126b50       ?GetEnumVariant@XAccessibleServer@CWnd@@UAGJPAPAUIEnumVARIANT@@@Z 00688b50 f   uafxcwd:wincore.obj
 0002:00126b80       ?EnsureStdObj@CWnd@@UAEJXZ 00688b80 f   uafxcwd:wincore.obj
 0002:00126be0       ?get_accParent@CWnd@@UAEJPAPAUIDispatch@@@Z 00688be0 f   uafxcwd:wincore.obj
 0002:00126c40       ?get_accChildCount@CWnd@@UAEJPAJ@Z 00688c40 f   uafxcwd:wincore.obj
 0002:00126ca0       ?get_accChild@CWnd@@UAEJUtagVARIANT@@PAPAUIDispatch@@@Z 00688ca0 f   uafxcwd:wincore.obj
 0002:00126d20       ?get_accName@CWnd@@UAEJUtagVARIANT@@PAPA_W@Z 00688d20 f   uafxcwd:wincore.obj
 0002:00126da0       ?get_accValue@CWnd@@UAEJUtagVARIANT@@PAPA_W@Z 00688da0 f   uafxcwd:wincore.obj
 0002:00126e00       ?get_accDescription@CWnd@@UAEJUtagVARIANT@@PAPA_W@Z 00688e00 f   uafxcwd:wincore.obj
 0002:00126e60       ?get_accRole@CWnd@@UAEJUtagVARIANT@@PAU2@@Z 00688e60 f   uafxcwd:wincore.obj
 0002:00126ee0       ?get_accState@CWnd@@UAEJUtagVARIANT@@PAU2@@Z 00688ee0 f   uafxcwd:wincore.obj
 0002:00126f60       ?get_accHelp@CWnd@@UAEJUtagVARIANT@@PAPA_W@Z 00688f60 f   uafxcwd:wincore.obj
 0002:00126fe0       ?get_accHelpTopic@CWnd@@UAEJPAPA_WUtagVARIANT@@PAJ@Z 00688fe0 f   uafxcwd:wincore.obj
 0002:00127060       ?get_accKeyboardShortcut@CWnd@@UAEJUtagVARIANT@@PAPA_W@Z 00689060 f   uafxcwd:wincore.obj
 0002:001270e0       ?get_accFocus@CWnd@@UAEJPAUtagVARIANT@@@Z 006890e0 f   uafxcwd:wincore.obj
 0002:00127140       ?get_accSelection@CWnd@@UAEJPAUtagVARIANT@@@Z 00689140 f   uafxcwd:wincore.obj
 0002:001271a0       ?get_accDefaultAction@CWnd@@UAEJUtagVARIANT@@PAPA_W@Z 006891a0 f   uafxcwd:wincore.obj
 0002:00127220       ?accSelect@CWnd@@UAEJJUtagVARIANT@@@Z 00689220 f   uafxcwd:wincore.obj
 0002:001272a0       ?accLocation@CWnd@@UAEJPAJ000UtagVARIANT@@@Z 006892a0 f   uafxcwd:wincore.obj
 0002:00127330       ?accNavigate@CWnd@@UAEJJUtagVARIANT@@PAU2@@Z 00689330 f   uafxcwd:wincore.obj
 0002:001273b0       ?accHitTest@CWnd@@UAEJJJPAUtagVARIANT@@@Z 006893b0 f   uafxcwd:wincore.obj
 0002:00127410       ?accDoDefaultAction@CWnd@@UAEJUtagVARIANT@@@Z 00689410 f   uafxcwd:wincore.obj
 0002:00127490       ?put_accName@CWnd@@UAEJUtagVARIANT@@PA_W@Z 00689490 f   uafxcwd:wincore.obj
 0002:00127510       ?put_accValue@CWnd@@UAEJUtagVARIANT@@PA_W@Z 00689510 f   uafxcwd:wincore.obj
 0002:00127590       ?SetProxy@CWnd@@UAEJPAUIAccessibleProxy@@@Z 00689590 f   uafxcwd:wincore.obj
 0002:001275b0       ?CreateAccessibleProxy@CWnd@@UAEJIJPAJ@Z 006895b0 f   uafxcwd:wincore.obj
 0002:00127770       ??1?$CComPtr@UIAccessibleProxy@@@ATL@@QAE@XZ 00689770 f i uafxcwd:wincore.obj
 0002:00127790       ?GetWindowLessChildCount@CWnd@@QAEJXZ 00689790 f   uafxcwd:wincore.obj
 0002:00127840       ?GetWindowedChildCount@CWnd@@QAEJXZ 00689840 f   uafxcwd:wincore.obj
 0002:001278a0       ?GetAccessibleChildCount@CWnd@@QAEJXZ 006898a0 f   uafxcwd:wincore.obj
 0002:001278d0       ?GetAccessibleChild@CWnd@@QAEJUtagVARIANT@@PAPAUIDispatch@@@Z 006898d0 f   uafxcwd:wincore.obj
 0002:00127990       ?GetAccessibleName@CWnd@@QAEJUtagVARIANT@@PAPA_W@Z 00689990 f   uafxcwd:wincore.obj
 0002:00127b70       ?GetAccessibilityLocation@CWnd@@QAEJUtagVARIANT@@PAJ111@Z 00689b70 f   uafxcwd:wincore.obj
 0002:00127d20       ?GetAccessibilityHitTest@CWnd@@QAEJJJPAUtagVARIANT@@@Z 00689d20 f   uafxcwd:wincore.obj
 0002:00127e80       ?OnHScroll@CWnd@@IAEXIIPAVCScrollBar@@@Z 00689e80 f   uafxcwd:wincore.obj
 0002:00127ec0       ?OnVScroll@CWnd@@IAEXIIPAVCScrollBar@@@Z 00689ec0 f   uafxcwd:wincore.obj
 0002:00127f00       ?OnPaint@CWnd@@IAEXXZ      00689f00 f   uafxcwd:wincore.obj
 0002:00127fc0       ?OnEnterIdle@CWnd@@IAEXIPAV1@@Z 00689fc0 f   uafxcwd:wincore.obj
 0002:00128020       ?OnCtlColor@CWnd@@IAEPAUHBRUSH__@@PAVCDC@@PAV1@I@Z 0068a020 f   uafxcwd:wincore.obj
 0002:00128090       ?GrayCtlColor@CWnd@@SGHPAUHDC__@@PAUHWND__@@IPAUHBRUSH__@@K@Z 0068a090 f   uafxcwd:wincore.obj
 0002:001281a0       ?UpdateData@CWnd@@QAEHH@Z  0068a1a0 f   uafxcwd:wincore.obj
 0002:001283d0       ??0CDataExchange@@QAE@PAVCWnd@@H@Z 0068a3d0 f   uafxcwd:wincore.obj
 0002:00128420       ?CenterWindow@CWnd@@QAEXPAV1@@Z 0068a420 f   uafxcwd:wincore.obj
 0002:001287a0       ?CheckAutoCenter@CWnd@@UAEHXZ 0068a7a0 f   uafxcwd:wincore.obj
 0002:001287c0       ?ExecuteDlgInit@CWnd@@QAEHPB_W@Z 0068a7c0 f   uafxcwd:wincore.obj
 0002:001288b0       ?ExecuteDlgInit@CWnd@@QAEHPAX@Z 0068a8b0 f   uafxcwd:wincore.obj
 0002:00128bb0       ?UpdateDialogControls@CWnd@@QAEXPAVCCmdTarget@@H@Z 0068abb0 f   uafxcwd:wincore.obj
 0002:00128df0       ?PreTranslateInput@CWnd@@QAEHPAUtagMSG@@@Z 0068adf0 f   uafxcwd:wincore.obj
 0002:00128e90       ?RunModalLoop@CWnd@@QAEHK@Z 0068ae90 f   uafxcwd:wincore.obj
 0002:001291d0       ?ContinueModal@CWnd@@UAEHXZ 0068b1d0 f   uafxcwd:wincore.obj
 0002:001291f0       ?EndModalLoop@CWnd@@UAEXH@Z 0068b1f0 f   uafxcwd:wincore.obj
 0002:00129270       ?SetOccDialogInfo@CWnd@@MAEHPAU_AFX_OCC_DIALOG_INFO@@@Z 0068b270 f   uafxcwd:wincore.obj
 0002:001292b0       ?GetOccDialogInfo@CWnd@@MAEPAU_AFX_OCC_DIALOG_INFO@@XZ 0068b2b0 f   uafxcwd:wincore.obj
 0002:001292d0       ?_AfxRegisterWithIcon@@YGHPAUtagWNDCLASSW@@PB_WI@Z 0068b2d0 f   uafxcwd:wincore.obj
 0002:00129340       ?_AfxInitCommonControls@@YGJPAUtagINITCOMMONCONTROLSEX@@J@Z 0068b340 f   uafxcwd:wincore.obj
 0002:001293e0       ?AfxEndDeferRegisterClass@@YGHJ@Z 0068b3e0 f   uafxcwd:wincore.obj
 0002:001298c0       ?AfxInitNetworkAddressControl@@YGHXZ 0068b8c0 f   uafxcwd:wincore.obj
 0002:00129a20       ?IsFrameWnd@CWnd@@UBEHXZ   0068ba20 f   uafxcwd:wincore.obj
 0002:00129a40       ?IsFrameWnd@CFrameWnd@@UBEHXZ 0068ba40 f   uafxcwd:wincore.obj
 0002:00129a60       ?IsTracking@CFrameWnd@@QBEHXZ 0068ba60 f   uafxcwd:wincore.obj
 0002:00129ac0       ?SubclassWindow@CWnd@@QAEHPAUHWND__@@@Z 0068bac0 f   uafxcwd:wincore.obj
 0002:00129ca0       ?SubclassDlgItem@CWnd@@QAEHIPAV1@@Z 0068bca0 f   uafxcwd:wincore.obj
 0002:00129e00       ?UnsubclassWindow@CWnd@@QAEPAUHWND__@@XZ 0068be00 f   uafxcwd:wincore.obj
 0002:00129e90       ?CreateControlContainer@CWnd@@MAEHPAPAVCOleControlContainer@@@Z 0068be90 f   uafxcwd:wincore.obj
 0002:00129f00       ?CreateControlSite@CWnd@@MAEHPAVCOleControlContainer@@PAPAVCOleControlSite@@IABU_GUID@@@Z 0068bf00 f   uafxcwd:wincore.obj
 0002:00129f70       ?GetControlContainer@CWnd@@QAEPAVCOleControlContainer@@XZ 0068bf70 f   uafxcwd:wincore.obj
 0002:00129f90       ?CreateObject@CWnd@@SGPAVCObject@@XZ 0068bf90 f   uafxcwd:wincore.obj
 0002:0012a030       ?GetRuntimeClass@CWnd@@UBEPAUCRuntimeClass@@XZ 0068c030 f   uafxcwd:wincore.obj
 0002:0012a050       ??Y?$CStringT@_WV?$StrTraitMFC@_WV?$ChTraitsCRT@_W@ATL@@@@@ATL@@QAEAAV01@D@Z 0068c050 f i uafxcwd:wincore.obj
 0002:0012a080       ?AllocSysString@?$CStringT@_WV?$StrTraitMFC@_WV?$ChTraitsCRT@_W@ATL@@@@@ATL@@QBEPA_WXZ 0068c080 f i uafxcwd:wincore.obj
 0002:0012a0d0       ?AllocSysString@?$ChTraitsCRT@_W@ATL@@SAPA_WPB_WH@Z 0068c0d0 f i uafxcwd:wincore.obj
 0002:0012a0f0       ?GetData@?$CThreadLocal@V_AFX_THREAD_STATE@@@@QAEPAV_AFX_THREAD_STATE@@XZ 0068c0f0 f i uafxcwd:wincore.obj
 0002:0012a160       ??C?$CThreadLocal@V_AFX_THREAD_STATE@@@@QAEPAV_AFX_THREAD_STATE@@XZ 0068c160 f i uafxcwd:wincore.obj
 0002:0012a180       ?GetNext@?$_CTypedPtrList@VCPtrList@@PAUCOleControlSiteOrWnd@@@@QAEAAPAUCOleControlSiteOrWnd@@AAPAU__POSITION@@@Z 0068c180 f i uafxcwd:wincore.obj
 0002:0012a1b0       ?GetData@?$CProcessLocal@V_AFX_HTMLHELP_STATE@@@@QAEPAV_AFX_HTMLHELP_STATE@@XZ 0068c1b0 f i uafxcwd:wincore.obj
 0002:0012a220       ??BInitCommonControlsEx_Type@CComCtlWrapper@@QAEP6GHPAUtagINITCOMMONCONTROLSEX@@@ZXZ 0068c220 f i uafxcwd:wincore.obj
 0002:0012a240       ?GetProcAddress_InitCommonControlsEx@CComCtlWrapper@@QAE?AUInitCommonControlsEx_Type@1@XZ 0068c240 f i uafxcwd:wincore.obj
 0002:0012a2b0       ?GetModuleHandleW@CDllIsolationWrapperBase@@QAEPAUHINSTANCE__@@XZ 0068c2b0 f i uafxcwd:wincore.obj
 0002:0012a330       ??4InitCommonControlsEx_Type@CComCtlWrapper@@QAEXP6GHPAUtagINITCOMMONCONTROLSEX@@@Z@Z 0068c330 f i uafxcwd:wincore.obj
 0002:0012a350       ??7InitCommonControlsEx_Type@CComCtlWrapper@@QBE_NXZ 0068c350 f i uafxcwd:wincore.obj
 0002:0012a370       ?Construct@?$ConstructDestruct@VCWnd@@@@SGXPAVCObject@@@Z 0068c370 f i uafxcwd:wincore.obj
 0002:0012a410       ?Destruct@?$ConstructDestruct@VCWnd@@@@SGXPAVCObject@@@Z 0068c410 f i uafxcwd:wincore.obj
 0002:0012a440       ?CreateInstance@?$CMFCComObject@VCAccessibleProxy@ATL@@@@SGJPAPAV1@@Z 0068c440 f i uafxcwd:wincore.obj
 0002:0012a660       ??0?$CComPtr@UIAccessibleProxy@@@ATL@@QAE@XZ 0068c660 f i uafxcwd:wincore.obj
 0002:0012a680       ??1?$CComPtrBase@UIAccessibleProxy@@@ATL@@QAE@XZ 0068c680 f i uafxcwd:wincore.obj
 0002:0012a6b0       ??B?$CComPtrBase@UIAccessibleProxy@@@ATL@@QBEPAUIAccessibleProxy@@XZ 0068c6b0 f i uafxcwd:wincore.obj
 0002:0012a6d0       ??I?$CComPtrBase@UIAccessibleProxy@@@ATL@@QAEPAPAUIAccessibleProxy@@XZ 0068c6d0 f i uafxcwd:wincore.obj
 0002:0012a720       ??C?$CComPtrBase@UIAccessibleProxy@@@ATL@@QBEPAV?$_NoAddRefReleaseOnCComPtr@UIAccessibleProxy@@@1@XZ 0068c720 f i uafxcwd:wincore.obj
 0002:0012a770       ??Y?$CSimpleStringT@_W$0A@@ATL@@QAEAAV01@D@Z 0068c770 f i uafxcwd:wincore.obj
 0002:0012a7a0       ?CreateObject@?$CThreadLocal@V_AFX_THREAD_STATE@@@@SGPAVCNoTrackObject@@XZ 0068c7a0 f i uafxcwd:wincore.obj
 0002:0012a840       ?CreateObject@?$CProcessLocal@V_AFX_HTMLHELP_STATE@@@@SGPAVCNoTrackObject@@XZ 0068c840 f i uafxcwd:wincore.obj
 0002:0012a880       ??0?$CMFCComObject@VCAccessibleProxy@ATL@@@@QAE@PAX@Z 0068c880 f i uafxcwd:wincore.obj
 0002:0012a920       ??0CAccessibleProxy@ATL@@QAE@XZ 0068c920 f i uafxcwd:wincore.obj
 0002:0012a9a0       ??1CAccessibleProxy@ATL@@UAE@XZ 0068c9a0 f i uafxcwd:wincore.obj
 0002:0012a9c0       ?GetWindow@CAccessibleProxy@ATL@@UAGJPAPAUHWND__@@@Z 0068c9c0 f i uafxcwd:wincore.obj
 0002:0012a9d0       ?ContextSensitiveHelp@CAccessibleProxy@ATL@@UAGJH@Z 0068c9d0 f i uafxcwd:wincore.obj
 0002:0012a9f0       ??0?$CComObjectRootEx@VCComSingleThreadModel@ATL@@@ATL@@QAE@XZ 0068c9f0 f i uafxcwd:wincore.obj
 0002:0012aa10       ??0IOleWindow@@QAE@XZ      0068ca10 f i uafxcwd:wincore.obj
 0002:0012aa30       ??0IUnknown@@QAE@XZ        0068ca30 f i uafxcwd:wincore.obj
 0002:0012aa50       ??0?$IAccessibleProxyImpl@VCAccessibleProxy@ATL@@@ATL@@QAE@XZ 0068ca50 f i uafxcwd:wincore.obj
 0002:0012aab0       ?get_accParent@?$IAccessibleProxyImpl@VCAccessibleProxy@ATL@@@ATL@@UAGJPAPAUIDispatch@@@Z 0068cab0 f i uafxcwd:wincore.obj
 0002:0012ab00       ?get_accChildCount@?$IAccessibleProxyImpl@VCAccessibleProxy@ATL@@@ATL@@UAGJPAJ@Z 0068cb00 f i uafxcwd:wincore.obj
 0002:0012ab50       ?get_accChild@?$IAccessibleProxyImpl@VCAccessibleProxy@ATL@@@ATL@@UAGJUtagVARIANT@@PAPAUIDispatch@@@Z 0068cb50 f i uafxcwd:wincore.obj
 0002:0012abc0       ?get_accName@?$IAccessibleProxyImpl@VCAccessibleProxy@ATL@@@ATL@@UAGJUtagVARIANT@@PAPA_W@Z 0068cbc0 f i uafxcwd:wincore.obj
 0002:0012ac30       ?get_accValue@?$IAccessibleProxyImpl@VCAccessibleProxy@ATL@@@ATL@@UAGJUtagVARIANT@@PAPA_W@Z 0068cc30 f i uafxcwd:wincore.obj
 0002:0012aca0       ?get_accDescription@?$IAccessibleProxyImpl@VCAccessibleProxy@ATL@@@ATL@@UAGJUtagVARIANT@@PAPA_W@Z 0068cca0 f i uafxcwd:wincore.obj
 0002:0012ad10       ?get_accRole@?$IAccessibleProxyImpl@VCAccessibleProxy@ATL@@@ATL@@UAGJUtagVARIANT@@PAU3@@Z 0068cd10 f i uafxcwd:wincore.obj
 0002:0012ad80       ?get_accState@?$IAccessibleProxyImpl@VCAccessibleProxy@ATL@@@ATL@@UAGJUtagVARIANT@@PAU3@@Z 0068cd80 f i uafxcwd:wincore.obj
 0002:0012adf0       ?get_accHelp@?$IAccessibleProxyImpl@VCAccessibleProxy@ATL@@@ATL@@UAGJUtagVARIANT@@PAPA_W@Z 0068cdf0 f i uafxcwd:wincore.obj
 0002:0012ae60       ?get_accHelpTopic@?$IAccessibleProxyImpl@VCAccessibleProxy@ATL@@@ATL@@UAGJPAPA_WUtagVARIANT@@PAJ@Z 0068ce60 f i uafxcwd:wincore.obj
 0002:0012aef0       ?get_accKeyboardShortcut@?$IAccessibleProxyImpl@VCAccessibleProxy@ATL@@@ATL@@UAGJUtagVARIANT@@PAPA_W@Z 0068cef0 f i uafxcwd:wincore.obj
 0002:0012af60       ?get_accFocus@?$IAccessibleProxyImpl@VCAccessibleProxy@ATL@@@ATL@@UAGJPAUtagVARIANT@@@Z 0068cf60 f i uafxcwd:wincore.obj
 0002:0012afb0       ?get_accSelection@?$IAccessibleProxyImpl@VCAccessibleProxy@ATL@@@ATL@@UAGJPAUtagVARIANT@@@Z 0068cfb0 f i uafxcwd:wincore.obj
 0002:0012b000       ?get_accDefaultAction@?$IAccessibleProxyImpl@VCAccessibleProxy@ATL@@@ATL@@UAGJUtagVARIANT@@PAPA_W@Z 0068d000 f i uafxcwd:wincore.obj
 0002:0012b070       ?accSelect@?$IAccessibleProxyImpl@VCAccessibleProxy@ATL@@@ATL@@UAGJJUtagVARIANT@@@Z 0068d070 f i uafxcwd:wincore.obj
 0002:0012b0d0       ?accLocation@?$IAccessibleProxyImpl@VCAccessibleProxy@ATL@@@ATL@@UAGJPAJ000UtagVARIANT@@@Z 0068d0d0 f i uafxcwd:wincore.obj
 0002:0012b180       ?accNavigate@?$IAccessibleProxyImpl@VCAccessibleProxy@ATL@@@ATL@@UAGJJUtagVARIANT@@PAU3@@Z 0068d180 f i uafxcwd:wincore.obj
 0002:0012b200       ?accHitTest@?$IAccessibleProxyImpl@VCAccessibleProxy@ATL@@@ATL@@UAGJJJPAUtagVARIANT@@@Z 0068d200 f i uafxcwd:wincore.obj
 0002:0012b260       ?accDoDefaultAction@?$IAccessibleProxyImpl@VCAccessibleProxy@ATL@@@ATL@@UAGJUtagVARIANT@@@Z 0068d260 f i uafxcwd:wincore.obj
 0002:0012b2c0       ?put_accName@?$IAccessibleProxyImpl@VCAccessibleProxy@ATL@@@ATL@@UAGJUtagVARIANT@@PA_W@Z 0068d2c0 f i uafxcwd:wincore.obj
 0002:0012b2f0       ?put_accValue@?$IAccessibleProxyImpl@VCAccessibleProxy@ATL@@@ATL@@UAGJUtagVARIANT@@PA_W@Z 0068d2f0 f i uafxcwd:wincore.obj
 0002:0012b320       ?SetServer@?$IAccessibleProxyImpl@VCAccessibleProxy@ATL@@@ATL@@UAGJPAUIAccessible@@PAUIAccessibleServer@@@Z 0068d320 f i uafxcwd:wincore.obj
 0002:0012b350       ?Invoke@?$IAccessibleProxyImpl@VCAccessibleProxy@ATL@@@ATL@@UAGJJABU_GUID@@KGPAUtagDISPPARAMS@@PAUtagVARIANT@@PAUtagEXCEPINFO@@PAI@Z 0068d350 f i uafxcwd:wincore.obj
 0002:0012b3c0       ?GetIDsOfNames@?$IAccessibleProxyImpl@VCAccessibleProxy@ATL@@@ATL@@UAGJABU_GUID@@PAPA_WIKPAJ@Z 0068d3c0 f i uafxcwd:wincore.obj
 0002:0012b420       ?GetTypeInfoCount@?$IAccessibleProxyImpl@VCAccessibleProxy@ATL@@@ATL@@UAGJPAI@Z 0068d420 f i uafxcwd:wincore.obj
 0002:0012b460       ?GetTypeInfo@?$IAccessibleProxyImpl@VCAccessibleProxy@ATL@@@ATL@@UAGJIKPAPAUITypeInfo@@@Z 0068d460 f i uafxcwd:wincore.obj
 0002:0012b4b0       ?AddRef@?$CMFCComObject@VCAccessibleProxy@ATL@@@@UAGKXZ 0068d4b0 f i uafxcwd:wincore.obj
 0002:0012b4d0       ?Release@?$CMFCComObject@VCAccessibleProxy@ATL@@@@UAGKXZ 0068d4d0 f i uafxcwd:wincore.obj
 0002:0012b540       ?QueryInterface@?$CMFCComObject@VCAccessibleProxy@ATL@@@@UAGJABU_GUID@@PAPAX@Z 0068d540 f i uafxcwd:wincore.obj
 0002:0012b560       ?_InternalQueryInterface@CAccessibleProxy@ATL@@QAEJABU_GUID@@PAPAX@Z 0068d560 f i uafxcwd:wincore.obj
 0002:0012b590       ?_GetEntries@CAccessibleProxy@ATL@@SGPBU_ATL_INTMAP_ENTRY@2@XZ 0068d590 f i uafxcwd:wincore.obj
 0002:0012b5a0       ??0IAccessible@@QAE@XZ     0068d5a0 f i uafxcwd:wincore.obj
 0002:0012b5c0       ??0IAccessibleProxy@@QAE@XZ 0068d5c0 f i uafxcwd:wincore.obj
 0002:0012b5e0       ??_G?$CMFCComObject@VCAccessibleProxy@ATL@@@@UAEPAXI@Z 0068d5e0 f i uafxcwd:wincore.obj
 0002:0012b5e0       ??_E?$CMFCComObject@VCAccessibleProxy@ATL@@@@UAEPAXI@Z 0068d5e0 f i uafxcwd:wincore.obj
 0002:0012b620       ??1?$CMFCComObject@VCAccessibleProxy@ATL@@@@UAE@XZ 0068d620 f i uafxcwd:wincore.obj
 0002:0012b6d0       ?FinalRelease@CAccessibleProxy@ATL@@QAEJXZ 0068d6d0 f i uafxcwd:wincore.obj
 0002:0012b710       ??0IDispatch@@QAE@XZ       0068d710 f i uafxcwd:wincore.obj
 0002:0012b730       ??0?$CComPtrBase@UIAccessibleProxy@@@ATL@@IAE@XZ 0068d730 f i uafxcwd:wincore.obj
 0002:0012b750       ??0_AFX_HTMLHELP_STATE@@QAE@XZ 0068d750 f i uafxcwd:wincore.obj
 0002:0012b780       ??0CNoTrackObject@@QAE@XZ  0068d780 f i uafxcwd:wincore.obj
 0002:0012b7a0       ??$QueryInterface@UIAccessibleProxy@@@?$CMFCComObject@VCAccessibleProxy@ATL@@@@QAGJPAPAUIAccessibleProxy@@@Z 0068d7a0 f i uafxcwd:wincore.obj
 0002:0012b7d0       ?Release@?$CMFCComObject@VCAccessibleProxy@ATL@@@@WBA@AGKXZ 0068d7d0 f i uafxcwd:wincore.obj
 0002:0012b7e0       ?QueryInterface@?$CMFCComObject@VCAccessibleProxy@ATL@@@@W3AGJABU_GUID@@PAPAX@Z 0068d7e0 f i uafxcwd:wincore.obj
 0002:0012b7f0       ?AddRef@?$CMFCComObject@VCAccessibleProxy@ATL@@@@WBA@AGKXZ 0068d7f0 f i uafxcwd:wincore.obj
 0002:0012b800       ?QueryInterface@?$CMFCComObject@VCAccessibleProxy@ATL@@@@WBA@AGJABU_GUID@@PAPAX@Z 0068d800 f i uafxcwd:wincore.obj
 0002:0012b810       ?Release@?$CMFCComObject@VCAccessibleProxy@ATL@@@@W3AGKXZ 0068d810 f i uafxcwd:wincore.obj
 0002:0012b820       ?AddRef@?$CMFCComObject@VCAccessibleProxy@ATL@@@@W3AGKXZ 0068d820 f i uafxcwd:wincore.obj
 0002:0012b830       ?AfxCtxRegisterClassW@@YAGPBUtagWNDCLASSW@@@Z 0068d830 f i uafxcwd:wincore.obj
 0002:0012b950       ?AfxCtxGetClassInfoW@@YAHPAUHINSTANCE__@@PB_WPAUtagWNDCLASSW@@@Z 0068d950 f i uafxcwd:wincore.obj
 0002:0012ba80       ?AfxCtxGetClassInfoExW@@YAHPAUHINSTANCE__@@PB_WPAUtagWNDCLASSEXW@@@Z 0068da80 f i uafxcwd:wincore.obj
 0002:0012bbb0       ?AfxCtxCreateWindowExW@@YAPAUHWND__@@KPB_W0KHHHHPAU1@PAUHMENU__@@PAUHINSTANCE__@@PAX@Z 0068dbb0 f i uafxcwd:wincore.obj
 0002:0012bd10       ?AfxCtxMessageBoxW@@YAHPAUHWND__@@PB_W1I@Z 0068dd10 f i uafxcwd:wincore.obj
 0002:0012be40       ?AfxCtxLoadLibraryA@@YAPAUHINSTANCE__@@PBD@Z 0068de40 f i uafxcwd:wincore.obj
 0002:0012bf60       ?AfxInitCommonControls@@YGXXZ 0068df60 f i uafxcwd:wincore.obj
 0002:0012bf80       ?_InitCommonControls@CComCtlWrapper@@QAEXXZ 0068df80 f i uafxcwd:wincore.obj
 0002:0012c0a0       ??BInitCommonControls_Type@CComCtlWrapper@@QAEP6GXXZXZ 0068e0a0 f i uafxcwd:wincore.obj
 0002:0012c0c0       ?GetProcAddress_InitCommonControls@CComCtlWrapper@@QAE?AUInitCommonControls_Type@1@XZ 0068e0c0 f i uafxcwd:wincore.obj
 0002:0012c130       ??4InitCommonControls_Type@CComCtlWrapper@@QAEXP6GXXZ@Z 0068e130 f i uafxcwd:wincore.obj
 0002:0012c150       ??7InitCommonControls_Type@CComCtlWrapper@@QBE_NXZ 0068e150 f i uafxcwd:wincore.obj
 0002:0012c170       ?AfxInitCommonControlsEx@@YGHPAUtagINITCOMMONCONTROLSEX@@@Z 0068e170 f i uafxcwd:wincore.obj
 0002:0012c1a0       ?_InitCommonControlsEx@CComCtlWrapper@@QAEHPAUtagINITCOMMONCONTROLSEX@@@Z 0068e1a0 f i uafxcwd:wincore.obj
 0002:0012c330       ?AfxCtxInitNetworkAddressControl@@YGHXZ 0068e330 f i uafxcwd:wincore.obj
 0002:0012c350       ?_InitNetworkAddressControl@CShellWrapper@@QAEHXZ 0068e350 f i uafxcwd:wincore.obj
 0002:0012c4e0       ??BInitNetworkAddressControl_Type@CShellWrapper@@QAEP6GHXZXZ 0068e4e0 f i uafxcwd:wincore.obj
 0002:0012c500       ?GetProcAddress_InitNetworkAddressControl@CShellWrapper@@QAE?AUInitNetworkAddressControl_Type@1@XZ 0068e500 f i uafxcwd:wincore.obj
 0002:0012c570       ??4InitNetworkAddressControl_Type@CShellWrapper@@QAEXP6GHXZ@Z 0068e570 f i uafxcwd:wincore.obj
 0002:0012c590       ??7InitNetworkAddressControl_Type@CShellWrapper@@QBE_NXZ 0068e590 f i uafxcwd:wincore.obj
 0002:0012c5b0       ?SetWindowLongPtrW@@YAJPAUHWND__@@HJ@Z 0068e5b0 f i uafxcwd:wincore.obj
 0002:0012c5d0       ?GetWindowLongPtrW@@YAJPAUHWND__@@H@Z 0068e5d0 f i uafxcwd:wincore.obj
 0002:0012c5f0       ?AfxInvariantStrICmp@@YAHPB_W0@Z 0068e5f0 f i uafxcwd:wincore.obj
 0002:0012c620       ??0CInternalGlobalLock@@QAE@H@Z 0068e620 f i uafxcwd:wincore.obj
 0002:0012c660       ??1CInternalGlobalLock@@QAE@XZ 0068e660 f i uafxcwd:wincore.obj
 0002:0012c680       ?Lock@CInternalGlobalLock@@QAEXH@Z 0068e680 f i uafxcwd:wincore.obj
 0002:0012c770       ?Unlock@CInternalGlobalLock@@QAEXXZ 0068e770 f i uafxcwd:wincore.obj
 0002:0012c7b0       ?LookupPermanent@CHandleMap@@QAEPAVCObject@@PAX@Z 0068e7b0 f i uafxcwd:wincore.obj
 0002:0012c7e0       ?LookupTemporary@CHandleMap@@QAEPAVCObject@@PAX@Z 0068e7e0 f i uafxcwd:wincore.obj
 0002:0012c810       ??0CComObjectRootBase@ATL@@QAE@XZ 0068e810 f i uafxcwd:wincore.obj
 0002:0012c830       ?FinalConstruct@CComObjectRootBase@ATL@@QAEJXZ 0068e830 f i uafxcwd:wincore.obj
 0002:0012c850       ?_AtlFinalConstruct@CComObjectRootBase@ATL@@QAEJXZ 0068e850 f i uafxcwd:wincore.obj
 0002:0012c870       ?InternalQueryInterface@CComObjectRootBase@ATL@@SGJPAXPBU_ATL_INTMAP_ENTRY@2@ABU_GUID@@PAPAX@Z 0068e870 f i uafxcwd:wincore.obj
 0002:0012c940       ?SetVoid@CComObjectRootBase@ATL@@QAEXPAX@Z 0068e940 f i uafxcwd:wincore.obj
 0002:0012c960       ?InternalFinalConstructAddRef@CComObjectRootBase@ATL@@QAEXXZ 0068e960 f i uafxcwd:wincore.obj
 0002:0012c970       ?InternalFinalConstructRelease@CComObjectRootBase@ATL@@QAEXXZ 0068e970 f i uafxcwd:wincore.obj
 0002:0012c9c0       ??1?$CComObjectRootEx@VCComSingleThreadModel@ATL@@@ATL@@QAE@XZ 0068e9c0 f i uafxcwd:wincore.obj
 0002:0012c9e0       ??1CComObjectRootBase@ATL@@QAE@XZ 0068e9e0 f i uafxcwd:wincore.obj
 0002:0012c9f0       ?InternalAddRef@?$CComObjectRootEx@VCComSingleThreadModel@ATL@@@ATL@@QAEKXZ 0068e9f0 f i uafxcwd:wincore.obj
 0002:0012ca50       ?Increment@CComSingleThreadModel@ATL@@SGKPAJ@Z 0068ea50 f i uafxcwd:wincore.obj
 0002:0012ca80       ?InternalRelease@?$CComObjectRootEx@VCComSingleThreadModel@ATL@@@ATL@@QAEKXZ 0068ea80 f i uafxcwd:wincore.obj
 0002:0012cae0       ?Decrement@CComSingleThreadModel@ATL@@SGKPAJ@Z 0068eae0 f i uafxcwd:wincore.obj
 0002:0012cb10       ?_AtlInitialConstruct@?$CComObjectRootEx@VCComSingleThreadModel@ATL@@@ATL@@QAEJXZ 0068eb10 f i uafxcwd:wincore.obj
 0002:0012cb30       ?AppendChar@?$CSimpleStringT@_W$0A@@ATL@@QAEX_W@Z 0068eb30 f i uafxcwd:wincore.obj
 0002:0012cba0       ??1?$CProcessLocal@V_AFX_HTMLHELP_STATE@@@@QAE@XZ 0068eba0 f i uafxcwd:wincore.obj
 0002:0012cbc0       ??0CCmdTarget@@QAE@XZ      0068ebc0 f   uafxcwd:cmdtarg.obj
 0002:0012ccb0       ??1CCmdTarget@@UAE@XZ      0068ecb0 f   uafxcwd:cmdtarg.obj
 0002:0012cd70       ?_AfxDispatchCmdMsg@@YGHPAVCCmdTarget@@IHP81@AEXXZPAXIPAUAFX_CMDHANDLERINFO@@@Z 0068ed70 f   uafxcwd:cmdtarg.obj
 0002:0012d3c0       ?OnCmdMsg@CCmdTarget@@UAEHIHPAXPAUAFX_CMDHANDLERINFO@@@Z 0068f3c0 f   uafxcwd:cmdtarg.obj
 0002:0012d780       _IsEqualGUID               0068f780 f i uafxcwd:cmdtarg.obj
 0002:0012d7b0       ?IsInvokeAllowed@CCmdTarget@@UAEHJ@Z 0068f7b0 f   uafxcwd:cmdtarg.obj
 0002:0012d7d0       ?GetDispatchIID@CCmdTarget@@UAEHPAU_GUID@@@Z 0068f7d0 f   uafxcwd:cmdtarg.obj
 0002:0012d7f0       ?GetTypeInfoCount@CCmdTarget@@UAEIXZ 0068f7f0 f   uafxcwd:cmdtarg.obj
 0002:0012d810       ?GetTypeLibCache@CCmdTarget@@UAEPAVCTypeLibCache@@XZ 0068f810 f   uafxcwd:cmdtarg.obj
 0002:0012d830       ?GetTypeLib@CCmdTarget@@UAEJKPAPAUITypeLib@@@Z 0068f830 f   uafxcwd:cmdtarg.obj
 0002:0012d850       ?BeginWaitCursor@CCmdTarget@@QAEXXZ 0068f850 f   uafxcwd:cmdtarg.obj
 0002:0012d890       ?EndWaitCursor@CCmdTarget@@QAEXXZ 0068f890 f   uafxcwd:cmdtarg.obj
 0002:0012d8d0       ?RestoreWaitCursor@CCmdTarget@@QAEXXZ 0068f8d0 f   uafxcwd:cmdtarg.obj
 0002:0012d910       ?GetMessageMap@CCmdTarget@@MBEPBUAFX_MSGMAP@@XZ 0068f910 f   uafxcwd:cmdtarg.obj
 0002:0012d930       ?GetThisMessageMap@CCmdTarget@@KGPBUAFX_MSGMAP@@XZ 0068f930 f   uafxcwd:cmdtarg.obj
 0002:0012d940       ?GetDispatchMap@CCmdTarget@@MBEPBUAFX_DISPMAP@@XZ 0068f940 f   uafxcwd:cmdtarg.obj
 0002:0012d960       ?GetEventSinkMap@CCmdTarget@@MBEPBUAFX_EVENTSINKMAP@@XZ 0068f960 f   uafxcwd:cmdtarg.obj
 0002:0012d980       ?GetInterfaceMap@CCmdTarget@@MBEPBUAFX_INTERFACEMAP@@XZ 0068f980 f   uafxcwd:cmdtarg.obj
 0002:0012d9a0       ?OnFinalRelease@CCmdTarget@@UAEXXZ 0068f9a0 f   uafxcwd:cmdtarg.obj
 0002:0012da30       ?OnCreateAggregates@CCmdTarget@@UAEHXZ 0068fa30 f   uafxcwd:cmdtarg.obj
 0002:0012da50       ?GetInterfaceHook@CCmdTarget@@UAEPAUIUnknown@@PBX@Z 0068fa50 f   uafxcwd:cmdtarg.obj
 0002:0012da70       ?GetConnectionMap@CCmdTarget@@MBEPBUAFX_CONNECTIONMAP@@XZ 0068fa70 f   uafxcwd:cmdtarg.obj
 0002:0012da90       ?GetConnectionHook@CCmdTarget@@MAEPAUIConnectionPoint@@ABU_GUID@@@Z 0068fa90 f   uafxcwd:cmdtarg.obj
 0002:0012dab0       ?GetExtraConnectionPoints@CCmdTarget@@MAEHPAVCPtrArray@@@Z 0068fab0 f   uafxcwd:cmdtarg.obj
 0002:0012dad0       ?GetCommandMap@CCmdTarget@@MBEPBUAFX_OLECMDMAP@@XZ 0068fad0 f   uafxcwd:cmdtarg.obj
 0002:0012daf0       ?GetRoutingView@CCmdTarget@@IAEPAVCView@@XZ 0068faf0 f   uafxcwd:cmdtarg.obj
 0002:0012db10       ?GetRoutingFrame@CCmdTarget@@IAEPAVCFrameWnd@@XZ 0068fb10 f   uafxcwd:cmdtarg.obj
 0002:0012db30       ??0CCmdUI@@QAE@XZ          0068fb30 f   uafxcwd:cmdtarg.obj
 0002:0012dbc0       ?Enable@CCmdUI@@UAEXH@Z    0068fbc0 f   uafxcwd:cmdtarg.obj
 0002:0012dd10       ?SetCheck@CCmdUI@@UAEXH@Z  0068fd10 f   uafxcwd:cmdtarg.obj
 0002:0012de40       ?SetRadio@CCmdUI@@UAEXH@Z  0068fe40 f   uafxcwd:cmdtarg.obj
 0002:0012df20       ?SetText@CCmdUI@@UAEXPB_W@Z 0068ff20 f   uafxcwd:cmdtarg.obj
 0002:0012e0f0       ?DoUpdate@CCmdUI@@QAEHPAVCCmdTarget@@H@Z 006900f0 f   uafxcwd:cmdtarg.obj
 0002:0012e270       ?_AfxLoadDotBitmap@@YGXXZ  00690270 f   uafxcwd:cmdtarg.obj
 0002:0012e550       ?Dump@CCmdTarget@@UBEXAAVCDumpContext@@@Z 00690550 f   uafxcwd:cmdtarg.obj
 0002:0012e680       ?AssertValid@CCmdTarget@@UBEXXZ 00690680 f   uafxcwd:cmdtarg.obj
 0002:0012e6a0       ?GetRuntimeClass@CCmdTarget@@UBEPAUCRuntimeClass@@XZ 006906a0 f   uafxcwd:cmdtarg.obj
 0002:0012e6c0       ?OnAmbientProperty@CWnd@@UAEHPAVCOleControlSite@@JPAUtagVARIANT@@@Z 006906c0 f   uafxcwd:winocc.obj
 0002:0012e720       ?GetControlUnknown@CWnd@@QAEPAUIUnknown@@XZ 00690720 f   uafxcwd:winocc.obj
 0002:0012e750       ?PaintWindowlessControls@CWnd@@QAEHPAVCDC@@@Z 00690750 f   uafxcwd:winocc.obj
 0002:0012e7a0       ?GetOleControlSite@CWnd@@QBEPAVCOleControlSite@@I@Z 006907a0 f   uafxcwd:winocc.obj
 0002:0012e7f0       ?CheckDlgButton@CWnd@@QAEXHI@Z 006907f0 f   uafxcwd:winocc.obj
 0002:0012e880       ?CheckRadioButton@CWnd@@QAEXHHH@Z 00690880 f   uafxcwd:winocc.obj
 0002:0012e920       ?GetDlgItem@CWnd@@QBEPAV1@H@Z 00690920 f   uafxcwd:winocc.obj
 0002:0012e9b0       ?GetDlgItem@CWnd@@QBEXHPAPAUHWND__@@@Z 006909b0 f   uafxcwd:winocc.obj
 0002:0012ea60       ?GetDlgItemInt@CWnd@@QBEIHPAHH@Z 00690a60 f   uafxcwd:winocc.obj
 0002:0012eb00       ?GetDlgItemTextW@CWnd@@QBEHHPA_WH@Z 00690b00 f   uafxcwd:winocc.obj
 0002:0012eba0       ?SendDlgItemMessageW@CWnd@@QAEJHIIJ@Z 00690ba0 f   uafxcwd:winocc.obj
 0002:0012ec50       ?SetDlgItemInt@CWnd@@QAEXHIH@Z 00690c50 f   uafxcwd:winocc.obj
 0002:0012ecf0       ?SetDlgItemTextW@CWnd@@QAEXHPB_W@Z 00690cf0 f   uafxcwd:winocc.obj
 0002:0012ed80       ?IsDlgButtonChecked@CWnd@@QBEIH@Z 00690d80 f   uafxcwd:winocc.obj
 0002:0012ee10       ?ScrollWindowEx@CWnd@@QAEHHHPBUtagRECT@@0PAVCRgn@@PAU2@I@Z 00690e10 f   uafxcwd:winocc.obj
 0002:0012eee0       ?IsDialogMessageW@CWnd@@QAEHPAUtagMSG@@@Z 00690ee0 f   uafxcwd:winocc.obj
 0002:0012ef80       ?GetStyle@CWnd@@QBEKXZ     00690f80 f   uafxcwd:winocc.obj
 0002:0012f010       ?GetExStyle@CWnd@@QBEKXZ   00691010 f   uafxcwd:winocc.obj
 0002:0012f0a0       ?ModifyStyle@CWnd@@QAEHKKI@Z 006910a0 f   uafxcwd:winocc.obj
 0002:0012f150       ?ModifyStyleEx@CWnd@@QAEHKKI@Z 00691150 f   uafxcwd:winocc.obj
 0002:0012f200       ?SetWindowTextW@CWnd@@QAEXPB_W@Z 00691200 f   uafxcwd:winocc.obj
 0002:0012f310       ?GetWindowTextW@CWnd@@QBEHPA_WH@Z 00691310 f   uafxcwd:winocc.obj
 0002:0012f440       ?tcsncpy_s@Checked@ATL@@YAHPA_WIPB_WI@Z 00691440 f i uafxcwd:winocc.obj
 0002:0012f480       ?GetWindowTextLengthW@CWnd@@QBEHXZ 00691480 f   uafxcwd:winocc.obj
 0002:0012f580       ?GetDlgCtrlID@CWnd@@QBEHXZ 00691580 f   uafxcwd:winocc.obj
 0002:0012f610       ?SetDlgCtrlID@CWnd@@QAEHH@Z 00691610 f   uafxcwd:winocc.obj
 0002:0012f6b0       ?MoveWindow@CWnd@@QAEXHHHHH@Z 006916b0 f   uafxcwd:winocc.obj
 0002:0012f770       ?SetWindowPos@CWnd@@QAEHPBV1@HHHHI@Z 00691770 f   uafxcwd:winocc.obj
 0002:0012f840       ?ShowWindow@CWnd@@QAEHH@Z  00691840 f   uafxcwd:winocc.obj
 0002:0012f8e0       ?IsWindowEnabled@CWnd@@QBEHXZ 006918e0 f   uafxcwd:winocc.obj
 0002:0012f970       ?EnableWindow@CWnd@@QAEHH@Z 00691970 f   uafxcwd:winocc.obj
 0002:0012fa10       ?SetFocus@CWnd@@QAEPAV1@XZ 00691a10 f   uafxcwd:winocc.obj
 0002:0012faa0       ?InvokeHelper@CWnd@@QAAXJGGPAXPBEZZ 00691aa0 f   uafxcwd:winocc.obj
 0002:0012fb30       ?GetProperty@CWnd@@QBEXJGPAX@Z 00691b30 f   uafxcwd:winocc.obj
 0002:0012fba0       ?SetProperty@CWnd@@QAAXJGZZ 00691ba0 f   uafxcwd:winocc.obj
 0002:0012fc20       ?GetDSCCursor@CWnd@@QAEPAUIUnknown@@XZ 00691c20 f   uafxcwd:winocc.obj
 0002:0012fce0       ?BindDefaultProperty@CWnd@@QAEXJGPB_WPAV1@@Z 00691ce0 f   uafxcwd:winocc.obj
 0002:0012fd50       ?BindProperty@CWnd@@QAEXJPAV1@@Z 00691d50 f   uafxcwd:winocc.obj
 0002:0012fdb0       ?AttachControlSite@CWnd@@IAEXPAVCHandleMap@@@Z 00691db0 f   uafxcwd:winocc.obj
 0002:0012fe30       ?AttachControlSite@CWnd@@QAEXPAV1@I@Z 00691e30 f   uafxcwd:winocc.obj
 0002:0012fed0       ?GetStyle@COleControlSiteOrWnd@@QBEKXZ 00691ed0 f   uafxcwd:winocc.obj
 0002:0012ff20       ?GetNextDlgTabItem@CWnd@@QBEPAUCOleControlSiteOrWnd@@PAU2@H@Z 00691f20 f   uafxcwd:winocc.obj
 0002:00130180       ?FindSiteOrWnd@CWnd@@QBEPAU__POSITION@@PBUCOleControlSiteOrWnd@@@Z 00692180 f   uafxcwd:winocc.obj
 0002:00130200       ??0CDlgControlIterator@@QAE@ABVCOleControlContainer@@@Z 00692200 f i uafxcwd:winocc.obj
 0002:00130230       ?FindSiteOrWndWithFocus@CWnd@@QBEPAU__POSITION@@XZ 00692230 f   uafxcwd:winocc.obj
 0002:00130310       ?GetPrevDlgGroupItem@CWnd@@QBEPAUCOleControlSiteOrWnd@@PAU2@@Z 00692310 f   uafxcwd:winocc.obj
 0002:001303c0       ??0CDlgGroupRadioButtonIterator@@QAE@AAVCOleControlContainer@@PAU__POSITION@@@Z 006923c0 f i uafxcwd:winocc.obj
 0002:001303f0       ??0CDlgControlIterator@@QAE@ABVCOleControlContainer@@PAU__POSITION@@@Z 006923f0 f i uafxcwd:winocc.obj
 0002:00130420       ?IsEnd@CDlgGroupRadioButtonIterator@@QBE_NXZ 00692420 f i uafxcwd:winocc.obj
 0002:00130440       ?MovePrev@CDlgGroupRadioButtonIterator@@QAEXXZ 00692440 f i uafxcwd:winocc.obj
 0002:00130540       ??0CDlgControlIterator@@QAE@ABV0@@Z 00692540 f i uafxcwd:winocc.obj
 0002:00130570       ??BCDlgGroupRadioButtonIterator@@QBEPAUCOleControlSiteOrWnd@@XZ 00692570 f i uafxcwd:winocc.obj
 0002:001305e0       ?IsDisabled@CDlgGroupRadioButtonIterator@@SA_NPBUCOleControlSiteOrWnd@@@Z 006925e0 f i uafxcwd:winocc.obj
 0002:00130660       ?IsGroup@CDlgGroupRadioButtonIterator@@SA_NPBUCOleControlSiteOrWnd@@@Z 00692660 f i uafxcwd:winocc.obj
 0002:00130680       ?GetLastButton@CDlgGroupRadioButtonIterator@@QBE?AVCDlgControlIterator@@XZ 00692680 f i uafxcwd:winocc.obj
 0002:00130710       ?Skip@CDlgControlIterator@@QBE?AV1@H@Z 00692710 f i uafxcwd:winocc.obj
 0002:00130750       ??0CDlgControlIterator@@IAE@ABV?$CTypedPtrListIterator@VCPtrList@@PAUCOleControlSiteOrWnd@@@@@Z 00692750 f i uafxcwd:winocc.obj
 0002:00130780       ??4CDlgControlIterator@@QAEAAV0@ABV0@@Z 00692780 f i uafxcwd:winocc.obj
 0002:001307b0       ?GetNextDlgGroupItem@CWnd@@QBEPAUCOleControlSiteOrWnd@@PAU2@@Z 006927b0 f   uafxcwd:winocc.obj
 0002:00130860       ?MoveNext@CDlgGroupRadioButtonIterator@@QAEXXZ 00692860 f i uafxcwd:winocc.obj
 0002:00130950       ?GetFirstButton@CDlgGroupRadioButtonIterator@@QBE?AVCDlgControlIterator@@XZ 00692950 f i uafxcwd:winocc.obj
 0002:00130a10       ?RemoveRadioCheckFromGroup@CWnd@@QBEXPBUCOleControlSiteOrWnd@@@Z 00692a10 f   uafxcwd:winocc.obj
 0002:00130bf0       ?AttachControlSite@COleControlContainer@@UAEXPAVCWnd@@I@Z 00692bf0 f   uafxcwd:winocc.obj
 0002:00130cd0       ?GetPrev@?$_CTypedPtrList@VCPtrList@@PAUCOleControlSiteOrWnd@@@@QAEAAPAUCOleControlSiteOrWnd@@AAPAU__POSITION@@@Z 00692cd0 f i uafxcwd:winocc.obj
 0002:00130d00       ??0?$CTypedPtrListIterator@VCPtrList@@PAUCOleControlSiteOrWnd@@@@QAE@ABV?$CTypedPtrList@VCPtrList@@PAUCOleControlSiteOrWnd@@@@@Z 00692d00 f i uafxcwd:winocc.obj
 0002:00130d40       ??0?$CTypedPtrListIterator@VCPtrList@@PAUCOleControlSiteOrWnd@@@@QAE@ABV?$CTypedPtrList@VCPtrList@@PAUCOleControlSiteOrWnd@@@@PAU__POSITION@@@Z 00692d40 f i uafxcwd:winocc.obj
 0002:00130d70       ??0?$CTypedPtrListIterator@VCPtrList@@PAUCOleControlSiteOrWnd@@@@QAE@ABV0@@Z 00692d70 f i uafxcwd:winocc.obj
 0002:00130df0       ??4?$CTypedPtrListIterator@VCPtrList@@PAUCOleControlSiteOrWnd@@@@QAEAAV0@ABV0@@Z 00692df0 f i uafxcwd:winocc.obj
 0002:00130e70       ?GetPosition@?$CTypedPtrListIterator@VCPtrList@@PAUCOleControlSiteOrWnd@@@@QBEPAU__POSITION@@XZ 00692e70 f i uafxcwd:winocc.obj
 0002:00130e90       ?IsEnd@?$CTypedPtrListIterator@VCPtrList@@PAUCOleControlSiteOrWnd@@@@QBE_NXZ 00692e90 f i uafxcwd:winocc.obj
 0002:00130ec0       ??7?$CTypedPtrListIterator@VCPtrList@@PAUCOleControlSiteOrWnd@@@@QBE_NXZ 00692ec0 f i uafxcwd:winocc.obj
 0002:00130ee0       ?MoveNext@?$CTypedPtrListIterator@VCPtrList@@PAUCOleControlSiteOrWnd@@@@QAEXXZ 00692ee0 f i uafxcwd:winocc.obj
 0002:00130f10       ?MovePrev@?$CTypedPtrListIterator@VCPtrList@@PAUCOleControlSiteOrWnd@@@@QAEXXZ 00692f10 f i uafxcwd:winocc.obj
 0002:00130f40       ?Skip@?$CTypedPtrListIterator@VCPtrList@@PAUCOleControlSiteOrWnd@@@@QBE?AV1@H@Z 00692f40 f i uafxcwd:winocc.obj
 0002:00130ff0       ??D?$CTypedPtrListIterator@VCPtrList@@PAUCOleControlSiteOrWnd@@@@QAEPAUCOleControlSiteOrWnd@@XZ 00692ff0 f i uafxcwd:winocc.obj
 0002:00131060       ??D?$CTypedPtrListIterator@VCPtrList@@PAUCOleControlSiteOrWnd@@@@QBEQAUCOleControlSiteOrWnd@@XZ 00693060 f i uafxcwd:winocc.obj
 0002:00131080       ?GetNext@?$_CTypedPtrList@VCPtrList@@PAUCOleControlSiteOrWnd@@@@QBEPAUCOleControlSiteOrWnd@@AAPAU__POSITION@@@Z 00693080 f i uafxcwd:winocc.obj
 0002:001310b0       ?GetPrev@?$_CTypedPtrList@VCPtrList@@PAUCOleControlSiteOrWnd@@@@QBEPAUCOleControlSiteOrWnd@@AAPAU__POSITION@@@Z 006930b0 f i uafxcwd:winocc.obj
 0002:001310e0       ?GetAt@?$_CTypedPtrList@VCPtrList@@PAUCOleControlSiteOrWnd@@@@QBEPAUCOleControlSiteOrWnd@@PAU__POSITION@@@Z 006930e0 f i uafxcwd:winocc.obj
 0002:00131110       ?PrepareEditCtrl@CDataExchange@@QAEPAUHWND__@@H@Z 00693110 f   uafxcwd:dlgdata.obj
 0002:00131150       ?PrepareCtrl@CDataExchange@@QAEPAUHWND__@@H@Z 00693150 f   uafxcwd:dlgdata.obj
 0002:00131260       ?Fail@CDataExchange@@QAEXXZ 00693260 f   uafxcwd:dlgdata.obj
 0002:00131350       ?_Afx_DDX_TextWithFormat@@YAXPAVCDataExchange@@HPB_WIZZ 00693350 f   uafxcwd:dlgdata.obj
 0002:001314f0       ?DDX_Text@@YGXPAVCDataExchange@@HAAE@Z 006934f0 f   uafxcwd:dlgdata.obj
 0002:001315a0       ?DDX_Text@@YGXPAVCDataExchange@@HAAF@Z 006935a0 f   uafxcwd:dlgdata.obj
 0002:00131610       ?DDX_Text@@YGXPAVCDataExchange@@HAAH@Z 00693610 f   uafxcwd:dlgdata.obj
 0002:00131680       ?DDX_Text@@YGXPAVCDataExchange@@HAAI@Z 00693680 f   uafxcwd:dlgdata.obj
 0002:001316f0       ?DDX_Text@@YGXPAVCDataExchange@@HAAJ@Z 006936f0 f   uafxcwd:dlgdata.obj
 0002:00131760       ?DDX_Text@@YGXPAVCDataExchange@@HAAK@Z 00693760 f   uafxcwd:dlgdata.obj
 0002:001317d0       ?DDX_Text@@YGXPAVCDataExchange@@HAA_J@Z 006937d0 f   uafxcwd:dlgdata.obj
 0002:00131840       ?DDX_Text@@YGXPAVCDataExchange@@HAA_K@Z 00693840 f   uafxcwd:dlgdata.obj
 0002:001318b0       ?DDX_Text@@YGXPAVCDataExchange@@HAAV?$CStringT@_WV?$StrTraitMFC@_WV?$ChTraitsCRT@_W@ATL@@@@@ATL@@@Z 006938b0 f   uafxcwd:dlgdata.obj
 0002:00131940       ?DDX_Text@@YGXPAVCDataExchange@@HPA_WH@Z 00693940 f   uafxcwd:dlgdata.obj
 0002:00131a20       ?DDX_Check@@YGXPAVCDataExchange@@HAAH@Z 00693a20 f   uafxcwd:dlgdata.obj
 0002:00131b30       ?DDX_Radio@@YGXPAVCDataExchange@@HAAH@Z 00693b30 f   uafxcwd:dlgdata.obj
 0002:00131d10       ?DDX_LBString@@YGXPAVCDataExchange@@HAAV?$CStringT@_WV?$StrTraitMFC@_WV?$ChTraitsCRT@_W@ATL@@@@@ATL@@@Z 00693d10 f   uafxcwd:dlgdata.obj
 0002:00131e40       ?DDX_LBStringExact@@YGXPAVCDataExchange@@HAAV?$CStringT@_WV?$StrTraitMFC@_WV?$ChTraitsCRT@_W@ATL@@@@@ATL@@@Z 00693e40 f   uafxcwd:dlgdata.obj
 0002:00131f20       ?DDX_CBString@@YGXPAVCDataExchange@@HAAV?$CStringT@_WV?$StrTraitMFC@_WV?$ChTraitsCRT@_W@ATL@@@@@ATL@@@Z 00693f20 f   uafxcwd:dlgdata.obj
 0002:00132020       ?DDX_CBStringExact@@YGXPAVCDataExchange@@HAAV?$CStringT@_WV?$StrTraitMFC@_WV?$ChTraitsCRT@_W@ATL@@@@@ATL@@@Z 00694020 f   uafxcwd:dlgdata.obj
 0002:001320e0       ?DDX_LBIndex@@YGXPAVCDataExchange@@HAAH@Z 006940e0 f   uafxcwd:dlgdata.obj
 0002:00132160       ?DDX_CBIndex@@YGXPAVCDataExchange@@HAAH@Z 00694160 f   uafxcwd:dlgdata.obj
 0002:001321e0       ?DDX_Scroll@@YGXPAVCDataExchange@@HAAH@Z 006941e0 f   uafxcwd:dlgdata.obj
 0002:00132250       ?DDX_Slider@@YGXPAVCDataExchange@@HAAH@Z 00694250 f   uafxcwd:dlgdata.obj
 0002:001322d0       ?DDX_IPAddress@@YGXPAVCDataExchange@@HAAK@Z 006942d0 f   uafxcwd:dlgdata.obj
 0002:00132350       ?_AfxFailMinMaxWithFormat@@YGXPAVCDataExchange@@_J1PB_WI@Z 00694350 f   uafxcwd:dlgdata.obj
 0002:001325a0       ?DDV_MinMaxByte@@YGXPAVCDataExchange@@EEE@Z 006945a0 f   uafxcwd:dlgdata.obj
 0002:00132620       ?DDV_MinMaxShort@@YGXPAVCDataExchange@@FFF@Z 00694620 f   uafxcwd:dlgdata.obj
 0002:001326a0       ?DDV_MinMaxInt@@YGXPAVCDataExchange@@HHH@Z 006946a0 f   uafxcwd:dlgdata.obj
 0002:00132710       ?DDV_MinMaxLong@@YGXPAVCDataExchange@@JJJ@Z 00694710 f   uafxcwd:dlgdata.obj
 0002:00132780       ?DDV_MinMaxUInt@@YGXPAVCDataExchange@@III@Z 00694780 f   uafxcwd:dlgdata.obj
 0002:001327f0       ?DDV_MinMaxDWord@@YGXPAVCDataExchange@@KKK@Z 006947f0 f   uafxcwd:dlgdata.obj
 0002:00132860       ?DDV_MinMaxLongLong@@YGXPAVCDataExchange@@_J11@Z 00694860 f   uafxcwd:dlgdata.obj
 0002:00132900       ?DDV_MinMaxULongLong@@YGXPAVCDataExchange@@_K11@Z 00694900 f   uafxcwd:dlgdata.obj
 0002:001329a0       ?DDV_MinMaxSlider@@YGXPAVCDataExchange@@KKK@Z 006949a0 f   uafxcwd:dlgdata.obj
 0002:00132a90       ?DDV_MaxChars@@YGXPAVCDataExchange@@ABV?$CStringT@_WV?$StrTraitMFC@_WV?$ChTraitsCRT@_W@ATL@@@@@ATL@@H@Z 00694a90 f   uafxcwd:dlgdata.obj
 0002:00132c00       ?DDX_Control@@YGXPAVCDataExchange@@HAAVCWnd@@@Z 00694c00 f   uafxcwd:dlgdata.obj
 0002:00132d30       ?AfxFailMaxChars@@YGXPAVCDataExchange@@H@Z 00694d30 f   uafxcwd:dlgdata.obj
 0002:00132e10       ?AfxFailRadio@@YGXPAVCDataExchange@@@Z 00694e10 f   uafxcwd:dlgdata.obj
 0002:00132ec0       ?AfxTextFloatFormat@@YGXPAVCDataExchange@@HPAXNH@Z 00694ec0 f   uafxcwd:dlgfloat.obj
 0002:00133080       ?DDX_Text@@YGXPAVCDataExchange@@HAAM@Z 00695080 f   uafxcwd:dlgfloat.obj
 0002:001330b0       ?DDX_Text@@YGXPAVCDataExchange@@HAAN@Z 006950b0 f   uafxcwd:dlgfloat.obj
 0002:001330e0       ?_AfxFailMinMaxReal@@YGXPAVCDataExchange@@NNHI@Z 006950e0 f   uafxcwd:dlgfloat.obj
 0002:00133320       ?DDV_MinMaxFloat@@YGXPAVCDataExchange@@ABMMM@Z 00695320 f   uafxcwd:dlgfloat.obj
 0002:001333b0       ?DDV_MinMaxDouble@@YGXPAVCDataExchange@@ABNNN@Z 006953b0 f   uafxcwd:dlgfloat.obj
 0002:00133430       ?AfxGetScodeString@@YGPB_WJ@Z 00695430 f   uafxcwd:olemisc.obj
 0002:00133490       ?AfxGetScodeRangeString@@YGPB_WJ@Z 00695490 f   uafxcwd:olemisc.obj
 0002:00133500       ?AfxGetSeverityString@@YGPB_WJ@Z 00695500 f   uafxcwd:olemisc.obj
 0002:00133520       ?AfxGetFacilityString@@YGPB_WJ@Z 00695520 f   uafxcwd:olemisc.obj
 0002:00133560       ?AfxGetFullScodeString@@YGPB_WJ@Z 00695560 f   uafxcwd:olemisc.obj
 0002:001336b0       ?AfxThrowOleException@@YGXJ@Z 006956b0 f   uafxcwd:olemisc.obj
 0002:001337c0       ?GetErrorMessage@COleException@@UBEHPA_WIPAI@Z 006957c0 f   uafxcwd:olemisc.obj
 0002:00133890       ?Process@COleException@@SGJPBVCException@@@Z 00695890 f   uafxcwd:olemisc.obj
 0002:00133910       ?AfxMergeMenus@@YGPAUHMENU__@@PAU1@0PAJHH@Z 00695910 f   uafxcwd:olemisc.obj
 0002:00133d90       ?AfxUnmergeMenus@@YGXPAUHMENU__@@00@Z 00695d90 f   uafxcwd:olemisc.obj
 0002:00133f80       ?_AfxFillFormatEtc@@YGPAUtagFORMATETC@@PAU1@G0@Z 00695f80 f   uafxcwd:olemisc.obj
 0002:00134030       ?_AfxCopyGlobalMemory@@YGPAXPAX0@Z 00696030 f   uafxcwd:olemisc.obj
 0002:00134170       ?_AfxCopyStgMedium@@YGHGPAUtagSTGMEDIUM@@0@Z 00696170 f   uafxcwd:olemisc.obj
 0002:001349b0       ?_AfxOleGetObjectDescriptorData@@YGPAXU_GUID@@KUtagSIZE@@U_POINTL@@KPB_W3@Z 006969b0 f   uafxcwd:olemisc.obj
 0002:00134ba0       ?_AfxOleGetObjectDescriptorData@@YGPAXPAUIOleObject@@PB_WKU_POINTL@@PAUtagSIZE@@@Z 00696ba0 f   uafxcwd:olemisc.obj
 0002:001350c0       ??1?$CComHeapPtr@_W@ATL@@QAE@XZ 006970c0 f i uafxcwd:olemisc.obj
 0002:001350e0       ??1?$CComPtr@UIMoniker@@@ATL@@QAE@XZ 006970e0 f i uafxcwd:olemisc.obj
 0002:00135100       ??1?$CComQIPtr@UIViewObject2@@$1?_GUID_00000127_0000_0000_c000_000000000046@@3U__s_GUID@@B@ATL@@QAE@XZ 00697100 f i uafxcwd:olemisc.obj
 0002:00135120       ??1?$CComQIPtr@UIOleLink@@$1?_GUID_0000011d_0000_0000_c000_000000000046@@3U__s_GUID@@B@ATL@@QAE@XZ 00697120 f i uafxcwd:olemisc.obj
 0002:00135140       ??1?$CComPtr@UIBindCtx@@@ATL@@QAE@XZ 00697140 f i uafxcwd:olemisc.obj
 0002:00135160       ??1?$CHeapPtr@_WVCComAllocator@ATL@@@ATL@@QAE@XZ 00697160 f i uafxcwd:olemisc.obj
 0002:00135180       ??1?$CComPtr@UIViewObject2@@@ATL@@QAE@XZ 00697180 f i uafxcwd:olemisc.obj
 0002:001351a0       ??1?$CComPtr@UIOleLink@@@ATL@@QAE@XZ 006971a0 f i uafxcwd:olemisc.obj
 0002:001351c0       ?_AfxOleDoConvert@@YGJPAUIStorage@@ABU_GUID@@@Z 006971c0 f   uafxcwd:olemisc.obj
 0002:00135390       ?_AfxOleDoTreatAsClass@@YGJPB_WABU_GUID@@1@Z 00697390 f   uafxcwd:olemisc.obj
 0002:00135480       ?_AfxOleCreateTargetDevice@@YGPAUtagDVTARGETDEVICE@@PAUtagDEVNAMES@@PAU_devicemodeW@@@Z 00697480 f   uafxcwd:olemisc.obj
 0002:00135970       ?_AfxOleCreateTargetDevice@@YGPAUtagDVTARGETDEVICE@@PAUtagPDW@@@Z 00697970 f   uafxcwd:olemisc.obj
 0002:00135a20       ?_AfxOleGetFirstMoniker@@YGPAUIMoniker@@PAU1@@Z 00697a20 f   uafxcwd:olemisc.obj
 0002:00135b30       ?_AfxOleGetLenFilePrefixOfMoniker@@YGKPAUIMoniker@@@Z 00697b30 f   uafxcwd:olemisc.obj
 0002:00135c70       ?_AfxOleCopyTargetDevice@@YGPAUtagDVTARGETDEVICE@@PAU1@@Z 00697c70 f   uafxcwd:olemisc.obj
 0002:00135ce0       ?_AfxOleCopyFormatEtc@@YGXPAUtagFORMATETC@@0@Z 00697ce0 f   uafxcwd:olemisc.obj
 0002:00135d80       ?_AfxOleCreateDC@@YGPAUHDC__@@PAUtagDVTARGETDEVICE@@@Z 00697d80 f   uafxcwd:olemisc.obj
 0002:00135f70       ?AtlCoTaskMemCAlloc@ATL@@YAPAXKK@Z 00697f70 f i uafxcwd:olemisc.obj
 0002:00135fc0       ??$AtlMultiply@K@ATL@@YAJPAKKK@Z 00697fc0 f i uafxcwd:olemisc.obj
 0002:00136010       ?_AfxDeleteMetafilePict@@YGXPAX@Z 00698010 f   uafxcwd:olemisc.obj
 0002:00136050       ?_AfxXformSizeInPixelsToHimetric@@YGXPAUHDC__@@PAUtagSIZE@@1@Z 00698050 f   uafxcwd:olemisc.obj
 0002:00136100       ?_AfxXformSizeInHimetricToPixels@@YGXPAUHDC__@@PAUtagSIZE@@1@Z 00698100 f   uafxcwd:olemisc.obj
 0002:001361b0       ?GetRuntimeClass@COleException@@UBEPAUCRuntimeClass@@XZ 006981b0 f   uafxcwd:olemisc.obj
 0002:001361d0       ??0?$CComHeapPtr@_W@ATL@@QAE@XZ 006981d0 f i uafxcwd:olemisc.obj
 0002:001361f0       ?Allocate@?$CHeapPtr@_WVCComAllocator@ATL@@@ATL@@QAE_NI@Z 006981f0 f i uafxcwd:olemisc.obj
 0002:00136240       ??$AtlMultiply@I@ATL@@YAJPAIII@Z 00698240 f i uafxcwd:olemisc.obj
 0002:00136290       ??1?$CHeapPtrBase@_WVCComAllocator@ATL@@@ATL@@QAE@XZ 00698290 f i uafxcwd:olemisc.obj
 0002:001362b0       ??B?$CHeapPtrBase@_WVCComAllocator@ATL@@@ATL@@QBEPA_WXZ 006982b0 f i uafxcwd:olemisc.obj
 0002:001362d0       ??I?$CHeapPtrBase@_WVCComAllocator@ATL@@@ATL@@QAEPAPA_WXZ 006982d0 f i uafxcwd:olemisc.obj
 0002:00136330       ?Attach@?$CHeapPtrBase@_WVCComAllocator@ATL@@@ATL@@QAEXPA_W@Z 00698330 f i uafxcwd:olemisc.obj
 0002:00136360       ?Detach@?$CHeapPtrBase@_WVCComAllocator@ATL@@@ATL@@QAEPA_WXZ 00698360 f i uafxcwd:olemisc.obj
 0002:00136390       ??0?$CComPtr@UIMoniker@@@ATL@@QAE@XZ 00698390 f i uafxcwd:olemisc.obj
 0002:001363b0       ??1?$CComPtrBase@UIMoniker@@@ATL@@QAE@XZ 006983b0 f i uafxcwd:olemisc.obj
 0002:001363e0       ?ocslen@@YAHPB_W@Z         006983e0 f i uafxcwd:olemisc.obj
 0002:00136400       ??I?$CComPtrBase@UIMoniker@@@ATL@@QAEPAPAUIMoniker@@XZ 00698400 f i uafxcwd:olemisc.obj
 0002:00136450       ??C?$CComPtrBase@UIMoniker@@@ATL@@QBEPAV?$_NoAddRefReleaseOnCComPtr@UIMoniker@@@1@XZ 00698450 f i uafxcwd:olemisc.obj
 0002:001364a0       ??0?$CComQIPtr@UIViewObject2@@$1?_GUID_00000127_0000_0000_c000_000000000046@@3U__s_GUID@@B@ATL@@QAE@PAUIUnknown@@@Z 006984a0 f i uafxcwd:olemisc.obj
 0002:001364f0       ??1?$CComPtrBase@UIViewObject2@@@ATL@@QAE@XZ 006984f0 f i uafxcwd:olemisc.obj
 0002:00136520       ??B?$CComPtrBase@UIViewObject2@@@ATL@@QBEPAUIViewObject2@@XZ 00698520 f i uafxcwd:olemisc.obj
 0002:00136540       ??C?$CComPtrBase@UIViewObject2@@@ATL@@QBEPAV?$_NoAddRefReleaseOnCComPtr@UIViewObject2@@@1@XZ 00698540 f i uafxcwd:olemisc.obj
 0002:00136590       ??0?$CComQIPtr@UIOleLink@@$1?_GUID_0000011d_0000_0000_c000_000000000046@@3U__s_GUID@@B@ATL@@QAE@PAUIUnknown@@@Z 00698590 f i uafxcwd:olemisc.obj
 0002:001365e0       ??1?$CComPtrBase@UIOleLink@@@ATL@@QAE@XZ 006985e0 f i uafxcwd:olemisc.obj
 0002:00136610       ??C?$CComPtrBase@UIOleLink@@@ATL@@QBEPAV?$_NoAddRefReleaseOnCComPtr@UIOleLink@@@1@XZ 00698610 f i uafxcwd:olemisc.obj
 0002:00136660       ??9?$CComPtrBase@UIOleLink@@@ATL@@QBE_NPAUIOleLink@@@Z 00698660 f i uafxcwd:olemisc.obj
 0002:00136690       ??0?$CComPtr@UIBindCtx@@@ATL@@QAE@XZ 00698690 f i uafxcwd:olemisc.obj
 0002:001366b0       ??1?$CComPtrBase@UIBindCtx@@@ATL@@QAE@XZ 006986b0 f i uafxcwd:olemisc.obj
 0002:001366e0       ??B?$CComPtrBase@UIBindCtx@@@ATL@@QBEPAUIBindCtx@@XZ 006986e0 f i uafxcwd:olemisc.obj
 0002:00136700       ??I?$CComPtrBase@UIBindCtx@@@ATL@@QAEPAPAUIBindCtx@@XZ 00698700 f i uafxcwd:olemisc.obj
 0002:00136750       ??0?$CHeapPtr@_WVCComAllocator@ATL@@@ATL@@QAE@XZ 00698750 f i uafxcwd:olemisc.obj
 0002:00136770       ?AllocateBytes@?$CHeapPtrBase@_WVCComAllocator@ATL@@@ATL@@QAE_NI@Z 00698770 f i uafxcwd:olemisc.obj
 0002:001367e0       ?Free@?$CHeapPtrBase@_WVCComAllocator@ATL@@@ATL@@QAEXXZ 006987e0 f i uafxcwd:olemisc.obj
 0002:00136810       ??0?$CComPtrBase@UIMoniker@@@ATL@@IAE@XZ 00698810 f i uafxcwd:olemisc.obj
 0002:00136830       ??0?$CComPtr@UIViewObject2@@@ATL@@QAE@XZ 00698830 f i uafxcwd:olemisc.obj
 0002:00136850       ??0?$CComPtr@UIOleLink@@@ATL@@QAE@XZ 00698850 f i uafxcwd:olemisc.obj
 0002:00136870       ??8?$CComPtrBase@UIOleLink@@@ATL@@QBE_NPAUIOleLink@@@Z 00698870 f i uafxcwd:olemisc.obj
 0002:001368a0       ??0?$CComPtrBase@UIBindCtx@@@ATL@@IAE@XZ 006988a0 f i uafxcwd:olemisc.obj
 0002:001368c0       ??0?$CHeapPtrBase@_WVCComAllocator@ATL@@@ATL@@IAE@XZ 006988c0 f i uafxcwd:olemisc.obj
 0002:001368e0       ??0?$CComPtrBase@UIViewObject2@@@ATL@@IAE@XZ 006988e0 f i uafxcwd:olemisc.obj
 0002:00136900       ??0?$CComPtrBase@UIOleLink@@@ATL@@IAE@XZ 00698900 f i uafxcwd:olemisc.obj
 0002:00136920       ?DEVMODEOLE2T_EX@@YAPAU_devicemodeW@@PAU1@@Z 00698920 f i uafxcwd:olemisc.obj
 0002:00136930       ?DEVMODET2OLE_EX@@YAPAU_devicemodeW@@PAU1@@Z 00698930 f i uafxcwd:olemisc.obj
 0002:00136940       ?wcscpy_s@Checked@ATL@@YAXPA_WIPB_W@Z 00698940 f i uafxcwd:olemisc.obj
 0002:00136970       ?Allocate@CComAllocator@ATL@@SAPAXI@Z 00698970 f i uafxcwd:olemisc.obj
 0002:00136990       ?Free@CComAllocator@ATL@@SAXPAX@Z 00698990 f i uafxcwd:olemisc.obj
 0002:001369b0       ?TASKSTRINGOLE2T@@YAPA_WPA_W@Z 006989b0 f i uafxcwd:olemisc.obj
 0002:001369c0       ??0?$CAtlSafeAllocBufferManager@VCCRTAllocator@ATL@@@_ATL_SAFE_ALLOCA_IMPL@ATL@@QAE@XZ 006989c0 f i uafxcwd:olemisc.obj
 0002:001369e0       ??1?$CAtlSafeAllocBufferManager@VCCRTAllocator@ATL@@@_ATL_SAFE_ALLOCA_IMPL@ATL@@QAE@XZ 006989e0 f i uafxcwd:olemisc.obj
 0002:00136a30       ?Free@CCRTAllocator@ATL@@SAXPAX@Z 00698a30 f i uafxcwd:olemisc.obj
 0002:00136a50       ??3CException@@SGXPAX@Z    00698a50 f   uafxcwd:except.obj
 0002:00136ad0       ??3CException@@SGXPAXPBDH@Z 00698ad0 f   uafxcwd:except.obj
 0002:00136af0       ??0CException@@QAE@XZ      00698af0 f   uafxcwd:except.obj
 0002:00136b40       ??0CException@@QAE@H@Z     00698b40 f   uafxcwd:except.obj
 0002:00136b90       ?Delete@CException@@QAEXXZ 00698b90 f   uafxcwd:except.obj
 0002:00136c00       ?GetErrorMessage@CException@@UBEHPA_WIPAI@Z 00698c00 f   uafxcwd:except.obj
 0002:00136c50       ?GetErrorMessage@CException@@UAEHPA_WIPAI@Z 00698c50 f   uafxcwd:except.obj
 0002:00136c90       ?ReportError@CException@@UAEHII@Z 00698c90 f   uafxcwd:except.obj
 0002:00136d60       ??0AFX_EXCEPTION_LINK@@QAE@XZ 00698d60 f   uafxcwd:except.obj
 0002:00136db0       ?AfxGetExceptionContext@@YAPAUAFX_EXCEPTION_CONTEXT@@XZ 00698db0 f i uafxcwd:except.obj
 0002:00136df0       ?AfxTryCleanup@@YGXXZ      00698df0 f   uafxcwd:except.obj
 0002:00136e70       ?AfxThrowLastCleanup@@YGXXZ 00698e70 f   uafxcwd:except.obj
 0002:00136eb0       ?GetRuntimeClass@CException@@UBEPAUCRuntimeClass@@XZ 00698eb0 f   uafxcwd:except.obj
 0002:00136ed0       ?GetRuntimeClass@CSimpleException@@UBEPAUCRuntimeClass@@XZ 00698ed0 f   uafxcwd:except.obj
 0002:00136ef0       ?GetRuntimeClass@CMemoryException@@UBEPAUCRuntimeClass@@XZ 00698ef0 f   uafxcwd:except.obj
 0002:00136f10       ?GetRuntimeClass@CNotSupportedException@@UBEPAUCRuntimeClass@@XZ 00698f10 f   uafxcwd:except.obj
 0002:00136f30       ?GetRuntimeClass@CInvalidArgException@@UBEPAUCRuntimeClass@@XZ 00698f30 f   uafxcwd:except.obj
 0002:00136f50       ?InitString@CSimpleException@@QAEXXZ 00698f50 f   uafxcwd:except.obj
 0002:00136fa0       ?GetErrorMessage@CSimpleException@@UBEHPA_WIPAI@Z 00698fa0 f   uafxcwd:except.obj
 0002:00137070       ?AfxThrowMemoryException@@YGXXZ 00699070 f   uafxcwd:except.obj
 0002:001370a0       ?AfxThrowNotSupportedException@@YGXXZ 006990a0 f   uafxcwd:except.obj
 0002:001370d0       ?AfxThrowInvalidArgException@@YGXXZ 006990d0 f   uafxcwd:except.obj
 0002:00137100       ?AfxA2WHelper@@YGPA_WPA_WPBDH@Z 00699100 f   uafxcwd:strcore.obj
 0002:00137130       ?AfxW2AHelper@@YGPADPADPB_WH@Z 00699130 f   uafxcwd:strcore.obj
 0002:00137160       ??$HashKey@VCComBSTR@ATL@@@@YGIVCComBSTR@ATL@@@Z 00699160 f   uafxcwd:strcore.obj
 0002:001371f0       ??$SerializeElements@VCComBSTR@ATL@@@@YGXAAVCArchive@@PAVCComBSTR@ATL@@H@Z 006991f0 f   uafxcwd:strcore.obj
 0002:00137210       ??$HashKey@PB_W@@YGIPB_W@Z 00699210 f   uafxcwd:strcore.obj
 0002:001372b0       ??$HashKey@PBD@@YGIPBD@Z   006992b0 f   uafxcwd:strcore.obj
 0002:00137350       ??$SerializeElements@V?$CStringT@DV?$StrTraitMFC@DV?$ChTraitsCRT@D@ATL@@@@@ATL@@@@YGXAAVCArchive@@PAV?$CStringT@DV?$StrTraitMFC@DV?$ChTraitsCRT@D@ATL@@@@@ATL@@H@Z 00699350 f   uafxcwd:strcore.obj
 0002:00137370       ??$SerializeElements@V?$CStringT@_WV?$StrTraitMFC@_WV?$ChTraitsCRT@_W@ATL@@@@@ATL@@@@YGXAAVCArchive@@PAV?$CStringT@_WV?$StrTraitMFC@_WV?$ChTraitsCRT@_W@ATL@@@@@ATL@@H@Z 00699370 f   uafxcwd:strcore.obj
 0002:00137390       ?AfxGetStringManager@@YGPAUIAtlStringMgr@ATL@@XZ 00699390 f   uafxcwd:strcore.obj
 0002:001373a0       ?Allocate@CAfxStringMgr@@UAEPAUCStringData@ATL@@HH@Z 006993a0 f   uafxcwd:strcore.obj
 0002:00137470       ?Free@CAfxStringMgr@@UAEXPAUCStringData@ATL@@@Z 00699470 f   uafxcwd:strcore.obj
 0002:001374a0       ?Reallocate@CAfxStringMgr@@UAEPAUCStringData@ATL@@PAU23@HH@Z 006994a0 f   uafxcwd:strcore.obj
 0002:00137550       ?GetNilString@CAfxStringMgr@@UAEPAUCStringData@ATL@@XZ 00699550 f   uafxcwd:strcore.obj
 0002:00137580       ?Clone@CAfxStringMgr@@UAEPAUIAtlStringMgr@ATL@@XZ 00699580 f   uafxcwd:strcore.obj
 0002:001375a0       ??$SerializeElementsInsertExtract@VCComBSTR@ATL@@@@YGXAAVCArchive@@PAVCComBSTR@ATL@@H@Z 006995a0 f i uafxcwd:strcore.obj
 0002:001376f0       ??$SerializeElementsInsertExtract@V?$CStringT@DV?$StrTraitMFC@DV?$ChTraitsCRT@D@ATL@@@@@ATL@@@@YGXAAVCArchive@@PAV?$CStringT@DV?$StrTraitMFC@DV?$ChTraitsCRT@D@ATL@@@@@ATL@@H@Z 006996f0 f i uafxcwd:strcore.obj
 0002:00137820       ??$SerializeElementsInsertExtract@V?$CStringT@_WV?$StrTraitMFC@_WV?$ChTraitsCRT@_W@ATL@@@@@ATL@@@@YGXAAVCArchive@@PAV?$CStringT@_WV?$StrTraitMFC@_WV?$ChTraitsCRT@_W@ATL@@@@@ATL@@H@Z 00699820 f i uafxcwd:strcore.obj
 0002:00137950       ??$?6DV?$StrTraitMFC@DV?$ChTraitsCRT@D@ATL@@@@@CArchive@@QAEAAV0@ABV?$CStringT@DV?$StrTraitMFC@DV?$ChTraitsCRT@D@ATL@@@@@ATL@@@Z 00699950 f i uafxcwd:strcore.obj
 0002:001379a0       ??$?5DV?$StrTraitMFC@DV?$ChTraitsCRT@D@ATL@@@@@CArchive@@QAEAAV0@AAV?$CStringT@DV?$StrTraitMFC@DV?$ChTraitsCRT@D@ATL@@@@@ATL@@@Z 006999a0 f i uafxcwd:strcore.obj
 0002:00137c00       ??$?6_WV?$StrTraitMFC@_WV?$ChTraitsCRT@_W@ATL@@@@@CArchive@@QAEAAV0@ABV?$CStringT@_WV?$StrTraitMFC@_WV?$ChTraitsCRT@_W@ATL@@@@@ATL@@@Z 00699c00 f i uafxcwd:strcore.obj
 0002:00137c60       ??$?5_WV?$StrTraitMFC@_WV?$ChTraitsCRT@_W@ATL@@@@@CArchive@@QAEAAV0@AAV?$CStringT@_WV?$StrTraitMFC@_WV?$ChTraitsCRT@_W@ATL@@@@@ATL@@@Z 00699c60 f i uafxcwd:strcore.obj
 0002:00137ec0       ??0?$CStringT@_WV?$StrTraitMFC@_WV?$ChTraitsCRT@_W@ATL@@@@@ATL@@QAE@PB_WH@Z 00699ec0 f i uafxcwd:strcore.obj
 0002:00137f00       ??0?$CStringT@DV?$StrTraitMFC@DV?$ChTraitsCRT@D@ATL@@@@@ATL@@QAE@PBDH@Z 00699f00 f i uafxcwd:strcore.obj
 0002:00137f40       ??0?$CStringT@DV?$StrTraitMFC@DV?$ChTraitsCRT@D@ATL@@@@@ATL@@QAE@PB_WH@Z 00699f40 f i uafxcwd:strcore.obj
 0002:001380a0       ??4?$CStringT@DV?$StrTraitMFC@DV?$ChTraitsCRT@D@ATL@@@@@ATL@@QAEAAV01@ABV01@@Z 0069a0a0 f i uafxcwd:strcore.obj
 0002:001380d0       ??B?$CSimpleStringT@D$0A@@ATL@@QBEPBDXZ 0069a0d0 f i uafxcwd:strcore.obj
 0002:001380f0       ??0?$CTempBuffer@D$0IA@VCCRTAllocator@ATL@@@ATL@@QAE@I@Z 0069a0f0 f i uafxcwd:strcore.obj
 0002:00138120       ??1?$CTempBuffer@D$0IA@VCCRTAllocator@ATL@@@ATL@@QAE@XZ 0069a120 f i uafxcwd:strcore.obj
 0002:00138150       ??B?$CTempBuffer@D$0IA@VCCRTAllocator@ATL@@@ATL@@QBEPADXZ 0069a150 f i uafxcwd:strcore.obj
 0002:00138170       ??0?$CTempBuffer@_W$0IA@VCCRTAllocator@ATL@@@ATL@@QAE@I@Z 0069a170 f i uafxcwd:strcore.obj
 0002:001381a0       ??1?$CTempBuffer@_W$0IA@VCCRTAllocator@ATL@@@ATL@@QAE@XZ 0069a1a0 f i uafxcwd:strcore.obj
 0002:001381d0       ??B?$CTempBuffer@_W$0IA@VCCRTAllocator@ATL@@@ATL@@QBEPA_WXZ 0069a1d0 f i uafxcwd:strcore.obj
 0002:001381f0       ??0?$CSimpleStringT@D$0A@@ATL@@QAE@PBDHPAUIAtlStringMgr@1@@Z 0069a1f0 f i uafxcwd:strcore.obj
 0002:001382f0       ??4?$CSimpleStringT@D$0A@@ATL@@QAEAAV01@ABV01@@Z 0069a2f0 f i uafxcwd:strcore.obj
 0002:001383a0       ?GetBaseTypeLength@?$ChTraitsCRT@D@ATL@@SAHPB_WH@Z 0069a3a0 f i uafxcwd:strcore.obj
 0002:001383d0       ?Allocate@?$CTempBuffer@D$0IA@VCCRTAllocator@ATL@@@ATL@@QAEPADI@Z 0069a3d0 f i uafxcwd:strcore.obj
 0002:00138400       ?FreeHeap@?$CTempBuffer@D$0IA@VCCRTAllocator@ATL@@@ATL@@AAEXXZ 0069a400 f i uafxcwd:strcore.obj
 0002:00138430       ?Allocate@?$CTempBuffer@_W$0IA@VCCRTAllocator@ATL@@@ATL@@QAEPA_WI@Z 0069a430 f i uafxcwd:strcore.obj
 0002:00138460       ?FreeHeap@?$CTempBuffer@_W$0IA@VCCRTAllocator@ATL@@@ATL@@AAEXXZ 0069a460 f i uafxcwd:strcore.obj
 0002:00138490       ?GetString@?$CSimpleStringT@D$0A@@ATL@@QBEPBDXZ 0069a490 f i uafxcwd:strcore.obj
 0002:001384b0       ?SetString@?$CSimpleStringT@D$0A@@ATL@@QAEXPBDH@Z 0069a4b0 f i uafxcwd:strcore.obj
 0002:00138590       ?CloneData@?$CSimpleStringT@D$0A@@ATL@@CAPAUCStringData@2@PAU32@@Z 0069a590 f i uafxcwd:strcore.obj
 0002:00138670       ?AllocateBytes@?$CTempBuffer@D$0IA@VCCRTAllocator@ATL@@@ATL@@QAEPADI@Z 0069a670 f i uafxcwd:strcore.obj
 0002:001386f0       ?AllocateBytes@?$CTempBuffer@_W$0IA@VCCRTAllocator@ATL@@@ATL@@QAEPA_WI@Z 0069a6f0 f i uafxcwd:strcore.obj
 0002:00138770       ?GetAllocLength@?$CSimpleStringT@D$0A@@ATL@@QBEHXZ 0069a770 f i uafxcwd:strcore.obj
 0002:00138790       ?CopyCharsOverlapped@?$CSimpleStringT@D$0A@@ATL@@SAXPADIPBDH@Z 0069a790 f i uafxcwd:strcore.obj
 0002:001387c0       ?AllocateHeap@?$CTempBuffer@D$0IA@VCCRTAllocator@ATL@@@ATL@@AAEXI@Z 0069a7c0 f i uafxcwd:strcore.obj
 0002:00138810       ?AllocateHeap@?$CTempBuffer@_W$0IA@VCCRTAllocator@ATL@@@ATL@@AAEXI@Z 0069a810 f i uafxcwd:strcore.obj
 0002:00138860       ?Allocate@CCRTAllocator@ATL@@SAPAXI@Z 0069a860 f i uafxcwd:strcore.obj
 0002:00138880       ?AtlA2WHelper@@YGPA_WPA_WPBDHI@Z 0069a880 f i uafxcwd:strcore.obj
 0002:00138980       ?AtlW2AHelper@@YGPADPADPB_WHI@Z 0069a980 f i uafxcwd:strcore.obj
 0002:00138a80       ?AtlIsValidAddress@ATL@@YAHPBXIH@Z 0069aa80 f i uafxcwd:strcore.obj
 0002:00138aa0       ??0CComBSTR@ATL@@QAE@ABV01@@Z 0069aaa0 f i uafxcwd:strcore.obj
 0002:00138b00       ?Length@CComBSTR@ATL@@QBEIXZ 0069ab00 f i uafxcwd:strcore.obj
 0002:00138b20       ?Copy@CComBSTR@ATL@@QBEPA_WXZ 0069ab20 f i uafxcwd:strcore.obj
 0002:00138b90       ??7CComBSTR@ATL@@QBE_NXZ   0069ab90 f i uafxcwd:strcore.obj
 0002:00138bb0       ??0?$CStringT@_WV?$StrTraitMFC@_WV?$ChTraitsCRT@_W@ATL@@@@@ATL@@QAE@PBDH@Z 0069abb0 f i uafxcwd:strcore.obj
 0002:00138d10       ?GetBaseTypeLength@?$ChTraitsCRT@_W@ATL@@SAHPBDH@Z 0069ad10 f i uafxcwd:strcore.obj
 0002:00138d40       ??1?$CStringT@DV?$StrTraitMFC@DV?$ChTraitsCRT@D@ATL@@@@@ATL@@QAE@XZ 0069ad40 f i uafxcwd:strcore.obj
 0002:00138d60       ?Empty@?$CSimpleStringT@D$0A@@ATL@@QAEXXZ 0069ad60 f i uafxcwd:strcore.obj
 0002:00138df0       ?GetLength@?$CSimpleStringT@D$0A@@ATL@@QBEHXZ 0069adf0 f i uafxcwd:strcore.obj
 0002:00138e10       ??0?$CSimpleStringT@D$0A@@ATL@@QAE@PAUIAtlStringMgr@1@@Z 0069ae10 f i uafxcwd:strcore.obj
 0002:00138eb0       ??1?$CSimpleStringT@D$0A@@ATL@@QAE@XZ 0069aeb0 f i uafxcwd:strcore.obj
 0002:00138ee0       ?GetBuffer@?$CSimpleStringT@D$0A@@ATL@@QAEPADH@Z 0069aee0 f i uafxcwd:strcore.obj
 0002:00138f10       ?ReleaseBufferSetLength@?$CSimpleStringT@D$0A@@ATL@@QAEXH@Z 0069af10 f i uafxcwd:strcore.obj
 0002:00138f70       ?Attach@?$CSimpleStringT@D$0A@@ATL@@AAEXPAUCStringData@2@@Z 0069af70 f i uafxcwd:strcore.obj
 0002:00138fa0       ?GetData@?$CSimpleStringT@D$0A@@ATL@@ABEPAUCStringData@2@XZ 0069afa0 f i uafxcwd:strcore.obj
 0002:00138fc0       ?SetLength@?$CSimpleStringT@D$0A@@ATL@@AAEXH@Z 0069afc0 f i uafxcwd:strcore.obj
 0002:00139090       ?GetDefaultManager@?$StrTraitMFC@DV?$ChTraitsCRT@D@ATL@@@@SAPAUIAtlStringMgr@ATL@@XZ 0069b090 f i uafxcwd:strcore.obj
 0002:001390a0       ?ConvertToBaseType@?$ChTraitsCRT@D@ATL@@SAXPADHPB_WH@Z 0069b0a0 f i uafxcwd:strcore.obj
 0002:001390e0       ?CopyChars@?$CSimpleStringT@D$0A@@ATL@@SAXPADIPBDH@Z 0069b0e0 f i uafxcwd:strcore.obj
 0002:00139110       ?ThrowMemoryException@?$CSimpleStringT@D$0A@@ATL@@KAXXZ 0069b110 f i uafxcwd:strcore.obj
 0002:00139130       ?PrepareWrite@?$CSimpleStringT@D$0A@@ATL@@AAEPADH@Z 0069b130 f i uafxcwd:strcore.obj
 0002:001391a0       ?PrepareWrite2@?$CSimpleStringT@D$0A@@ATL@@AAEXH@Z 0069b1a0 f i uafxcwd:strcore.obj
 0002:00139260       ?Fork@?$CSimpleStringT@D$0A@@ATL@@AAEXH@Z 0069b260 f i uafxcwd:strcore.obj
 0002:00139350       ?Reallocate@?$CSimpleStringT@D$0A@@ATL@@AAEXH@Z 0069b350 f i uafxcwd:strcore.obj
 0002:00139410       ??$AtlMultiplyThrow@I@ATL@@YAIII@Z 0069b410 f i uafxcwd:strcore.obj
 0002:00139460       ??0CAfxStringMgr@@QAE@XZ   0069b460 f i uafxcwd:strcore.obj
 0002:001394a0       ??0CNilStringData@ATL@@QAE@XZ 0069b4a0 f i uafxcwd:strcore.obj
 0002:00139500       ?SetManager@CNilStringData@ATL@@QAEXPAUIAtlStringMgr@2@@Z 0069b500 f i uafxcwd:strcore.obj
 0002:00139550       ?Create@CDateTimeCtrl@@UAEHKABUtagRECT@@PAVCWnd@@I@Z 0069b550 f   uafxcwd:winctrl5.obj
 0002:001395d0       ?GetRange@CDateTimeCtrl@@QBEKPAVCTime@ATL@@0@Z 0069b5d0 f   uafxcwd:winctrl5.obj
 0002:001396b0       ?GetRange@CDateTimeCtrl@@QBEKPAVCOleDateTime@ATL@@0@Z 0069b6b0 f   uafxcwd:winctrl5.obj
 0002:001397c0       ?SetRange@CDateTimeCtrl@@QAEHPBVCTime@ATL@@0@Z 0069b7c0 f   uafxcwd:winctrl5.obj
 0002:00139880       ?SetRange@CDateTimeCtrl@@QAEHPBVCOleDateTime@ATL@@0@Z 0069b880 f   uafxcwd:winctrl5.obj
 0002:001399c0       ?SetTime@CDateTimeCtrl@@QAEHPAU_SYSTEMTIME@@@Z 0069b9c0 f   uafxcwd:winctrl5.obj
 0002:00139a30       ?SetTime@CDateTimeCtrl@@QAEHABVCOleDateTime@ATL@@@Z 0069ba30 f   uafxcwd:winctrl5.obj
 0002:00139b10       ?SetTime@CDateTimeCtrl@@QAEHPBVCTime@ATL@@@Z 0069bb10 f   uafxcwd:winctrl5.obj
 0002:00139bc0       ?GetTime@CDateTimeCtrl@@QBEHAAVCOleDateTime@ATL@@@Z 0069bbc0 f   uafxcwd:winctrl5.obj
 0002:00139c90       ?GetTime@CDateTimeCtrl@@QBEKAAVCTime@ATL@@@Z 0069bc90 f   uafxcwd:winctrl5.obj
 0002:00139d00       ??1CDateTimeCtrl@@UAE@XZ   0069bd00 f   uafxcwd:winctrl5.obj
 0002:00139d80       ??_ECDateTimeCtrl@@UAEPAXI@Z 0069bd80 f i uafxcwd:winctrl5.obj
 0002:00139d80       ??_GCDateTimeCtrl@@UAEPAXI@Z 0069bd80 f i uafxcwd:winctrl5.obj
 0002:00139dc0       ?Create@CMonthCalCtrl@@UAEHKABUtagRECT@@PAVCWnd@@I@Z 0069bdc0 f   uafxcwd:winctrl5.obj
 0002:00139e40       ?Create@CMonthCalCtrl@@UAEHKABUtagPOINT@@PAVCWnd@@I@Z 0069be40 f   uafxcwd:winctrl5.obj
 0002:00139f10       ?SizeMinReq@CMonthCalCtrl@@QAEHH@Z 0069bf10 f   uafxcwd:winctrl5.obj
 0002:00139fb0       ?SetToday@CMonthCalCtrl@@QAEXABVCOleDateTime@ATL@@@Z 0069bfb0 f   uafxcwd:winctrl5.obj
 0002:0013a0b0       ?SetToday@CMonthCalCtrl@@QAEXPBVCTime@ATL@@@Z 0069c0b0 f   uafxcwd:winctrl5.obj
 0002:0013a190       ?SetCurSel@CMonthCalCtrl@@QAEHABVCOleDateTime@ATL@@@Z 0069c190 f   uafxcwd:winctrl5.obj
 0002:0013a230       ?SetCurSel@CMonthCalCtrl@@QAEHABVCTime@ATL@@@Z 0069c230 f   uafxcwd:winctrl5.obj
 0002:0013a2c0       ?GetCurSel@CMonthCalCtrl@@QBEHAAVCOleDateTime@ATL@@@Z 0069c2c0 f   uafxcwd:winctrl5.obj
 0002:0013a380       ?GetToday@CMonthCalCtrl@@QBEHAAVCOleDateTime@ATL@@@Z 0069c380 f   uafxcwd:winctrl5.obj
 0002:0013a440       ?GetCurSel@CMonthCalCtrl@@QBEHAAVCTime@ATL@@@Z 0069c440 f   uafxcwd:winctrl5.obj
 0002:0013a4f0       ?GetToday@CMonthCalCtrl@@QBEHAAVCTime@ATL@@@Z 0069c4f0 f   uafxcwd:winctrl5.obj
 0002:0013a5b0       ??1CMonthCalCtrl@@UAE@XZ   0069c5b0 f   uafxcwd:winctrl5.obj
 0002:0013a630       ??_ECMonthCalCtrl@@UAEPAXI@Z 0069c630 f i uafxcwd:winctrl5.obj
 0002:0013a630       ??_GCMonthCalCtrl@@UAEPAXI@Z 0069c630 f i uafxcwd:winctrl5.obj
 0002:0013a670       ?GetFirstDayOfWeek@CMonthCalCtrl@@QBEHPAH@Z 0069c670 f   uafxcwd:winctrl5.obj
 0002:0013a710       ?SetFirstDayOfWeek@CMonthCalCtrl@@QAEHHPAH@Z 0069c710 f   uafxcwd:winctrl5.obj
 0002:0013a7b0       ?SetDayState@CMonthCalCtrl@@QAEHHPAK@Z 0069c7b0 f   uafxcwd:winctrl5.obj
 0002:0013a870       ?SetRange@CMonthCalCtrl@@QAEHPBVCOleDateTime@ATL@@0@Z 0069c870 f   uafxcwd:winctrl5.obj
 0002:0013a9c0       ?SetRange@CMonthCalCtrl@@QAEHQAU_SYSTEMTIME@@0@Z 0069c9c0 f   uafxcwd:winctrl5.obj
 0002:0013aaa0       ?GetRange@CMonthCalCtrl@@QBEKPAVCOleDateTime@ATL@@0@Z 0069caa0 f   uafxcwd:winctrl5.obj
 0002:0013ab90       ?GetRange@CMonthCalCtrl@@QBEKPAU_SYSTEMTIME@@0@Z 0069cb90 f   uafxcwd:winctrl5.obj
 0002:0013ac80       ?SetRange@CMonthCalCtrl@@QAEHPBVCTime@ATL@@0@Z 0069cc80 f   uafxcwd:winctrl5.obj
 0002:0013ad50       ?GetRange@CMonthCalCtrl@@QBEKPAVCTime@ATL@@0@Z 0069cd50 f   uafxcwd:winctrl5.obj
 0002:0013ae40       ?GetMonthRange@CMonthCalCtrl@@QBEHAAVCOleDateTime@ATL@@0K@Z 0069ce40 f   uafxcwd:winctrl5.obj
 0002:0013af40       ?GetMonthRange@CMonthCalCtrl@@QBEHPAU_SYSTEMTIME@@0K@Z 0069cf40 f   uafxcwd:winctrl5.obj
 0002:0013b060       ?GetMonthRange@CMonthCalCtrl@@QBEHAAVCTime@ATL@@0K@Z 0069d060 f   uafxcwd:winctrl5.obj
 0002:0013b150       ?GetSelRange@CMonthCalCtrl@@QBEHPAU_SYSTEMTIME@@0@Z 0069d150 f   uafxcwd:winctrl5.obj
 0002:0013b290       ?SetSelRange@CMonthCalCtrl@@QAEHQAU_SYSTEMTIME@@0@Z 0069d290 f   uafxcwd:winctrl5.obj
 0002:0013b3c0       ?SetSelRange@CMonthCalCtrl@@QAEHABVCOleDateTime@ATL@@0@Z 0069d3c0 f   uafxcwd:winctrl5.obj
 0002:0013b4b0       ?GetSelRange@CMonthCalCtrl@@QBEHAAVCOleDateTime@ATL@@0@Z 0069d4b0 f   uafxcwd:winctrl5.obj
 0002:0013b5b0       ?SetSelRange@CMonthCalCtrl@@QAEHABVCTime@ATL@@0@Z 0069d5b0 f   uafxcwd:winctrl5.obj
 0002:0013b680       ?GetSelRange@CMonthCalCtrl@@QBEHAAVCTime@ATL@@0@Z 0069d680 f   uafxcwd:winctrl5.obj
 0002:0013b780       ?DDX_DateTimeCtrl@@YGXPAVCDataExchange@@HAAVCOleDateTime@ATL@@@Z 0069d780 f   uafxcwd:winctrl5.obj
 0002:0013b820       ?DDX_DateTimeCtrl@@YGXPAVCDataExchange@@HAAU_FILETIME@@@Z 0069d820 f   uafxcwd:winctrl5.obj
 0002:0013b8f0       ?DDX_DateTimeCtrl@@YGXPAVCDataExchange@@HAAVCTime@ATL@@@Z 0069d8f0 f   uafxcwd:winctrl5.obj
 0002:0013b990       ?DDX_DateTimeCtrl@@YGXPAVCDataExchange@@HAAV?$CStringT@_WV?$StrTraitMFC@_WV?$ChTraitsCRT@_W@ATL@@@@@ATL@@@Z 0069d990 f   uafxcwd:winctrl5.obj
 0002:0013ba00       ?DDX_MonthCalCtrl@@YGXPAVCDataExchange@@HAAVCOleDateTime@ATL@@@Z 0069da00 f   uafxcwd:winctrl5.obj
 0002:0013baa0       ?DDX_MonthCalCtrl@@YGXPAVCDataExchange@@HAAU_FILETIME@@@Z 0069daa0 f   uafxcwd:winctrl5.obj
 0002:0013bb70       ?DDX_MonthCalCtrl@@YGXPAVCDataExchange@@HAAVCTime@ATL@@@Z 0069db70 f   uafxcwd:winctrl5.obj
 0002:0013bc10       ?DDV_MinMaxDateTime@@YGXPAVCDataExchange@@AAVCTime@ATL@@PBV23@2@Z 0069dc10 f   uafxcwd:winctrl5.obj
 0002:0013bd80       ?DDV_MinMaxDateTime@@YGXPAVCDataExchange@@AAVCOleDateTime@ATL@@PBV23@2@Z 0069dd80 f   uafxcwd:winctrl5.obj
 0002:0013bed0       ?DDV_MinMaxMonth@@YGXPAVCDataExchange@@AAVCTime@ATL@@PBV23@2@Z 0069ded0 f   uafxcwd:winctrl5.obj
 0002:0013c040       ?DDV_MinMaxMonth@@YGXPAVCDataExchange@@AAVCOleDateTime@ATL@@PBV23@2@Z 0069e040 f   uafxcwd:winctrl5.obj
 0002:0013c190       ??0CDateTimeCtrl@@QAE@XZ   0069e190 f   uafxcwd:winctrl5.obj
 0002:0013c1c0       ?GetMonthCalFont@CDateTimeCtrl@@QBEPAVCFont@@XZ 0069e1c0 f   uafxcwd:winctrl5.obj
 0002:0013c220       ?GetMonthCalCtrl@CDateTimeCtrl@@QBEPAVCMonthCalCtrl@@XZ 0069e220 f   uafxcwd:winctrl5.obj
 0002:0013c280       ?SetMonthCalFont@CDateTimeCtrl@@QAEXPAUHFONT__@@H@Z 0069e280 f   uafxcwd:winctrl5.obj
 0002:0013c2f0       ?SetMonthCalColor@CDateTimeCtrl@@QAEKHK@Z 0069e2f0 f   uafxcwd:winctrl5.obj
 0002:0013c350       ?GetTime@CDateTimeCtrl@@QBEKPAU_SYSTEMTIME@@@Z 0069e350 f   uafxcwd:winctrl5.obj
 0002:0013c3d0       ?GetMonthCalColor@CDateTimeCtrl@@QBEKH@Z 0069e3d0 f   uafxcwd:winctrl5.obj
 0002:0013c430       ?SetFormat@CDateTimeCtrl@@QAEHPB_W@Z 0069e430 f   uafxcwd:winctrl5.obj
 0002:0013c490       ?SetMonthCalStyle@CDateTimeCtrl@@QAEKK@Z 0069e490 f   uafxcwd:winctrl5.obj
 0002:0013c4f0       ?GetMonthCalStyle@CDateTimeCtrl@@QBEKXZ 0069e4f0 f   uafxcwd:winctrl5.obj
 0002:0013c550       ?GetDateTimePickerInfo@CDateTimeCtrl@@QBEHPAUtagDATETIMEPICKERINFO@@@Z 0069e550 f   uafxcwd:winctrl5.obj
 0002:0013c5e0       ?GetIdealSize@CDateTimeCtrl@@QBEHPAUtagSIZE@@@Z 0069e5e0 f   uafxcwd:winctrl5.obj
 0002:0013c640       ?CloseMonthCal@CDateTimeCtrl@@QAEXXZ 0069e640 f   uafxcwd:winctrl5.obj
 0002:0013c6a0       ??0CMonthCalCtrl@@QAE@XZ   0069e6a0 f   uafxcwd:winctrl5.obj
 0002:0013c6d0       ?HitTest@CMonthCalCtrl@@QAEKPAUMCHITTESTINFO@@@Z 0069e6d0 f   uafxcwd:winctrl5.obj
 0002:0013c730       ?GetMinReqRect@CMonthCalCtrl@@QBEHPAUtagRECT@@@Z 0069e730 f   uafxcwd:winctrl5.obj
 0002:0013c790       ?SetMonthDelta@CMonthCalCtrl@@QAEHH@Z 0069e790 f   uafxcwd:winctrl5.obj
 0002:0013c7f0       ?GetMonthDelta@CMonthCalCtrl@@QBEHXZ 0069e7f0 f   uafxcwd:winctrl5.obj
 0002:0013c840       ?GetColor@CMonthCalCtrl@@QBEKH@Z 0069e840 f   uafxcwd:winctrl5.obj
 0002:0013c8a0       ?SetColor@CMonthCalCtrl@@QAEKHK@Z 0069e8a0 f   uafxcwd:winctrl5.obj
 0002:0013c900       ?SetMaxSelCount@CMonthCalCtrl@@QAEHH@Z 0069e900 f   uafxcwd:winctrl5.obj
 0002:0013c960       ?GetMaxSelCount@CMonthCalCtrl@@QBEHXZ 0069e960 f   uafxcwd:winctrl5.obj
 0002:0013c9b0       ?SetToday@CMonthCalCtrl@@QAEXQAU_SYSTEMTIME@@@Z 0069e9b0 f   uafxcwd:winctrl5.obj
 0002:0013ca10       ?GetToday@CMonthCalCtrl@@QBEHPAU_SYSTEMTIME@@@Z 0069ea10 f   uafxcwd:winctrl5.obj
 0002:0013ca70       ?SetCurSel@CMonthCalCtrl@@QAEHQAU_SYSTEMTIME@@@Z 0069ea70 f   uafxcwd:winctrl5.obj
 0002:0013cad0       ?GetCurSel@CMonthCalCtrl@@QBEHPAU_SYSTEMTIME@@@Z 0069ead0 f   uafxcwd:winctrl5.obj
 0002:0013cb60       ?GetMaxTodayWidth@CMonthCalCtrl@@QBEKXZ 0069eb60 f   uafxcwd:winctrl5.obj
 0002:0013cbb0       ?IsMonthView@CMonthCalCtrl@@QBEHXZ 0069ebb0 f   uafxcwd:winctrl5.obj
 0002:0013cc00       ?IsYearView@CMonthCalCtrl@@QBEHXZ 0069ec00 f   uafxcwd:winctrl5.obj
 0002:0013cc50       ?IsDecadeView@CMonthCalCtrl@@QBEHXZ 0069ec50 f   uafxcwd:winctrl5.obj
 0002:0013cca0       ?IsCenturyView@CMonthCalCtrl@@QBEHXZ 0069eca0 f   uafxcwd:winctrl5.obj
 0002:0013ccf0       ?GetCurrentView@CMonthCalCtrl@@QBEKXZ 0069ecf0 f   uafxcwd:winctrl5.obj
 0002:0013cd40       ?GetCalendarCount@CMonthCalCtrl@@QBEHXZ 0069ed40 f   uafxcwd:winctrl5.obj
 0002:0013cd90       ?GetCalendarGridInfo@CMonthCalCtrl@@QBEHPAUtagMCGRIDINFO@@@Z 0069ed90 f   uafxcwd:winctrl5.obj
 0002:0013cdf0       ?GetCalID@CMonthCalCtrl@@QBEKXZ 0069edf0 f   uafxcwd:winctrl5.obj
 0002:0013ce40       ?SetCalID@CMonthCalCtrl@@QAEHK@Z 0069ee40 f   uafxcwd:winctrl5.obj
 0002:0013cea0       ?SizeRectToMin@CMonthCalCtrl@@QAEXPAUtagRECT@@@Z 0069eea0 f   uafxcwd:winctrl5.obj
 0002:0013cf00       ?SetCalendarBorder@CMonthCalCtrl@@QAEXH@Z 0069ef00 f   uafxcwd:winctrl5.obj
 0002:0013cf60       ?SetCalendarBorderDefault@CMonthCalCtrl@@QAEXXZ 0069ef60 f   uafxcwd:winctrl5.obj
 0002:0013cfb0       ?GetCalendarBorder@CMonthCalCtrl@@QBEHXZ 0069efb0 f   uafxcwd:winctrl5.obj
 0002:0013d000       ?SetMonthView@CMonthCalCtrl@@QAEHXZ 0069f000 f   uafxcwd:winctrl5.obj
 0002:0013d040       ?SetYearView@CMonthCalCtrl@@QAEHXZ 0069f040 f   uafxcwd:winctrl5.obj
 0002:0013d080       ?SetDecadeView@CMonthCalCtrl@@QAEHXZ 0069f080 f   uafxcwd:winctrl5.obj
 0002:0013d0c0       ?SetCenturyView@CMonthCalCtrl@@QAEHXZ 0069f0c0 f   uafxcwd:winctrl5.obj
 0002:0013d100       ?SetCurrentView@CMonthCalCtrl@@QAEHK@Z 0069f100 f   uafxcwd:winctrl5.obj
 0002:0013d160       ?GetRuntimeClass@CDateTimeCtrl@@UBEPAUCRuntimeClass@@XZ 0069f160 f   uafxcwd:winctrl5.obj
 0002:0013d180       ?GetRuntimeClass@CMonthCalCtrl@@UBEPAUCRuntimeClass@@XZ 0069f180 f   uafxcwd:winctrl5.obj
 0002:0013d1a0       ?ParseDateTime@COleDateTime@ATL@@QAE_NPB_WKK@Z 0069f1a0 f i uafxcwd:winctrl5.obj
 0002:0013d350       ?T2OLE_EX@@YAPA_WPA_WI@Z   0069f350 f i uafxcwd:winctrl5.obj
 0002:0013d360       ?_AfxFillExceptionInfo@@YGXPAVCFileException@@PB_W@Z 0069f360 f   uafxcwd:filecore.obj
 0002:0013d3b0       ?IsDirSep@@YAH_W@Z         0069f3b0 f i uafxcwd:filecore.obj
 0002:0013d3f0       ??0CFile@@QAE@XZ           0069f3f0 f   uafxcwd:filecore.obj
 0002:0013d440       ??_GCFile@@UAEPAXI@Z       0069f440 f i uafxcwd:filecore.obj
 0002:0013d440       ??_ECFile@@UAEPAXI@Z       0069f440 f i uafxcwd:filecore.obj
 0002:0013d480       ??0CFile@@QAE@PAX@Z        0069f480 f   uafxcwd:filecore.obj
 0002:0013d570       ??0CFile@@QAE@PB_WI@Z      0069f570 f   uafxcwd:filecore.obj
 0002:0013d690       ??1CFile@@UAE@XZ           0069f690 f   uafxcwd:filecore.obj
 0002:0013d8e0       ?Duplicate@CFile@@UBEPAV1@XZ 0069f8e0 f   uafxcwd:filecore.obj
 0002:0013da80       ?Open@CFile@@UAEHPB_WIPAVCFileException@@@Z 0069fa80 f   uafxcwd:filecore.obj
 0002:0013df60       ?StringCchLengthW@@YGJPB_WIPAI@Z 0069ff60 f i uafxcwd:filecore.obj
 0002:0013e060       ?Read@CFile@@UAEIPAXI@Z    006a0060 f   uafxcwd:filecore.obj
 0002:0013e160       ?Write@CFile@@UAEXPBXI@Z   006a0160 f   uafxcwd:filecore.obj
 0002:0013e280       ?Seek@CFile@@UAE_K_JI@Z    006a0280 f   uafxcwd:filecore.obj
 0002:0013e370       ?GetPosition@CFile@@UBE_KXZ 006a0370 f   uafxcwd:filecore.obj
 0002:0013e430       ?Flush@CFile@@UAEXXZ       006a0430 f   uafxcwd:filecore.obj
 0002:0013e4a0       ?Close@CFile@@UAEXXZ       006a04a0 f   uafxcwd:filecore.obj
 0002:0013e570       ?Abort@CFile@@UAEXXZ       006a0570 f   uafxcwd:filecore.obj
 0002:0013e5d0       ?LockRange@CFile@@UAEX_K0@Z 006a05d0 f   uafxcwd:filecore.obj
 0002:0013e690       ?UnlockRange@CFile@@UAEX_K0@Z 006a0690 f   uafxcwd:filecore.obj
 0002:0013e750       ?SetLength@CFile@@UAEX_K@Z 006a0750 f   uafxcwd:filecore.obj
 0002:0013e7f0       ?GetLength@CFile@@UBE_KXZ  006a07f0 f   uafxcwd:filecore.obj
 0002:0013e870       ?GetBufferPtr@CFile@@UAEIIIPAPAX0@Z 006a0870 f   uafxcwd:filecore.obj
 0002:0013e8b0       ?Rename@CFile@@SGXPB_W0@Z  006a08b0 f   uafxcwd:filecore.obj
 0002:0013e8f0       ?Remove@CFile@@SGXPB_W@Z   006a08f0 f   uafxcwd:filecore.obj
 0002:0013e920       ?CreateInstance@AFX_COM@@QAEJABU_GUID@@PAUIUnknown@@0PAPAX@Z 006a0920 f   uafxcwd:filecore.obj
 0002:0013e9d0       ?GetClassObject@AFX_COM@@QAEJABU_GUID@@0PAPAX@Z 006a09d0 f   uafxcwd:filecore.obj
 0002:0013eb90       ?AfxStringFromCLSID@@YG?AV?$CStringT@_WV?$StrTraitMFC@_WV?$ChTraitsCRT@_W@ATL@@@@@ATL@@ABU_GUID@@@Z 006a0b90 f   uafxcwd:filecore.obj
 0002:0013ec80       ?AfxGetInProcServer@@YGHPB_WAAV?$CStringT@_WV?$StrTraitMFC@_WV?$ChTraitsCRT@_W@ATL@@@@@ATL@@@Z 006a0c80 f   uafxcwd:filecore.obj
 0002:0013edb0       ?AfxResolveShortcut@@YGHPAVCWnd@@PB_WPA_WH@Z 006a0db0 f   uafxcwd:filecore.obj
 0002:0013f000       ?_AfxFullPath2@@YGHPA_WPB_WPAVCFileException@@@Z 006a1000 f   uafxcwd:filecore.obj
 0002:0013f4d0       ??RCTraceFileAndLineInfo@ATL@@QBAXPB_WZZ 006a14d0 f i uafxcwd:filecore.obj
 0002:0013f530       ?tcscpy_s@Checked@ATL@@YAXPA_WIPB_W@Z 006a1530 f i uafxcwd:filecore.obj
 0002:0013f560       ?AfxFullPath@@YGHPA_WPB_W@Z 006a1560 f   uafxcwd:filecore.obj
 0002:0013f580       ?AfxGetRoot@@YGXPB_WAAV?$CStringT@_WV?$StrTraitMFC@_WV?$ChTraitsCRT@_W@ATL@@@@@ATL@@@Z 006a1580 f   uafxcwd:filecore.obj
 0002:0013f620       ?AfxComparePath@@YGHPB_W0@Z 006a1620 f   uafxcwd:filecore.obj
 0002:0013f8c0       __wcsinc                   006a18c0 f i uafxcwd:filecore.obj
 0002:0013f8d0       ?AfxGetFileTitle@@YGIPB_WPA_WI@Z 006a18d0 f   uafxcwd:filecore.obj
 0002:0013f9f0       ?AfxGetModuleShortFileName@@YGXPAUHINSTANCE__@@AAV?$CStringT@_WV?$StrTraitMFC@_WV?$ChTraitsCRT@_W@ATL@@@@@ATL@@@Z 006a19f0 f   uafxcwd:filecore.obj
 0002:0013fa90       ?AssertValid@CFile@@UBEXXZ 006a1a90 f   uafxcwd:filecore.obj
 0002:0013fab0       ?Dump@CFile@@UBEXAAVCDumpContext@@@Z 006a1ab0 f   uafxcwd:filecore.obj
 0002:0013fb40       ?GetRuntimeClass@CFile@@UBEPAUCRuntimeClass@@XZ 006a1b40 f   uafxcwd:filecore.obj
 0002:0013fb60       ??$?6_WV?$StrTraitMFC@_WV?$ChTraitsCRT@_W@ATL@@@@@CDumpContext@@QAEAAV0@ABV?$CStringT@_WV?$StrTraitMFC@_WV?$ChTraitsCRT@_W@ATL@@@@@ATL@@@Z 006a1b60 f i uafxcwd:filecore.obj
 0002:0013fb90       ?GetFileTitle@@YGFPB_WPA_WG@Z 006a1b90 f i uafxcwd:filecore.obj
 0002:0013fbc0       ?AfxCtxLoadLibraryW@@YAPAUHINSTANCE__@@PB_W@Z 006a1bc0 f i uafxcwd:filecore.obj
 0002:0013fce0       ??0CFileFind@@QAE@XZ       006a1ce0 f   uafxcwd:filefind.obj
 0002:0013fd50       ??_ECFileFind@@UAEPAXI@Z   006a1d50 f i uafxcwd:filefind.obj
 0002:0013fd50       ??_GCFileFind@@UAEPAXI@Z   006a1d50 f i uafxcwd:filefind.obj
 0002:0013fd90       ??1CFileFind@@UAE@XZ       006a1d90 f   uafxcwd:filefind.obj
 0002:0013fe20       ?Close@CFileFind@@QAEXXZ   006a1e20 f   uafxcwd:filefind.obj
 0002:0013fed0       ?CloseContext@CFileFind@@MAEXXZ 006a1ed0 f   uafxcwd:filefind.obj
 0002:0013fef0       ?FindFile@CFileFind@@UAEHPB_WK@Z 006a1ef0 f   uafxcwd:filefind.obj
 0002:00140130       ?MatchesMask@CFileFind@@UBEHK@Z 006a2130 f   uafxcwd:filefind.obj
 0002:001401a0       ?GetLastAccessTime@CFileFind@@UBEHPAU_FILETIME@@@Z 006a21a0 f   uafxcwd:filefind.obj
 0002:00140240       ?GetLastWriteTime@CFileFind@@UBEHPAU_FILETIME@@@Z 006a2240 f   uafxcwd:filefind.obj
 0002:001402f0       ?GetCreationTime@CFileFind@@UBEHPAU_FILETIME@@@Z 006a22f0 f   uafxcwd:filefind.obj
 0002:00140380       ?GetLastAccessTime@CFileFind@@UBEHAAVCTime@ATL@@@Z 006a2380 f   uafxcwd:filefind.obj
 0002:00140450       ?GetLastWriteTime@CFileFind@@UBEHAAVCTime@ATL@@@Z 006a2450 f   uafxcwd:filefind.obj
 0002:00140520       ?GetCreationTime@CFileFind@@UBEHAAVCTime@ATL@@@Z 006a2520 f   uafxcwd:filefind.obj
 0002:001405f0       ?IsDots@CFileFind@@UBEHXZ  006a25f0 f   uafxcwd:filefind.obj
 0002:001406c0       ?FindNextFileW@CFileFind@@UAEHXZ 006a26c0 f   uafxcwd:filefind.obj
 0002:00140790       ?GetFileURL@CFileFind@@UBE?AV?$CStringT@_WV?$StrTraitMFC@_WV?$ChTraitsCRT@_W@ATL@@@@@ATL@@XZ 006a2790 f   uafxcwd:filefind.obj
 0002:001408b0       ?GetRoot@CFileFind@@UBE?AV?$CStringT@_WV?$StrTraitMFC@_WV?$ChTraitsCRT@_W@ATL@@@@@ATL@@XZ 006a28b0 f   uafxcwd:filefind.obj
 0002:00140930       ?GetFilePath@CFileFind@@UBE?AV?$CStringT@_WV?$StrTraitMFC@_WV?$ChTraitsCRT@_W@ATL@@@@@ATL@@XZ 006a2930 f   uafxcwd:filefind.obj
 0002:00140b00       ?GetFileTitle@CFileFind@@UBE?AV?$CStringT@_WV?$StrTraitMFC@_WV?$ChTraitsCRT@_W@ATL@@@@@ATL@@XZ 006a2b00 f   uafxcwd:filefind.obj
 0002:00140c50       ?GetFileName@CFileFind@@UBE?AV?$CStringT@_WV?$StrTraitMFC@_WV?$ChTraitsCRT@_W@ATL@@@@@ATL@@XZ 006a2c50 f   uafxcwd:filefind.obj
 0002:00140d50       ?GetLength@CFileFind@@QBE_KXZ 006a2d50 f   uafxcwd:filefind.obj
 0002:00140df0       ?Dump@CFileFind@@MBEXAAVCDumpContext@@@Z 006a2df0 f   uafxcwd:filefind.obj
 0002:00140e40       ?AssertValid@CFileFind@@MBEXXZ 006a2e40 f   uafxcwd:filefind.obj
 0002:00140ec0       ?GetRuntimeClass@CFileFind@@UBEPAUCRuntimeClass@@XZ 006a2ec0 f   uafxcwd:filefind.obj
 0002:00140ee0       __wcsdec                   006a2ee0 f i uafxcwd:filefind.obj
 0002:00140f10       ?tsplitpath_s@Checked@ATL@@YAXPB_WPA_WI1I1I1I@Z 006a2f10 f i uafxcwd:filefind.obj
 0002:00140f60       ?tmakepath_s@Checked@ATL@@YAXPA_WIPB_W111@Z 006a2f60 f i uafxcwd:filefind.obj
 0002:00140fa0       ??Y?$CStringT@_WV?$StrTraitMFC@_WV?$ChTraitsCRT@_W@ATL@@@@@ATL@@QAEAAV01@_W@Z 006a2fa0 f i uafxcwd:filefind.obj
 0002:00140fd0       ??Y?$CSimpleStringT@_W$0A@@ATL@@QAEAAV01@_W@Z 006a2fd0 f i uafxcwd:filefind.obj
 0002:00141000       ??0CStringArray@@QAE@XZ    006a3000 f   uafxcwd:array_s.obj
 0002:00141060       ??_ECStringArray@@UAEPAXI@Z 006a3060 f i uafxcwd:array_s.obj
 0002:00141060       ??_GCStringArray@@UAEPAXI@Z 006a3060 f i uafxcwd:array_s.obj
 0002:001410a0       ??1CStringArray@@UAE@XZ    006a30a0 f   uafxcwd:array_s.obj
 0002:001413d0       ??_G?$CStringT@_WV?$StrTraitMFC@_WV?$ChTraitsCRT@_W@ATL@@@@@ATL@@QAEPAXI@Z 006a33d0 f i uafxcwd:array_s.obj
 0002:00141410       ?SetSize@CStringArray@@QAEXHH@Z 006a3410 f   uafxcwd:array_s.obj
 0002:00141910       ?Append@CStringArray@@QAEHABV1@@Z 006a3910 f   uafxcwd:array_s.obj
 0002:00141a40       ?Copy@CStringArray@@QAEXABV1@@Z 006a3a40 f   uafxcwd:array_s.obj
 0002:00141ae0       ?FreeExtra@CStringArray@@QAEXXZ 006a3ae0 f   uafxcwd:array_s.obj
 0002:00141bf0       ?SetAtGrow@CStringArray@@QAEXHPB_W@Z 006a3bf0 f   uafxcwd:array_s.obj
 0002:00141c90       ?SetAtGrow@CStringArray@@QAEXHABV?$CStringT@_WV?$StrTraitMFC@_WV?$ChTraitsCRT@_W@ATL@@@@@ATL@@@Z 006a3c90 f   uafxcwd:array_s.obj
 0002:00141db0       ?InsertEmpty@CStringArray@@IAEXHH@Z 006a3db0 f   uafxcwd:array_s.obj
 0002:00141f70       ?InsertAt@CStringArray@@QAEXHPB_WH@Z 006a3f70 f   uafxcwd:array_s.obj
 0002:00142040       ?InsertAt@CStringArray@@QAEXHABV?$CStringT@_WV?$StrTraitMFC@_WV?$ChTraitsCRT@_W@ATL@@@@@ATL@@H@Z 006a4040 f   uafxcwd:array_s.obj
 0002:001420b0       ?RemoveAt@CStringArray@@QAEXHH@Z 006a40b0 f   uafxcwd:array_s.obj
 0002:00142220       ?InsertAt@CStringArray@@QAEXHPBV1@@Z 006a4220 f   uafxcwd:array_s.obj
 0002:00142370       ?Serialize@CStringArray@@UAEXAAVCArchive@@@Z 006a4370 f   uafxcwd:array_s.obj
 0002:00142480       ?Dump@CStringArray@@UBEXAAVCDumpContext@@@Z 006a4480 f   uafxcwd:array_s.obj
 0002:00142570       ?AssertValid@CStringArray@@UBEXXZ 006a4570 f   uafxcwd:array_s.obj
 0002:001426a0       ?CreateObject@CStringArray@@SGPAVCObject@@XZ 006a46a0 f   uafxcwd:array_s.obj
 0002:00142740       ?GetRuntimeClass@CStringArray@@UBEPAUCRuntimeClass@@XZ 006a4740 f   uafxcwd:array_s.obj
 0002:00142760       ??5@YGAAVCArchive@@AAV0@AAPAVCStringArray@@@Z 006a4760 f   uafxcwd:array_s.obj
 0002:00142790       ??0AFX_CLASSINIT@@QAE@PAUCRuntimeClass@@@Z 006a4790 f i uafxcwd:array_s.obj
 0002:001427c0       ?EnableModeless@CWinApp@@QAEXH@Z 006a47c0 f   uafxcwd:appui1.obj
 0002:001427f0       ?DoEnableModeless@CWinApp@@SAXH@Z 006a47f0 f   uafxcwd:appui1.obj
 0002:001428a0       ?DoMessageBox@CWinApp@@UAEHPB_WII@Z 006a48a0 f   uafxcwd:appui1.obj
 0002:001428d0       ?ShowAppMessageBox@CWinApp@@SAHPAV1@PB_WII@Z 006a48d0 f   uafxcwd:appui1.obj
 0002:00142be0       ?AfxMessageBox@@YGHPB_WII@Z 006a4be0 f   uafxcwd:appui1.obj
 0002:00142c50       ?AfxMessageBox@@YGHIII@Z   006a4c50 f   uafxcwd:appui1.obj
 0002:00142d60       ?GetSafeOwner_@CWnd@@SGPAUHWND__@@PAU2@PAPAU2@@Z 006a4d60 f   uafxcwd:appui1.obj
 0002:00142ea0       ?GetRoutingView_@CCmdTarget@@KGPAVCView@@XZ 006a4ea0 f   uafxcwd:appui1.obj
 0002:00142ed0       ?GetRoutingFrame_@CCmdTarget@@KGPAVCFrameWnd@@XZ 006a4ed0 f   uafxcwd:appui1.obj
 0002:00142f00       ?Dump@CFileStatus@@QBEXAAVCDumpContext@@@Z 006a4f00 f   uafxcwd:filest.obj
 0002:00143020       ?GetFileName@CFile@@UBE?AV?$CStringT@_WV?$StrTraitMFC@_WV?$ChTraitsCRT@_W@ATL@@@@@ATL@@XZ 006a5020 f   uafxcwd:filest.obj
 0002:00143150       ?GetFileTitle@CFile@@UBE?AV?$CStringT@_WV?$StrTraitMFC@_WV?$ChTraitsCRT@_W@ATL@@@@@ATL@@XZ 006a5150 f   uafxcwd:filest.obj
 0002:00143280       ?GetFilePath@CFile@@UBE?AV?$CStringT@_WV?$StrTraitMFC@_WV?$ChTraitsCRT@_W@ATL@@@@@ATL@@XZ 006a5280 f   uafxcwd:filest.obj
 0002:00143330       ?GetStatus@CFile@@QBEHAAUCFileStatus@@@Z 006a5330 f   uafxcwd:filest.obj
 0002:00143610       ?GetStatus@CFile@@SGHPB_WAAUCFileStatus@@@Z 006a5610 f   uafxcwd:filest.obj
 0002:00143950       ?AfxTimeToFileTime@@YAXABVCTime@ATL@@PAU_FILETIME@@@Z 006a5950 f   uafxcwd:filest.obj
 0002:00143a40       ?SetStatus@CFile@@SGXPB_WABUCFileStatus@@@Z 006a5a40 f   uafxcwd:filest.obj
 0002:00143ca0       ?GetStatus@CMemFile@@QBEHAAUCFileStatus@@@Z 006a5ca0 f   uafxcwd:filest.obj
 0002:00143d30       ??1CDragListBox@@UAE@XZ    006a5d30 f   uafxcwd:winctrl2.obj
 0002:00143db0       ??_GCDragListBox@@UAEPAXI@Z 006a5db0 f i uafxcwd:winctrl2.obj
 0002:00143db0       ??_ECDragListBox@@UAEPAXI@Z 006a5db0 f i uafxcwd:winctrl2.obj
 0002:00143df0       ?PreSubclassWindow@CDragListBox@@UAEXXZ 006a5df0 f   uafxcwd:winctrl2.obj
 0002:00143e60       ?BeginDrag@CDragListBox@@UAEHVCPoint@@@Z 006a5e60 f   uafxcwd:winctrl2.obj
 0002:00143ec0       ?CancelDrag@CDragListBox@@UAEXVCPoint@@@Z 006a5ec0 f   uafxcwd:winctrl2.obj
 0002:00143ef0       ?Dragging@CDragListBox@@UAEIVCPoint@@@Z 006a5ef0 f   uafxcwd:winctrl2.obj
 0002:00143f60       ?Dropped@CDragListBox@@UAEXHVCPoint@@@Z 006a5f60 f   uafxcwd:winctrl2.obj
 0002:00144100       ?DrawInsert@CDragListBox@@UAEXH@Z 006a6100 f   uafxcwd:winctrl2.obj
 0002:00144150       ?DrawSingle@CDragListBox@@QAEXH@Z 006a6150 f   uafxcwd:winctrl2.obj
 0002:001442b0       ?OnChildNotify@CDragListBox@@MAEHIIJPAJ@Z 006a62b0 f   uafxcwd:winctrl2.obj
 0002:00144470       ?GetMessageMap@CToolBarCtrl@@MBEPBUAFX_MSGMAP@@XZ 006a6470 f   uafxcwd:winctrl2.obj
 0002:00144490       ?GetThisMessageMap@CToolBarCtrl@@KGPBUAFX_MSGMAP@@XZ 006a6490 f   uafxcwd:winctrl2.obj
 0002:001444a0       ?Create@CToolBarCtrl@@QAEHKABUtagRECT@@PAVCWnd@@I@Z 006a64a0 f   uafxcwd:winctrl2.obj
 0002:00144520       ?CreateEx@CToolBarCtrl@@QAEHKKABUtagRECT@@PAVCWnd@@I@Z 006a6520 f   uafxcwd:winctrl2.obj
 0002:00144590       ??1CToolBarCtrl@@UAE@XZ    006a6590 f   uafxcwd:winctrl2.obj
 0002:00144610       ??_GCToolBarCtrl@@UAEPAXI@Z 006a6610 f i uafxcwd:winctrl2.obj
 0002:00144610       ??_ECToolBarCtrl@@UAEPAXI@Z 006a6610 f i uafxcwd:winctrl2.obj
 0002:00144650       ?AddBitmap@CToolBarCtrl@@QAEHHPAVCBitmap@@@Z 006a6650 f   uafxcwd:winctrl2.obj
 0002:001446d0       ?AddBitmap@CToolBarCtrl@@QAEHHI@Z 006a66d0 f   uafxcwd:winctrl2.obj
 0002:00144770       ?SaveState@CToolBarCtrl@@QAEXPAUHKEY__@@PB_W1@Z 006a6770 f   uafxcwd:winctrl2.obj
 0002:001447f0       ?RestoreState@CToolBarCtrl@@QAEXPAUHKEY__@@PB_W1@Z 006a67f0 f   uafxcwd:winctrl2.obj
 0002:00144870       ?AddString@CToolBarCtrl@@QAEHI@Z 006a6870 f   uafxcwd:winctrl2.obj
 0002:001449a0       ?OnCreate@CToolBarCtrl@@IAEHPAUtagCREATESTRUCTW@@@Z 006a69a0 f   uafxcwd:winctrl2.obj
 0002:001449e0       ?GetDropTarget@CToolBarCtrl@@QBEJPAPAUIDropTarget@@@Z 006a69e0 f   uafxcwd:winctrl2.obj
 0002:00144a70       ?GetString@CToolBarCtrl@@QBEHHAAV?$CStringT@_WV?$StrTraitMFC@_WV?$ChTraitsCRT@_W@ATL@@@@@ATL@@@Z 006a6a70 f   uafxcwd:winctrl2.obj
 0002:00144b60       ?Create@CStatusBarCtrl@@QAEHKABUtagRECT@@PAVCWnd@@I@Z 006a6b60 f   uafxcwd:winctrl2.obj
 0002:00144be0       ?CreateEx@CStatusBarCtrl@@QAEHKKABUtagRECT@@PAVCWnd@@I@Z 006a6be0 f   uafxcwd:winctrl2.obj
 0002:00144c50       ??1CStatusBarCtrl@@UAE@XZ  006a6c50 f   uafxcwd:winctrl2.obj
 0002:00144cd0       ??_ECStatusBarCtrl@@UAEPAXI@Z 006a6cd0 f i uafxcwd:winctrl2.obj
 0002:00144cd0       ??_GCStatusBarCtrl@@UAEPAXI@Z 006a6cd0 f i uafxcwd:winctrl2.obj
 0002:00144d10       ?GetText@CStatusBarCtrl@@QBEHPA_WHPAH@Z 006a6d10 f   uafxcwd:winctrl2.obj
 0002:00144dd0       ?GetText@CStatusBarCtrl@@QBE?AV?$CStringT@_WV?$StrTraitMFC@_WV?$ChTraitsCRT@_W@ATL@@@@@ATL@@HPAH@Z 006a6dd0 f   uafxcwd:winctrl2.obj
 0002:00144f50       ?GetTextLength@CStatusBarCtrl@@QBEHHPAH@Z 006a6f50 f   uafxcwd:winctrl2.obj
 0002:00145010       ?GetTipText@CStatusBarCtrl@@QBE?AV?$CStringT@_WV?$StrTraitMFC@_WV?$ChTraitsCRT@_W@ATL@@@@@ATL@@H@Z 006a7010 f   uafxcwd:winctrl2.obj
 0002:00145110       ?GetBorders@CStatusBarCtrl@@QBEHAAH00@Z 006a7110 f   uafxcwd:winctrl2.obj
 0002:001451a0       ?DrawItem@CStatusBarCtrl@@UAEXPAUtagDRAWITEMSTRUCT@@@Z 006a71a0 f   uafxcwd:winctrl2.obj
 0002:001451d0       ?OnChildNotify@CStatusBarCtrl@@MAEHIIJPAJ@Z 006a71d0 f   uafxcwd:winctrl2.obj
 0002:00145250       ?GetMessageMap@CListCtrl@@MBEPBUAFX_MSGMAP@@XZ 006a7250 f   uafxcwd:winctrl2.obj
 0002:00145270       ?GetThisMessageMap@CListCtrl@@KGPBUAFX_MSGMAP@@XZ 006a7270 f   uafxcwd:winctrl2.obj
 0002:00145280       ?Create@CListCtrl@@QAEHKABUtagRECT@@PAVCWnd@@I@Z 006a7280 f   uafxcwd:winctrl2.obj
 0002:00145300       ?CreateEx@CListCtrl@@QAEHKKABUtagRECT@@PAVCWnd@@I@Z 006a7300 f   uafxcwd:winctrl2.obj
 0002:00145370       ??1CListCtrl@@UAE@XZ       006a7370 f   uafxcwd:winctrl2.obj
 0002:001453f0       ??_ECListCtrl@@UAEPAXI@Z   006a73f0 f i uafxcwd:winctrl2.obj
 0002:001453f0       ??_GCListCtrl@@UAEPAXI@Z   006a73f0 f i uafxcwd:winctrl2.obj
 0002:00145430       ?GetItemRect@CListCtrl@@QBEHHPAUtagRECT@@I@Z 006a7430 f   uafxcwd:winctrl2.obj
 0002:001454a0       ?SetItemCountEx@CListCtrl@@QAEHHK@Z 006a74a0 f   uafxcwd:winctrl2.obj
 0002:00145540       ?SetIconSpacing@CListCtrl@@QAE?AVCSize@@HH@Z 006a7540 f   uafxcwd:winctrl2.obj
 0002:001455e0       ?SetIconSpacing@CListCtrl@@QAE?AVCSize@@V2@@Z 006a75e0 f   uafxcwd:winctrl2.obj
 0002:00145680       ?GetSubItemRect@CListCtrl@@QBEHHHHAAVCRect@@@Z 006a7680 f   uafxcwd:winctrl2.obj
 0002:00145750       ?InsertColumn@CListCtrl@@QAEHHPB_WHHH@Z 006a7750 f   uafxcwd:winctrl2.obj
 0002:001457d0       ?InsertItem@CListCtrl@@QAEHIHPB_WIIHJ@Z 006a77d0 f   uafxcwd:winctrl2.obj
 0002:00145860       ?HitTest@CListCtrl@@QBEHVCPoint@@PAI@Z 006a7860 f   uafxcwd:winctrl2.obj
 0002:001458f0       ?SetItem@CListCtrl@@QAEHHHIPB_WHIIJ@Z 006a78f0 f   uafxcwd:winctrl2.obj
 0002:00145960       ?SetItem@CListCtrl@@QAEHHHIPB_WHIIJH@Z 006a7960 f   uafxcwd:winctrl2.obj
 0002:00145a30       ?SetItemState@CListCtrl@@QAEHHII@Z 006a7a30 f   uafxcwd:winctrl2.obj
 0002:00145ab0       ?SetItemText@CListCtrl@@QAEHHHPB_W@Z 006a7ab0 f   uafxcwd:winctrl2.obj
 0002:00145b50       ?GetItemText@CListCtrl@@QBE?AV?$CStringT@_WV?$StrTraitMFC@_WV?$ChTraitsCRT@_W@ATL@@@@@ATL@@HH@Z 006a7b50 f   uafxcwd:winctrl2.obj
 0002:00145ca0       ?GetItemText@CListCtrl@@QBEHHHPA_WH@Z 006a7ca0 f   uafxcwd:winctrl2.obj
 0002:00145d30       ?GetItemData@CListCtrl@@QBEKH@Z 006a7d30 f   uafxcwd:winctrl2.obj
 0002:00145de0       ?DrawItem@CListCtrl@@UAEXPAUtagDRAWITEMSTRUCT@@@Z 006a7de0 f   uafxcwd:winctrl2.obj
 0002:00145e10       ?OnChildNotify@CListCtrl@@MAEHIIJPAJ@Z 006a7e10 f   uafxcwd:winctrl2.obj
 0002:00145e90       ?RemoveImageList@CListCtrl@@IAEXH@Z 006a7e90 f   uafxcwd:winctrl2.obj
 0002:00145ef0       ?OnNcDestroy@CListCtrl@@IAEXXZ 006a7ef0 f   uafxcwd:winctrl2.obj
 0002:00145f30       ?CreateDragImage@CListCtrl@@QAEPAVCImageList@@HPAUtagPOINT@@@Z 006a7f30 f   uafxcwd:winctrl2.obj
 0002:00146070       ?GetMessageMap@CTreeCtrl@@MBEPBUAFX_MSGMAP@@XZ 006a8070 f   uafxcwd:winctrl2.obj
 0002:00146090       ?GetThisMessageMap@CTreeCtrl@@KGPBUAFX_MSGMAP@@XZ 006a8090 f   uafxcwd:winctrl2.obj
 0002:001460a0       ?Create@CTreeCtrl@@QAEHKABUtagRECT@@PAVCWnd@@I@Z 006a80a0 f   uafxcwd:winctrl2.obj
 0002:00146120       ?CreateEx@CTreeCtrl@@QAEHKKABUtagRECT@@PAVCWnd@@I@Z 006a8120 f   uafxcwd:winctrl2.obj
 0002:00146190       ??1CTreeCtrl@@UAE@XZ       006a8190 f   uafxcwd:winctrl2.obj
 0002:00146210       ??_GCTreeCtrl@@UAEPAXI@Z   006a8210 f i uafxcwd:winctrl2.obj
 0002:00146210       ??_ECTreeCtrl@@UAEPAXI@Z   006a8210 f i uafxcwd:winctrl2.obj
 0002:00146250       ?GetItemRect@CTreeCtrl@@QBEHPAU_TREEITEM@@PAUtagRECT@@H@Z 006a8250 f   uafxcwd:winctrl2.obj
 0002:001462c0       ?GetItemText@CTreeCtrl@@QBE?AV?$CStringT@_WV?$StrTraitMFC@_WV?$ChTraitsCRT@_W@ATL@@@@@ATL@@PAU_TREEITEM@@@Z 006a82c0 f   uafxcwd:winctrl2.obj
 0002:00146410       ?GetItemImage@CTreeCtrl@@QBEHPAU_TREEITEM@@AAH1@Z 006a8410 f   uafxcwd:winctrl2.obj
 0002:001464b0       ?GetItemState@CTreeCtrl@@QBEIPAU_TREEITEM@@I@Z 006a84b0 f   uafxcwd:winctrl2.obj
 0002:00146560       ?GetItemData@CTreeCtrl@@QBEKPAU_TREEITEM@@@Z 006a8560 f   uafxcwd:winctrl2.obj
 0002:00146660       ?ItemHasChildren@CTreeCtrl@@QBEHPAU_TREEITEM@@@Z 006a8660 f   uafxcwd:winctrl2.obj
 0002:001466e0       ?SetItem@CTreeCtrl@@QAEHPAU_TREEITEM@@IPB_WHHIIJ@Z 006a86e0 f   uafxcwd:winctrl2.obj
 0002:00146780       ?SetItemEx@CTreeCtrl@@QAEHPAU_TREEITEM@@IPB_WHHIIJIPAUHWND__@@H@Z 006a8780 f   uafxcwd:winctrl2.obj
 0002:00146840       ?InsertItem@CTreeCtrl@@QAEPAU_TREEITEM@@IPB_WHHIIJPAU2@1@Z 006a8840 f   uafxcwd:winctrl2.obj
 0002:001468f0       ?HitTest@CTreeCtrl@@QBEPAU_TREEITEM@@VCPoint@@PAI@Z 006a88f0 f   uafxcwd:winctrl2.obj
 0002:00146980       ?RemoveImageList@CTreeCtrl@@IAEXH@Z 006a8980 f   uafxcwd:winctrl2.obj
 0002:001469e0       ?OnDestroy@CTreeCtrl@@QAEXXZ 006a89e0 f   uafxcwd:winctrl2.obj
 0002:00146a20       ?CreateDragImage@CTreeCtrl@@QAEPAVCImageList@@PAU_TREEITEM@@@Z 006a8a20 f   uafxcwd:winctrl2.obj
 0002:00146b60       ?GetCheck@CTreeCtrl@@QBEHPAU_TREEITEM@@@Z 006a8b60 f   uafxcwd:winctrl2.obj
 0002:00146c10       ?SetCheck@CTreeCtrl@@QAEHPAU_TREEITEM@@H@Z 006a8c10 f   uafxcwd:winctrl2.obj
 0002:00146cb0       ?GetItemPartRect@CTreeCtrl@@QAEHPAU_TREEITEM@@W4_TVITEMPART@@PAUtagRECT@@@Z 006a8cb0 f   uafxcwd:winctrl2.obj
 0002:00146d50       ?GetItemStateEx@CTreeCtrl@@QBEIPAU_TREEITEM@@@Z 006a8d50 f   uafxcwd:winctrl2.obj
 0002:00146e10       ?GetItemExpandedImageIndex@CTreeCtrl@@QBEHPAU_TREEITEM@@@Z 006a8e10 f   uafxcwd:winctrl2.obj
 0002:00146ed0       ?Create@CSpinButtonCtrl@@UAEHKABUtagRECT@@PAVCWnd@@I@Z 006a8ed0 f   uafxcwd:winctrl2.obj
 0002:00146f50       ?CreateEx@CSpinButtonCtrl@@UAEHKKABUtagRECT@@PAVCWnd@@I@Z 006a8f50 f   uafxcwd:winctrl2.obj
 0002:00146fc0       ??1CSpinButtonCtrl@@UAE@XZ 006a8fc0 f   uafxcwd:winctrl2.obj
 0002:00147040       ??_GCSpinButtonCtrl@@UAEPAXI@Z 006a9040 f i uafxcwd:winctrl2.obj
 0002:00147040       ??_ECSpinButtonCtrl@@UAEPAXI@Z 006a9040 f i uafxcwd:winctrl2.obj
 0002:00147080       ?GetRange@CSpinButtonCtrl@@QBEXAAH0@Z 006a9080 f   uafxcwd:winctrl2.obj
 0002:00147120       ?Create@CSliderCtrl@@UAEHKABUtagRECT@@PAVCWnd@@I@Z 006a9120 f   uafxcwd:winctrl2.obj
 0002:001471a0       ?CreateEx@CSliderCtrl@@UAEHKKABUtagRECT@@PAVCWnd@@I@Z 006a91a0 f   uafxcwd:winctrl2.obj
 0002:00147210       ??1CSliderCtrl@@UAE@XZ     006a9210 f   uafxcwd:winctrl2.obj
 0002:00147290       ??_ECSliderCtrl@@UAEPAXI@Z 006a9290 f i uafxcwd:winctrl2.obj
 0002:00147290       ??_GCSliderCtrl@@UAEPAXI@Z 006a9290 f i uafxcwd:winctrl2.obj
 0002:001472d0       ?GetRange@CSliderCtrl@@QBEXAAH0@Z 006a92d0 f   uafxcwd:winctrl2.obj
 0002:00147340       ?SetRange@CSliderCtrl@@QAEXHHH@Z 006a9340 f   uafxcwd:winctrl2.obj
 0002:00147380       ?GetSelection@CSliderCtrl@@QBEXAAH0@Z 006a9380 f   uafxcwd:winctrl2.obj
 0002:00147410       ?SetSelection@CSliderCtrl@@QAEXHH@Z 006a9410 f   uafxcwd:winctrl2.obj
 0002:00147490       ?Create@CProgressCtrl@@UAEHKABUtagRECT@@PAVCWnd@@I@Z 006a9490 f   uafxcwd:winctrl2.obj
 0002:00147510       ?CreateEx@CProgressCtrl@@UAEHKKABUtagRECT@@PAVCWnd@@I@Z 006a9510 f   uafxcwd:winctrl2.obj
 0002:00147580       ??1CProgressCtrl@@UAE@XZ   006a9580 f   uafxcwd:winctrl2.obj
 0002:00147600       ??_GCProgressCtrl@@UAEPAXI@Z 006a9600 f i uafxcwd:winctrl2.obj
 0002:00147600       ??_ECProgressCtrl@@UAEPAXI@Z 006a9600 f i uafxcwd:winctrl2.obj
 0002:00147640       ?Create@CHeaderCtrl@@UAEHKABUtagRECT@@PAVCWnd@@I@Z 006a9640 f   uafxcwd:winctrl2.obj
 0002:001476c0       ?CreateEx@CHeaderCtrl@@UAEHKKABUtagRECT@@PAVCWnd@@I@Z 006a96c0 f   uafxcwd:winctrl2.obj
 0002:00147730       ??1CHeaderCtrl@@UAE@XZ     006a9730 f   uafxcwd:winctrl2.obj
 0002:001477b0       ??_GCHeaderCtrl@@UAEPAXI@Z 006a97b0 f i uafxcwd:winctrl2.obj
 0002:001477b0       ??_ECHeaderCtrl@@UAEPAXI@Z 006a97b0 f i uafxcwd:winctrl2.obj
 0002:001477f0       ?DrawItem@CHeaderCtrl@@UAEXPAUtagDRAWITEMSTRUCT@@@Z 006a97f0 f   uafxcwd:winctrl2.obj
 0002:00147820       ?OnChildNotify@CHeaderCtrl@@MAEHIIJPAJ@Z 006a9820 f   uafxcwd:winctrl2.obj
 0002:001478a0       ?Create@CHotKeyCtrl@@UAEHKABUtagRECT@@PAVCWnd@@I@Z 006a98a0 f   uafxcwd:winctrl2.obj
 0002:00147920       ?CreateEx@CHotKeyCtrl@@UAEHKKABUtagRECT@@PAVCWnd@@I@Z 006a9920 f   uafxcwd:winctrl2.obj
 0002:00147990       ??1CHotKeyCtrl@@UAE@XZ     006a9990 f   uafxcwd:winctrl2.obj
 0002:00147a10       ??_GCHotKeyCtrl@@UAEPAXI@Z 006a9a10 f i uafxcwd:winctrl2.obj
 0002:00147a10       ??_ECHotKeyCtrl@@UAEPAXI@Z 006a9a10 f i uafxcwd:winctrl2.obj
 0002:00147a50       ?GetHotKey@CHotKeyCtrl@@QBEXAAG0@Z 006a9a50 f   uafxcwd:winctrl2.obj
 0002:00147b00       ?GetKeyName@CHotKeyCtrl@@SA?AV?$CStringT@_WV?$StrTraitMFC@_WV?$ChTraitsCRT@_W@ATL@@@@@ATL@@IH@Z 006a9b00 f   uafxcwd:winctrl2.obj
 0002:00147c20       ?GetHotKeyName@CHotKeyCtrl@@QBE?AV?$CStringT@_WV?$StrTraitMFC@_WV?$ChTraitsCRT@_W@ATL@@@@@ATL@@XZ 006a9c20 f   uafxcwd:winctrl2.obj
 0002:00147e80       ?GetMessageMap@CTabCtrl@@MBEPBUAFX_MSGMAP@@XZ 006a9e80 f   uafxcwd:winctrl2.obj
 0002:00147ea0       ?GetThisMessageMap@CTabCtrl@@KGPBUAFX_MSGMAP@@XZ 006a9ea0 f   uafxcwd:winctrl2.obj
 0002:00147eb0       ?Create@CTabCtrl@@UAEHKABUtagRECT@@PAVCWnd@@I@Z 006a9eb0 f   uafxcwd:winctrl2.obj
 0002:00147f30       ?CreateEx@CTabCtrl@@UAEHKKABUtagRECT@@PAVCWnd@@I@Z 006a9f30 f   uafxcwd:winctrl2.obj
 0002:00147fa0       ??1CTabCtrl@@UAE@XZ        006a9fa0 f   uafxcwd:winctrl2.obj
 0002:00148020       ??_GCTabCtrl@@UAEPAXI@Z    006aa020 f i uafxcwd:winctrl2.obj
 0002:00148020       ??_ECTabCtrl@@UAEPAXI@Z    006aa020 f i uafxcwd:winctrl2.obj
 0002:00148060       ?DrawItem@CTabCtrl@@UAEXPAUtagDRAWITEMSTRUCT@@@Z 006aa060 f   uafxcwd:winctrl2.obj
 0002:00148090       ?OnChildNotify@CTabCtrl@@MAEHIIJPAJ@Z 006aa090 f   uafxcwd:winctrl2.obj
 0002:00148110       ?OnDestroy@CTabCtrl@@IAEXXZ 006aa110 f   uafxcwd:winctrl2.obj
 0002:00148170       ?GetItemState@CTabCtrl@@QBEKHK@Z 006aa170 f   uafxcwd:winctrl2.obj
 0002:00148210       ?SetItemState@CTabCtrl@@QAEHHKK@Z 006aa210 f   uafxcwd:winctrl2.obj
 0002:00148290       ?InsertItem@CTabCtrl@@QAEJIHPB_WHJ@Z 006aa290 f   uafxcwd:winctrl2.obj
 0002:00148320       ?InsertItem@CTabCtrl@@QAEJIHPB_WHJKK@Z 006aa320 f   uafxcwd:winctrl2.obj
 0002:001483c0       ?Create@CAnimateCtrl@@UAEHKABUtagRECT@@PAVCWnd@@I@Z 006aa3c0 f   uafxcwd:winctrl2.obj
 0002:00148440       ?CreateEx@CAnimateCtrl@@UAEHKKABUtagRECT@@PAVCWnd@@I@Z 006aa440 f   uafxcwd:winctrl2.obj
 0002:001484b0       ??1CAnimateCtrl@@UAE@XZ    006aa4b0 f   uafxcwd:winctrl2.obj
 0002:00148530       ??_GCAnimateCtrl@@UAEPAXI@Z 006aa530 f i uafxcwd:winctrl2.obj
 0002:00148530       ??_ECAnimateCtrl@@UAEPAXI@Z 006aa530 f i uafxcwd:winctrl2.obj
 0002:00148570       ??1CRichEditCtrl@@UAE@XZ   006aa570 f   uafxcwd:winctrl2.obj
 0002:001485f0       ??_GCRichEditCtrl@@UAEPAXI@Z 006aa5f0 f i uafxcwd:winctrl2.obj
 0002:001485f0       ??_ECRichEditCtrl@@UAEPAXI@Z 006aa5f0 f i uafxcwd:winctrl2.obj
 0002:00148630       ?afxMapHIMAGELIST@@YGPAVCHandleMap@@H@Z 006aa630 f   uafxcwd:winctrl2.obj
 0002:00148750       ??0CImageList@@QAE@XZ      006aa750 f   uafxcwd:winctrl2.obj
 0002:00148790       ??_ECImageList@@UAEPAXI@Z  006aa790 f i uafxcwd:winctrl2.obj
 0002:00148790       ??_GCImageList@@UAEPAXI@Z  006aa790 f i uafxcwd:winctrl2.obj
 0002:001487d0       ??1CImageList@@UAE@XZ      006aa7d0 f   uafxcwd:winctrl2.obj
 0002:00148a00       ?Detach@CImageList@@QAEPAU_IMAGELIST@@XZ 006aaa00 f   uafxcwd:winctrl2.obj
 0002:00148a60       ?DeleteImageList@CImageList@@QAEHXZ 006aaa60 f   uafxcwd:winctrl2.obj
 0002:00148aa0       ?FromHandle@CImageList@@SGPAV1@PAU_IMAGELIST@@@Z 006aaaa0 f   uafxcwd:winctrl2.obj
 0002:00148b30       ?FromHandlePermanent@CImageList@@SGPAV1@PAU_IMAGELIST@@@Z 006aab30 f   uafxcwd:winctrl2.obj
 0002:00148bb0       ?Create@CImageList@@QAEHHHIHH@Z 006aabb0 f   uafxcwd:winctrl2.obj
 0002:00148bf0       ?Create@CImageList@@QAEHIHHK@Z 006aabf0 f   uafxcwd:winctrl2.obj
 0002:00148c90       ?Create@CImageList@@QAEHPB_WHHK@Z 006aac90 f   uafxcwd:winctrl2.obj
 0002:00148d00       ?Create@CImageList@@QAEHAAV1@H0HHH@Z 006aad00 f   uafxcwd:winctrl2.obj
 0002:00148d50       ?Attach@CImageList@@QAEHPAU_IMAGELIST@@@Z 006aad50 f   uafxcwd:winctrl2.obj
 0002:00148e20       ?Read@CImageList@@QAEHPAVCArchive@@@Z 006aae20 f   uafxcwd:winctrl2.obj
 0002:00148ee0       ?Write@CImageList@@QAEHPAVCArchive@@@Z 006aaee0 f   uafxcwd:winctrl2.obj
 0002:00148f90       ?Dump@CImageList@@UBEXAAVCDumpContext@@@Z 006aaf90 f   uafxcwd:winctrl2.obj
 0002:00148ff0       ?AssertValid@CImageList@@UBEXXZ 006aaff0 f   uafxcwd:winctrl2.obj
 0002:001490e0       ??0CDragListBox@@QAE@XZ    006ab0e0 f   uafxcwd:winctrl2.obj
 0002:00149120       ?ItemFromPt@CDragListBox@@QBEHVCPoint@@H@Z 006ab120 f   uafxcwd:winctrl2.obj
 0002:00149190       ??0CToolBarCtrl@@QAE@XZ    006ab190 f   uafxcwd:winctrl2.obj
 0002:001491c0       ?EnableButton@CToolBarCtrl@@QAEHHH@Z 006ab1c0 f   uafxcwd:winctrl2.obj
 0002:00149230       ?CheckButton@CToolBarCtrl@@QAEHHH@Z 006ab230 f   uafxcwd:winctrl2.obj
 0002:001492a0       ?PressButton@CToolBarCtrl@@QAEHHH@Z 006ab2a0 f   uafxcwd:winctrl2.obj
 0002:00149310       ?HideButton@CToolBarCtrl@@QAEHHH@Z 006ab310 f   uafxcwd:winctrl2.obj
 0002:00149380       ?Indeterminate@CToolBarCtrl@@QAEHHH@Z 006ab380 f   uafxcwd:winctrl2.obj
 0002:001493f0       ?IsButtonEnabled@CToolBarCtrl@@QBEHH@Z 006ab3f0 f   uafxcwd:winctrl2.obj
 0002:00149450       ?IsButtonChecked@CToolBarCtrl@@QBEHH@Z 006ab450 f   uafxcwd:winctrl2.obj
 0002:001494b0       ?IsButtonPressed@CToolBarCtrl@@QBEHH@Z 006ab4b0 f   uafxcwd:winctrl2.obj
 0002:00149510       ?IsButtonHidden@CToolBarCtrl@@QBEHH@Z 006ab510 f   uafxcwd:winctrl2.obj
 0002:00149570       ?IsButtonIndeterminate@CToolBarCtrl@@QBEHH@Z 006ab570 f   uafxcwd:winctrl2.obj
 0002:001495d0       ?SetState@CToolBarCtrl@@QAEHHI@Z 006ab5d0 f   uafxcwd:winctrl2.obj
 0002:00149640       ?GetState@CToolBarCtrl@@QBEHH@Z 006ab640 f   uafxcwd:winctrl2.obj
 0002:001496a0       ?AddButtons@CToolBarCtrl@@QAEHHPAU_TBBUTTON@@@Z 006ab6a0 f   uafxcwd:winctrl2.obj
 0002:00149700       ?InsertButton@CToolBarCtrl@@QAEHHPAU_TBBUTTON@@@Z 006ab700 f   uafxcwd:winctrl2.obj
 0002:00149760       ?DeleteButton@CToolBarCtrl@@QAEHH@Z 006ab760 f   uafxcwd:winctrl2.obj
 0002:001497c0       ?GetButton@CToolBarCtrl@@QBEHHPAU_TBBUTTON@@@Z 006ab7c0 f   uafxcwd:winctrl2.obj
 0002:00149820       ?GetButtonCount@CToolBarCtrl@@QBEHXZ 006ab820 f   uafxcwd:winctrl2.obj
 0002:00149880       ?CommandToIndex@CToolBarCtrl@@QBEII@Z 006ab880 f   uafxcwd:winctrl2.obj
 0002:001498e0       ?Customize@CToolBarCtrl@@QAEXXZ 006ab8e0 f   uafxcwd:winctrl2.obj
 0002:00149940       ?AddStrings@CToolBarCtrl@@QAEHPB_W@Z 006ab940 f   uafxcwd:winctrl2.obj
 0002:001499a0       ?GetItemRect@CToolBarCtrl@@QBEHHPAUtagRECT@@@Z 006ab9a0 f   uafxcwd:winctrl2.obj
 0002:00149a00       ?SetButtonStructSize@CToolBarCtrl@@QAEXH@Z 006aba00 f   uafxcwd:winctrl2.obj
 0002:00149a60       ?SetButtonSize@CToolBarCtrl@@QAEHVCSize@@@Z 006aba60 f   uafxcwd:winctrl2.obj
 0002:00149ae0       ?SetBitmapSize@CToolBarCtrl@@QAEHVCSize@@@Z 006abae0 f   uafxcwd:winctrl2.obj
 0002:00149b60       ?AutoSize@CToolBarCtrl@@QAEXXZ 006abb60 f   uafxcwd:winctrl2.obj
 0002:00149bc0       ?GetToolTips@CToolBarCtrl@@QBEPAVCToolTipCtrl@@XZ 006abbc0 f   uafxcwd:winctrl2.obj
 0002:00149c20       ?SetToolTips@CToolBarCtrl@@QAEXPAVCToolTipCtrl@@@Z 006abc20 f   uafxcwd:winctrl2.obj
 0002:00149c90       ?SetOwner@CToolBarCtrl@@QAEXPAVCWnd@@@Z 006abc90 f   uafxcwd:winctrl2.obj
 0002:00149d00       ?SetRows@CToolBarCtrl@@QAEXHHPAUtagRECT@@@Z 006abd00 f   uafxcwd:winctrl2.obj
 0002:00149d80       ?GetRows@CToolBarCtrl@@QBEHXZ 006abd80 f   uafxcwd:winctrl2.obj
 0002:00149de0       ?SetCmdID@CToolBarCtrl@@QAEHHI@Z 006abde0 f   uafxcwd:winctrl2.obj
 0002:00149e40       ?GetBitmapFlags@CToolBarCtrl@@QBEIXZ 006abe40 f   uafxcwd:winctrl2.obj
 0002:00149ea0       ?GetBitmap@CToolBarCtrl@@QBEHH@Z 006abea0 f   uafxcwd:winctrl2.obj
 0002:00149f00       ?ReplaceBitmap@CToolBarCtrl@@QAEHPAUTBREPLACEBITMAP@@@Z 006abf00 f   uafxcwd:winctrl2.obj
 0002:00149f60       ?ChangeBitmap@CToolBarCtrl@@QAEHHH@Z 006abf60 f   uafxcwd:winctrl2.obj
 0002:00149fd0       ?HitTest@CToolBarCtrl@@QBEHPAUtagPOINT@@@Z 006abfd0 f   uafxcwd:winctrl2.obj
 0002:0014a030       ?GetExtendedStyle@CToolBarCtrl@@QBEKXZ 006ac030 f   uafxcwd:winctrl2.obj
 0002:0014a090       ?SetExtendedStyle@CToolBarCtrl@@QAEKK@Z 006ac090 f   uafxcwd:winctrl2.obj
 0002:0014a0f0       ?GetPadding@CToolBarCtrl@@QBEXAAH0@Z 006ac0f0 f   uafxcwd:winctrl2.obj
 0002:0014a180       ?SetPadding@CToolBarCtrl@@QAEKHH@Z 006ac180 f   uafxcwd:winctrl2.obj
 0002:0014a200       ?GetInsertMarkColor@CToolBarCtrl@@QBEKXZ 006ac200 f   uafxcwd:winctrl2.obj
 0002:0014a260       ?SetInsertMarkColor@CToolBarCtrl@@QAEKK@Z 006ac260 f   uafxcwd:winctrl2.obj
 0002:0014a2c0       ?GetColorScheme@CToolBarCtrl@@QBEHPAUtagCOLORSCHEME@@@Z 006ac2c0 f   uafxcwd:winctrl2.obj
 0002:0014a330       ?SetColorScheme@CToolBarCtrl@@QAEXPBUtagCOLORSCHEME@@@Z 006ac330 f   uafxcwd:winctrl2.obj
 0002:0014a3a0       ??0CStatusBarCtrl@@QAE@XZ  006ac3a0 f   uafxcwd:winctrl2.obj
 0002:0014a3d0       ?SetText@CStatusBarCtrl@@QAEHPB_WHH@Z 006ac3d0 f   uafxcwd:winctrl2.obj
 0002:0014a460       ?SetParts@CStatusBarCtrl@@QAEHHPAH@Z 006ac460 f   uafxcwd:winctrl2.obj
 0002:0014a4c0       ?GetParts@CStatusBarCtrl@@QBEHHPAH@Z 006ac4c0 f   uafxcwd:winctrl2.obj
 0002:0014a520       ?GetBorders@CStatusBarCtrl@@QBEHPAH@Z 006ac520 f   uafxcwd:winctrl2.obj
 0002:0014a580       ?SetMinHeight@CStatusBarCtrl@@QAEXH@Z 006ac580 f   uafxcwd:winctrl2.obj
 0002:0014a5e0       ?SetSimple@CStatusBarCtrl@@QAEHH@Z 006ac5e0 f   uafxcwd:winctrl2.obj
 0002:0014a640       ?GetRect@CStatusBarCtrl@@QBEHHPAUtagRECT@@@Z 006ac640 f   uafxcwd:winctrl2.obj
 0002:0014a6b0       ??0CListCtrl@@QAE@XZ       006ac6b0 f   uafxcwd:winctrl2.obj
 0002:0014a6e0       ?GetToolTips@CListCtrl@@QBEPAVCToolTipCtrl@@XZ 006ac6e0 f   uafxcwd:winctrl2.obj
 0002:0014a750       ?SetToolTips@CListCtrl@@QAEPAVCToolTipCtrl@@PAV2@@Z 006ac750 f   uafxcwd:winctrl2.obj
 0002:0014a7c0       ?GetBkColor@CListCtrl@@QBEKXZ 006ac7c0 f   uafxcwd:winctrl2.obj
 0002:0014a820       ?SetBkColor@CListCtrl@@QAEHK@Z 006ac820 f   uafxcwd:winctrl2.obj
 0002:0014a880       ?GetImageList@CListCtrl@@QBEPAVCImageList@@H@Z 006ac880 f   uafxcwd:winctrl2.obj
 0002:0014a8f0       ?SetImageList@CListCtrl@@QAEPAVCImageList@@PAV2@H@Z 006ac8f0 f   uafxcwd:winctrl2.obj
 0002:0014a960       ?GetItemCount@CListCtrl@@QBEHXZ 006ac960 f   uafxcwd:winctrl2.obj
 0002:0014a9c0       ?GetItem@CListCtrl@@QBEHPAUtagLVITEMW@@@Z 006ac9c0 f   uafxcwd:winctrl2.obj
 0002:0014aa20       ?SetItem@CListCtrl@@QAEHPBUtagLVITEMW@@@Z 006aca20 f   uafxcwd:winctrl2.obj
 0002:0014aa80       ?SetItemData@CListCtrl@@QAEHHK@Z 006aca80 f   uafxcwd:winctrl2.obj
 0002:0014aaf0       ?InsertItem@CListCtrl@@QAEHPBUtagLVITEMW@@@Z 006acaf0 f   uafxcwd:winctrl2.obj
 0002:0014ab50       ?InsertItem@CListCtrl@@QAEHHPB_W@Z 006acb50 f   uafxcwd:winctrl2.obj
 0002:0014abc0       ?InsertItem@CListCtrl@@QAEHHPB_WH@Z 006acbc0 f   uafxcwd:winctrl2.obj
 0002:0014ac30       ?DeleteItem@CListCtrl@@QAEHH@Z 006acc30 f   uafxcwd:winctrl2.obj
 0002:0014ac90       ?DeleteAllItems@CListCtrl@@QAEHXZ 006acc90 f   uafxcwd:winctrl2.obj
 0002:0014acf0       ?GetCallbackMask@CListCtrl@@QBEIXZ 006accf0 f   uafxcwd:winctrl2.obj
 0002:0014ad50       ?SetCallbackMask@CListCtrl@@QAEHI@Z 006acd50 f   uafxcwd:winctrl2.obj
 0002:0014adb0       ?GetNextItem@CListCtrl@@QBEHHH@Z 006acdb0 f   uafxcwd:winctrl2.obj
 0002:0014ae20       ?GetFirstSelectedItemPosition@CListCtrl@@QBEPAU__POSITION@@XZ 006ace20 f   uafxcwd:winctrl2.obj
 0002:0014ae80       ?GetNextSelectedItem@CListCtrl@@QBEHAAPAU__POSITION@@@Z 006ace80 f   uafxcwd:winctrl2.obj
 0002:0014aef0       ?FindItem@CListCtrl@@QBEHPAUtagLVFINDINFOW@@H@Z 006acef0 f   uafxcwd:winctrl2.obj
 0002:0014af60       ?HitTest@CListCtrl@@QBEHPAUtagLVHITTESTINFO@@@Z 006acf60 f   uafxcwd:winctrl2.obj
 0002:0014afc0       ?SetItemPosition@CListCtrl@@QAEHHUtagPOINT@@@Z 006acfc0 f   uafxcwd:winctrl2.obj
 0002:0014b050       ?GetItemPosition@CListCtrl@@QBEHHPAUtagPOINT@@@Z 006ad050 f   uafxcwd:winctrl2.obj
 0002:0014b0c0       ?GetStringWidth@CListCtrl@@QBEHPB_W@Z 006ad0c0 f   uafxcwd:winctrl2.obj
 0002:0014b120       ?EnsureVisible@CListCtrl@@QAEHHH@Z 006ad120 f   uafxcwd:winctrl2.obj
 0002:0014b190       ?Scroll@CListCtrl@@QAEHVCSize@@@Z 006ad190 f   uafxcwd:winctrl2.obj
 0002:0014b200       ?RedrawItems@CListCtrl@@QAEHHH@Z 006ad200 f   uafxcwd:winctrl2.obj
 0002:0014b270       ?Arrange@CListCtrl@@QAEHI@Z 006ad270 f   uafxcwd:winctrl2.obj
 0002:0014b2d0       ?EditLabel@CListCtrl@@QAEPAVCEdit@@H@Z 006ad2d0 f   uafxcwd:winctrl2.obj
 0002:0014b340       ?GetEditControl@CListCtrl@@QBEPAVCEdit@@XZ 006ad340 f   uafxcwd:winctrl2.obj
 0002:0014b3b0       ?GetColumn@CListCtrl@@QBEHHPAUtagLVCOLUMNW@@@Z 006ad3b0 f   uafxcwd:winctrl2.obj
 0002:0014b420       ?SetColumn@CListCtrl@@QAEHHPBUtagLVCOLUMNW@@@Z 006ad420 f   uafxcwd:winctrl2.obj
 0002:0014b490       ?InsertColumn@CListCtrl@@QAEHHPBUtagLVCOLUMNW@@@Z 006ad490 f   uafxcwd:winctrl2.obj
 0002:0014b500       ?DeleteColumn@CListCtrl@@QAEHH@Z 006ad500 f   uafxcwd:winctrl2.obj
 0002:0014b560       ?GetColumnWidth@CListCtrl@@QBEHH@Z 006ad560 f   uafxcwd:winctrl2.obj
 0002:0014b5c0       ?SetColumnWidth@CListCtrl@@QAEHHH@Z 006ad5c0 f   uafxcwd:winctrl2.obj
 0002:0014b630       ?GetViewRect@CListCtrl@@QBEHPAUtagRECT@@@Z 006ad630 f   uafxcwd:winctrl2.obj
 0002:0014b690       ?GetTextColor@CListCtrl@@QBEKXZ 006ad690 f   uafxcwd:winctrl2.obj
 0002:0014b6f0       ?SetTextColor@CListCtrl@@QAEHK@Z 006ad6f0 f   uafxcwd:winctrl2.obj
 0002:0014b750       ?GetTextBkColor@CListCtrl@@QBEKXZ 006ad750 f   uafxcwd:winctrl2.obj
 0002:0014b7b0       ?SetTextBkColor@CListCtrl@@QAEHK@Z 006ad7b0 f   uafxcwd:winctrl2.obj
 0002:0014b810       ?GetTopIndex@CListCtrl@@QBEHXZ 006ad810 f   uafxcwd:winctrl2.obj
 0002:0014b870       ?GetCountPerPage@CListCtrl@@QBEHXZ 006ad870 f   uafxcwd:winctrl2.obj
 0002:0014b8d0       ?GetOrigin@CListCtrl@@QBEHPAUtagPOINT@@@Z 006ad8d0 f   uafxcwd:winctrl2.obj
 0002:0014b930       ?Update@CListCtrl@@QAEHH@Z 006ad930 f   uafxcwd:winctrl2.obj
 0002:0014b990       ?SetItemState@CListCtrl@@QAEHHPAUtagLVITEMW@@@Z 006ad990 f   uafxcwd:winctrl2.obj
 0002:0014ba00       ?GetItemState@CListCtrl@@QBEIHI@Z 006ada00 f   uafxcwd:winctrl2.obj
 0002:0014ba70       ?SetItemCount@CListCtrl@@QAEXH@Z 006ada70 f   uafxcwd:winctrl2.obj
 0002:0014bad0       ?SortItems@CListCtrl@@QAEHP6GHJJJ@ZK@Z 006adad0 f   uafxcwd:winctrl2.obj
 0002:0014bb60       ?SortItemsEx@CListCtrl@@QAEHP6GHJJJ@ZK@Z 006adb60 f   uafxcwd:winctrl2.obj
 0002:0014bbf0       ?GetSelectedCount@CListCtrl@@QBEIXZ 006adbf0 f   uafxcwd:winctrl2.obj
 0002:0014bc50       ?GetItemSpacing@CListCtrl@@QBEHHPAH0@Z 006adc50 f   uafxcwd:winctrl2.obj
 0002:0014bd40       ??0CTreeCtrl@@QAE@XZ       006add40 f   uafxcwd:winctrl2.obj
 0002:0014bd70       ?InsertItem@CTreeCtrl@@QAEPAU_TREEITEM@@PAUtagTVINSERTSTRUCTW@@@Z 006add70 f   uafxcwd:winctrl2.obj
 0002:0014bdd0       ?InsertItem@CTreeCtrl@@QAEPAU_TREEITEM@@PB_WHHPAU2@1@Z 006addd0 f   uafxcwd:winctrl2.obj
 0002:0014be40       ?InsertItem@CTreeCtrl@@QAEPAU_TREEITEM@@PB_WPAU2@1@Z 006ade40 f   uafxcwd:winctrl2.obj
 0002:0014beb0       ?DeleteItem@CTreeCtrl@@QAEHPAU_TREEITEM@@@Z 006adeb0 f   uafxcwd:winctrl2.obj
 0002:0014bf10       ?DeleteAllItems@CTreeCtrl@@QAEHXZ 006adf10 f   uafxcwd:winctrl2.obj
 0002:0014bf70       ?Expand@CTreeCtrl@@QAEHPAU_TREEITEM@@I@Z 006adf70 f   uafxcwd:winctrl2.obj
 0002:0014bfe0       ?GetCount@CTreeCtrl@@QBEIXZ 006adfe0 f   uafxcwd:winctrl2.obj
 0002:0014c040       ?GetIndent@CTreeCtrl@@QBEIXZ 006ae040 f   uafxcwd:winctrl2.obj
 0002:0014c0a0       ?SetIndent@CTreeCtrl@@QAEXI@Z 006ae0a0 f   uafxcwd:winctrl2.obj
 0002:0014c100       ?GetImageList@CTreeCtrl@@QBEPAVCImageList@@H@Z 006ae100 f   uafxcwd:winctrl2.obj
 0002:0014c170       ?SetImageList@CTreeCtrl@@QAEPAVCImageList@@PAV2@H@Z 006ae170 f   uafxcwd:winctrl2.obj
 0002:0014c1e0       ?SetScrollTime@CTreeCtrl@@QAEII@Z 006ae1e0 f   uafxcwd:winctrl2.obj
 0002:0014c240       ?GetNextItem@CTreeCtrl@@QBEPAU_TREEITEM@@PAU2@I@Z 006ae240 f   uafxcwd:winctrl2.obj
 0002:0014c2b0       ?GetChildItem@CTreeCtrl@@QBEPAU_TREEITEM@@PAU2@@Z 006ae2b0 f   uafxcwd:winctrl2.obj
 0002:0014c310       ?GetNextSiblingItem@CTreeCtrl@@QBEPAU_TREEITEM@@PAU2@@Z 006ae310 f   uafxcwd:winctrl2.obj
 0002:0014c370       ?GetPrevSiblingItem@CTreeCtrl@@QBEPAU_TREEITEM@@PAU2@@Z 006ae370 f   uafxcwd:winctrl2.obj
 0002:0014c3d0       ?GetParentItem@CTreeCtrl@@QBEPAU_TREEITEM@@PAU2@@Z 006ae3d0 f   uafxcwd:winctrl2.obj
 0002:0014c430       ?GetFirstVisibleItem@CTreeCtrl@@QBEPAU_TREEITEM@@XZ 006ae430 f   uafxcwd:winctrl2.obj
 0002:0014c490       ?GetNextVisibleItem@CTreeCtrl@@QBEPAU_TREEITEM@@PAU2@@Z 006ae490 f   uafxcwd:winctrl2.obj
 0002:0014c4f0       ?GetPrevVisibleItem@CTreeCtrl@@QBEPAU_TREEITEM@@PAU2@@Z 006ae4f0 f   uafxcwd:winctrl2.obj
 0002:0014c550       ?GetLastVisibleItem@CTreeCtrl@@QBEPAU_TREEITEM@@XZ 006ae550 f   uafxcwd:winctrl2.obj
 0002:0014c5b0       ?GetSelectedItem@CTreeCtrl@@QBEPAU_TREEITEM@@XZ 006ae5b0 f   uafxcwd:winctrl2.obj
 0002:0014c610       ?GetScrollTime@CTreeCtrl@@QBEIXZ 006ae610 f   uafxcwd:winctrl2.obj
 0002:0014c670       ?GetDropHilightItem@CTreeCtrl@@QBEPAU_TREEITEM@@XZ 006ae670 f   uafxcwd:winctrl2.obj
 0002:0014c6d0       ?GetRootItem@CTreeCtrl@@QBEPAU_TREEITEM@@XZ 006ae6d0 f   uafxcwd:winctrl2.obj
 0002:0014c730       ?Select@CTreeCtrl@@QAEHPAU_TREEITEM@@I@Z 006ae730 f   uafxcwd:winctrl2.obj
 0002:0014c7a0       ?SelectItem@CTreeCtrl@@QAEHPAU_TREEITEM@@@Z 006ae7a0 f   uafxcwd:winctrl2.obj
 0002:0014c800       ?SelectDropTarget@CTreeCtrl@@QAEHPAU_TREEITEM@@@Z 006ae800 f   uafxcwd:winctrl2.obj
 0002:0014c860       ?SelectSetFirstVisible@CTreeCtrl@@QAEHPAU_TREEITEM@@@Z 006ae860 f   uafxcwd:winctrl2.obj
 0002:0014c8c0       ?GetItem@CTreeCtrl@@QBEHPAUtagTVITEMW@@@Z 006ae8c0 f   uafxcwd:winctrl2.obj
 0002:0014c920       ?SetItem@CTreeCtrl@@QAEHPAUtagTVITEMW@@@Z 006ae920 f   uafxcwd:winctrl2.obj
 0002:0014c980       ?SetItemText@CTreeCtrl@@QAEHPAU_TREEITEM@@PB_W@Z 006ae980 f   uafxcwd:winctrl2.obj
 0002:0014c9f0       ?SetItemImage@CTreeCtrl@@QAEHPAU_TREEITEM@@HH@Z 006ae9f0 f   uafxcwd:winctrl2.obj
 0002:0014ca60       ?SetItemState@CTreeCtrl@@QAEHPAU_TREEITEM@@II@Z 006aea60 f   uafxcwd:winctrl2.obj
 0002:0014cad0       ?SetItemData@CTreeCtrl@@QAEHPAU_TREEITEM@@K@Z 006aead0 f   uafxcwd:winctrl2.obj
 0002:0014cb40       ?EditLabel@CTreeCtrl@@QAEPAVCEdit@@PAU_TREEITEM@@@Z 006aeb40 f   uafxcwd:winctrl2.obj
 0002:0014cbb0       ?HitTest@CTreeCtrl@@QBEPAU_TREEITEM@@PAUtagTVHITTESTINFO@@@Z 006aebb0 f   uafxcwd:winctrl2.obj
 0002:0014cc10       ?GetEditControl@CTreeCtrl@@QBEPAVCEdit@@XZ 006aec10 f   uafxcwd:winctrl2.obj
 0002:0014cc80       ?GetVisibleCount@CTreeCtrl@@QBEIXZ 006aec80 f   uafxcwd:winctrl2.obj
 0002:0014cce0       ?SortChildren@CTreeCtrl@@QAEHPAU_TREEITEM@@@Z 006aece0 f   uafxcwd:winctrl2.obj
 0002:0014cd40       ?EnsureVisible@CTreeCtrl@@QAEHPAU_TREEITEM@@@Z 006aed40 f   uafxcwd:winctrl2.obj
 0002:0014cda0       ?SortChildrenCB@CTreeCtrl@@QAEHPAUtagTVSORTCB@@@Z 006aeda0 f   uafxcwd:winctrl2.obj
 0002:0014ce00       ?GetToolTips@CTreeCtrl@@QBEPAVCToolTipCtrl@@XZ 006aee00 f   uafxcwd:winctrl2.obj
 0002:0014ce70       ?SetToolTips@CTreeCtrl@@QAEPAVCToolTipCtrl@@PAV2@@Z 006aee70 f   uafxcwd:winctrl2.obj
 0002:0014cee0       ?GetBkColor@CTreeCtrl@@QBEKXZ 006aeee0 f   uafxcwd:winctrl2.obj
 0002:0014cf40       ?SetBkColor@CTreeCtrl@@QAEKK@Z 006aef40 f   uafxcwd:winctrl2.obj
 0002:0014cfa0       ?GetItemHeight@CTreeCtrl@@QBEFXZ 006aefa0 f   uafxcwd:winctrl2.obj
 0002:0014d000       ?SetItemHeight@CTreeCtrl@@QAEFF@Z 006af000 f   uafxcwd:winctrl2.obj
 0002:0014d060       ?GetTextColor@CTreeCtrl@@QBEKXZ 006af060 f   uafxcwd:winctrl2.obj
 0002:0014d0c0       ?SetTextColor@CTreeCtrl@@QAEKK@Z 006af0c0 f   uafxcwd:winctrl2.obj
 0002:0014d120       ?SetInsertMark@CTreeCtrl@@QAEHPAU_TREEITEM@@H@Z 006af120 f   uafxcwd:winctrl2.obj
 0002:0014d190       ?GetInsertMarkColor@CTreeCtrl@@QBEKXZ 006af190 f   uafxcwd:winctrl2.obj
 0002:0014d1f0       ?SetInsertMarkColor@CTreeCtrl@@QAEKK@Z 006af1f0 f   uafxcwd:winctrl2.obj
 0002:0014d250       ?EndEditLabelNow@CTreeCtrl@@QAEHH@Z 006af250 f   uafxcwd:winctrl2.obj
 0002:0014d2b0       ?GetLineColor@CTreeCtrl@@QBEKXZ 006af2b0 f   uafxcwd:winctrl2.obj
 0002:0014d310       ?SetLineColor@CTreeCtrl@@QAEKK@Z 006af310 f   uafxcwd:winctrl2.obj
 0002:0014d370       ?MapItemToAccId@CTreeCtrl@@QBEIPAU_TREEITEM@@@Z 006af370 f   uafxcwd:winctrl2.obj
 0002:0014d3d0       ?MapAccIdToItem@CTreeCtrl@@QBEPAU_TREEITEM@@I@Z 006af3d0 f   uafxcwd:winctrl2.obj
 0002:0014d430       ?GetSelectedCount@CTreeCtrl@@QAEIXZ 006af430 f   uafxcwd:winctrl2.obj
 0002:0014d490       ?ShowInfoTip@CTreeCtrl@@QAEXPAU_TREEITEM@@@Z 006af490 f   uafxcwd:winctrl2.obj
 0002:0014d4f0       ?SetItemStateEx@CTreeCtrl@@QAEHPAU_TREEITEM@@I@Z 006af4f0 f   uafxcwd:winctrl2.obj
 0002:0014d560       ?SetItemExpandedImageIndex@CTreeCtrl@@QAEHPAU_TREEITEM@@H@Z 006af560 f   uafxcwd:winctrl2.obj
 0002:0014d5e0       ?GetExtendedStyle@CTreeCtrl@@QBEKXZ 006af5e0 f   uafxcwd:winctrl2.obj
 0002:0014d640       ?SetExtendedStyle@CTreeCtrl@@QAEKKK@Z 006af640 f   uafxcwd:winctrl2.obj
 0002:0014d6b0       ?SetAutoscrollInfo@CTreeCtrl@@QAEHII@Z 006af6b0 f   uafxcwd:winctrl2.obj
 0002:0014d720       ??0CHotKeyCtrl@@QAE@XZ     006af720 f   uafxcwd:winctrl2.obj
 0002:0014d750       ?SetHotKey@CHotKeyCtrl@@QAEXGG@Z 006af750 f   uafxcwd:winctrl2.obj
 0002:0014d7e0       ?GetHotKey@CHotKeyCtrl@@QBEKXZ 006af7e0 f   uafxcwd:winctrl2.obj
 0002:0014d840       ?SetRules@CHotKeyCtrl@@QAEXGG@Z 006af840 f   uafxcwd:winctrl2.obj
 0002:0014d8b0       ?Activate@CToolTipCtrl@@QAEXH@Z 006af8b0 f   uafxcwd:winctrl2.obj
 0002:0014d910       ?SetToolInfo@CToolTipCtrl@@QAEXPAUtagTOOLINFOW@@@Z 006af910 f   uafxcwd:winctrl2.obj
 0002:0014d970       ?RelayEvent@CToolTipCtrl@@QAEXPAUtagMSG@@@Z 006af970 f   uafxcwd:winctrl2.obj
 0002:0014d9d0       ?GetToolCount@CToolTipCtrl@@QBEHXZ 006af9d0 f   uafxcwd:winctrl2.obj
 0002:0014da30       ??0CSpinButtonCtrl@@QAE@XZ 006afa30 f   uafxcwd:winctrl2.obj
 0002:0014da60       ?GetAccel@CSpinButtonCtrl@@QBEIHPAU_UDACCEL@@@Z 006afa60 f   uafxcwd:winctrl2.obj
 0002:0014dad0       ?GetBase@CSpinButtonCtrl@@QBEIXZ 006afad0 f   uafxcwd:winctrl2.obj
 0002:0014db40       ?GetBuddy@CSpinButtonCtrl@@QBEPAVCWnd@@XZ 006afb40 f   uafxcwd:winctrl2.obj
 0002:0014dbb0       ?GetPos@CSpinButtonCtrl@@QBEHXZ 006afbb0 f   uafxcwd:winctrl2.obj
 0002:0014dc10       ?GetRange@CSpinButtonCtrl@@QBEKXZ 006afc10 f   uafxcwd:winctrl2.obj
 0002:0014dc70       ?SetAccel@CSpinButtonCtrl@@QAEHHPAU_UDACCEL@@@Z 006afc70 f   uafxcwd:winctrl2.obj
 0002:0014dce0       ?SetBase@CSpinButtonCtrl@@QAEHH@Z 006afce0 f   uafxcwd:winctrl2.obj
 0002:0014dd40       ?SetBuddy@CSpinButtonCtrl@@QAEPAVCWnd@@PAV2@@Z 006afd40 f   uafxcwd:winctrl2.obj
 0002:0014ddb0       ?SetPos@CSpinButtonCtrl@@QAEHH@Z 006afdb0 f   uafxcwd:winctrl2.obj
 0002:0014de20       ?SetRange@CSpinButtonCtrl@@QAEXFF@Z 006afe20 f   uafxcwd:winctrl2.obj
 0002:0014dea0       ??0CSliderCtrl@@QAE@XZ     006afea0 f   uafxcwd:winctrl2.obj
 0002:0014ded0       ?GetLineSize@CSliderCtrl@@QBEHXZ 006afed0 f   uafxcwd:winctrl2.obj
 0002:0014df30       ?SetLineSize@CSliderCtrl@@QAEHH@Z 006aff30 f   uafxcwd:winctrl2.obj
 0002:0014df90       ?GetPageSize@CSliderCtrl@@QBEHXZ 006aff90 f   uafxcwd:winctrl2.obj
 0002:0014dff0       ?SetPageSize@CSliderCtrl@@QAEHH@Z 006afff0 f   uafxcwd:winctrl2.obj
 0002:0014e050       ?GetRangeMax@CSliderCtrl@@QBEHXZ 006b0050 f   uafxcwd:winctrl2.obj
 0002:0014e0b0       ?GetRangeMin@CSliderCtrl@@QBEHXZ 006b00b0 f   uafxcwd:winctrl2.obj
 0002:0014e110       ?SetRangeMin@CSliderCtrl@@QAEXHH@Z 006b0110 f   uafxcwd:winctrl2.obj
 0002:0014e180       ?SetRangeMax@CSliderCtrl@@QAEXHH@Z 006b0180 f   uafxcwd:winctrl2.obj
 0002:0014e1f0       ?ClearSel@CSliderCtrl@@QAEXH@Z 006b01f0 f   uafxcwd:winctrl2.obj
 0002:0014e250       ?GetChannelRect@CSliderCtrl@@QBEXPAUtagRECT@@@Z 006b0250 f   uafxcwd:winctrl2.obj
 0002:0014e2b0       ?GetThumbRect@CSliderCtrl@@QBEXPAUtagRECT@@@Z 006b02b0 f   uafxcwd:winctrl2.obj
 0002:0014e310       ?GetPos@CSliderCtrl@@QBEHXZ 006b0310 f   uafxcwd:winctrl2.obj
 0002:0014e370       ?SetPos@CSliderCtrl@@QAEXH@Z 006b0370 f   uafxcwd:winctrl2.obj
 0002:0014e3d0       ?ClearTics@CSliderCtrl@@QAEXH@Z 006b03d0 f   uafxcwd:winctrl2.obj
 0002:0014e430       ?GetNumTics@CSliderCtrl@@QBEIXZ 006b0430 f   uafxcwd:winctrl2.obj
 0002:0014e490       ?GetTicArray@CSliderCtrl@@QBEPAKXZ 006b0490 f   uafxcwd:winctrl2.obj
 0002:0014e4f0       ?GetTic@CSliderCtrl@@QBEHH@Z 006b04f0 f   uafxcwd:winctrl2.obj
 0002:0014e550       ?GetTicPos@CSliderCtrl@@QBEHH@Z 006b0550 f   uafxcwd:winctrl2.obj
 0002:0014e5b0       ?SetTic@CSliderCtrl@@QAEHH@Z 006b05b0 f   uafxcwd:winctrl2.obj
 0002:0014e610       ?SetTicFreq@CSliderCtrl@@QAEXH@Z 006b0610 f   uafxcwd:winctrl2.obj
 0002:0014e670       ?GetBuddy@CSliderCtrl@@QBEPAVCWnd@@H@Z 006b0670 f   uafxcwd:winctrl2.obj
 0002:0014e6e0       ?SetBuddy@CSliderCtrl@@QAEPAVCWnd@@PAV2@H@Z 006b06e0 f   uafxcwd:winctrl2.obj
 0002:0014e750       ?GetToolTips@CSliderCtrl@@QBEPAVCToolTipCtrl@@XZ 006b0750 f   uafxcwd:winctrl2.obj
 0002:0014e7c0       ?SetToolTips@CSliderCtrl@@QAEXPAVCToolTipCtrl@@@Z 006b07c0 f   uafxcwd:winctrl2.obj
 0002:0014e830       ?SetTipSide@CSliderCtrl@@QAEHH@Z 006b0830 f   uafxcwd:winctrl2.obj
 0002:0014e890       ?SetThumbLength@CSliderCtrl@@QAEXH@Z 006b0890 f   uafxcwd:winctrl2.obj
 0002:0014e8f0       ?GetThumbLength@CSliderCtrl@@QBEHXZ 006b08f0 f   uafxcwd:winctrl2.obj
 0002:0014e950       ??0CProgressCtrl@@QAE@XZ   006b0950 f   uafxcwd:winctrl2.obj
 0002:0014e980       ?SetBkColor@CProgressCtrl@@QAEKK@Z 006b0980 f   uafxcwd:winctrl2.obj
 0002:0014e9e0       ?SetRange@CProgressCtrl@@QAEXFF@Z 006b09e0 f   uafxcwd:winctrl2.obj
 0002:0014ea60       ?SetRange32@CProgressCtrl@@QAEXHH@Z 006b0a60 f   uafxcwd:winctrl2.obj
 0002:0014ead0       ?GetPos@CProgressCtrl@@QBEHXZ 006b0ad0 f   uafxcwd:winctrl2.obj
 0002:0014eb30       ?OffsetPos@CProgressCtrl@@QAEHH@Z 006b0b30 f   uafxcwd:winctrl2.obj
 0002:0014eb90       ?SetStep@CProgressCtrl@@QAEHH@Z 006b0b90 f   uafxcwd:winctrl2.obj
 0002:0014ebf0       ?StepIt@CProgressCtrl@@QAEHXZ 006b0bf0 f   uafxcwd:winctrl2.obj
 0002:0014ec50       ??0CHeaderCtrl@@QAE@XZ     006b0c50 f   uafxcwd:winctrl2.obj
 0002:0014ec80       ?GetItemCount@CHeaderCtrl@@QBEHXZ 006b0c80 f   uafxcwd:winctrl2.obj
 0002:0014ece0       ?InsertItem@CHeaderCtrl@@QAEHHPAU_HD_ITEMW@@@Z 006b0ce0 f   uafxcwd:winctrl2.obj
 0002:0014ed50       ?DeleteItem@CHeaderCtrl@@QAEHH@Z 006b0d50 f   uafxcwd:winctrl2.obj
 0002:0014edb0       ?GetItem@CHeaderCtrl@@QBEHHPAU_HD_ITEMW@@@Z 006b0db0 f   uafxcwd:winctrl2.obj
 0002:0014ee20       ?SetItem@CHeaderCtrl@@QAEHHPAU_HD_ITEMW@@@Z 006b0e20 f   uafxcwd:winctrl2.obj
 0002:0014ee90       ?Layout@CHeaderCtrl@@QAEHPAU_HD_LAYOUT@@@Z 006b0e90 f   uafxcwd:winctrl2.obj
 0002:0014eef0       ?HitTest@CHeaderCtrl@@QAEHPAU_HD_HITTESTINFO@@@Z 006b0ef0 f   uafxcwd:winctrl2.obj
 0002:0014ef50       ??0CTabCtrl@@QAE@XZ        006b0f50 f   uafxcwd:winctrl2.obj
 0002:0014ef80       ?GetImageList@CTabCtrl@@QBEPAVCImageList@@XZ 006b0f80 f   uafxcwd:winctrl2.obj
 0002:0014eff0       ?SetImageList@CTabCtrl@@QAEPAVCImageList@@PAV2@@Z 006b0ff0 f   uafxcwd:winctrl2.obj
 0002:0014f060       ?GetItemCount@CTabCtrl@@QBEHXZ 006b1060 f   uafxcwd:winctrl2.obj
 0002:0014f0c0       ?GetItem@CTabCtrl@@QBEHHPAUtagTCITEMW@@@Z 006b10c0 f   uafxcwd:winctrl2.obj
 0002:0014f130       ?SetItem@CTabCtrl@@QAEHHPAUtagTCITEMW@@@Z 006b1130 f   uafxcwd:winctrl2.obj
 0002:0014f1a0       ?SetItemExtra@CTabCtrl@@QAEHH@Z 006b11a0 f   uafxcwd:winctrl2.obj
 0002:0014f200       ?SetCurFocus@CTabCtrl@@QAEXH@Z 006b1200 f   uafxcwd:winctrl2.obj
 0002:0014f260       ?InsertItem@CTabCtrl@@QAEJHPAUtagTCITEMW@@@Z 006b1260 f   uafxcwd:winctrl2.obj
 0002:0014f2d0       ?InsertItem@CTabCtrl@@QAEJHPB_W@Z 006b12d0 f   uafxcwd:winctrl2.obj
 0002:0014f330       ?InsertItem@CTabCtrl@@QAEJHPB_WH@Z 006b1330 f   uafxcwd:winctrl2.obj
 0002:0014f390       ?DeleteItem@CTabCtrl@@QAEHH@Z 006b1390 f   uafxcwd:winctrl2.obj
 0002:0014f3f0       ?DeleteAllItems@CTabCtrl@@QAEHXZ 006b13f0 f   uafxcwd:winctrl2.obj
 0002:0014f450       ?GetItemRect@CTabCtrl@@QBEHHPAUtagRECT@@@Z 006b1450 f   uafxcwd:winctrl2.obj
 0002:0014f4c0       ?GetCurSel@CTabCtrl@@QBEHXZ 006b14c0 f   uafxcwd:winctrl2.obj
 0002:0014f520       ?SetCurSel@CTabCtrl@@QAEHH@Z 006b1520 f   uafxcwd:winctrl2.obj
 0002:0014f580       ?HitTest@CTabCtrl@@QBEHPAUtagTCHITTESTINFO@@@Z 006b1580 f   uafxcwd:winctrl2.obj
 0002:0014f5e0       ?AdjustRect@CTabCtrl@@QAEXHPAUtagRECT@@@Z 006b15e0 f   uafxcwd:winctrl2.obj
 0002:0014f650       ?SetItemSize@CTabCtrl@@QAE?AVCSize@@V2@@Z 006b1650 f   uafxcwd:winctrl2.obj
 0002:0014f6e0       ?RemoveImage@CTabCtrl@@QAEXH@Z 006b16e0 f   uafxcwd:winctrl2.obj
 0002:0014f740       ?SetPadding@CTabCtrl@@QAEXVCSize@@@Z 006b1740 f   uafxcwd:winctrl2.obj
 0002:0014f7c0       ?GetRowCount@CTabCtrl@@QBEHXZ 006b17c0 f   uafxcwd:winctrl2.obj
 0002:0014f820       ?GetToolTips@CTabCtrl@@QBEPAVCToolTipCtrl@@XZ 006b1820 f   uafxcwd:winctrl2.obj
 0002:0014f890       ?SetToolTips@CTabCtrl@@QAEXPAVCToolTipCtrl@@@Z 006b1890 f   uafxcwd:winctrl2.obj
 0002:0014f900       ?GetCurFocus@CTabCtrl@@QBEHXZ 006b1900 f   uafxcwd:winctrl2.obj
 0002:0014f960       ?SetMinTabWidth@CTabCtrl@@QAEHH@Z 006b1960 f   uafxcwd:winctrl2.obj
 0002:0014f9c0       ?DeselectAll@CTabCtrl@@QAEXH@Z 006b19c0 f   uafxcwd:winctrl2.obj
 0002:0014fa20       ?HighlightItem@CTabCtrl@@QAEHHH@Z 006b1a20 f   uafxcwd:winctrl2.obj
 0002:0014fa90       ?GetExtendedStyle@CTabCtrl@@QBEKXZ 006b1a90 f   uafxcwd:winctrl2.obj
 0002:0014faf0       ?SetExtendedStyle@CTabCtrl@@QAEKKK@Z 006b1af0 f   uafxcwd:winctrl2.obj
 0002:0014fb60       ??0CAnimateCtrl@@QAE@XZ    006b1b60 f   uafxcwd:winctrl2.obj
 0002:0014fb90       ?Open@CAnimateCtrl@@QAEHPB_W@Z 006b1b90 f   uafxcwd:winctrl2.obj
 0002:0014fc00       ?Open@CAnimateCtrl@@QAEHI@Z 006b1c00 f   uafxcwd:winctrl2.obj
 0002:0014fc70       ?Play@CAnimateCtrl@@QAEHIII@Z 006b1c70 f   uafxcwd:winctrl2.obj
 0002:0014fcf0       ?Stop@CAnimateCtrl@@QAEHXZ 006b1cf0 f   uafxcwd:winctrl2.obj
 0002:0014fd50       ?Close@CAnimateCtrl@@QAEHXZ 006b1d50 f   uafxcwd:winctrl2.obj
 0002:0014fdb0       ?Seek@CAnimateCtrl@@QAEHI@Z 006b1db0 f   uafxcwd:winctrl2.obj
 0002:0014fe30       ?IsPlaying@CAnimateCtrl@@QBEHXZ 006b1e30 f   uafxcwd:winctrl2.obj
 0002:0014fe90       ??0CRichEditCtrl@@QAE@XZ   006b1e90 f   uafxcwd:winctrl2.obj
 0002:0014fec0       ?CanUndo@CRichEditCtrl@@QBEHXZ 006b1ec0 f   uafxcwd:winctrl2.obj
 0002:0014ff20       ?CanRedo@CRichEditCtrl@@QBEHXZ 006b1f20 f   uafxcwd:winctrl2.obj
 0002:0014ff80       ?GetUndoName@CRichEditCtrl@@QBE?AW4_undonameid@@XZ 006b1f80 f   uafxcwd:winctrl2.obj
 0002:0014ffe0       ?GetRedoName@CRichEditCtrl@@QBE?AW4_undonameid@@XZ 006b1fe0 f   uafxcwd:winctrl2.obj
 0002:00150040       ?GetLineCount@CRichEditCtrl@@QBEHXZ 006b2040 f   uafxcwd:winctrl2.obj
 0002:001500a0       ?GetModify@CRichEditCtrl@@QBEHXZ 006b20a0 f   uafxcwd:winctrl2.obj
 0002:00150100       ?SetModify@CRichEditCtrl@@QAEXH@Z 006b2100 f   uafxcwd:winctrl2.obj
 0002:00150160       ?SetTextMode@CRichEditCtrl@@QAEHI@Z 006b2160 f   uafxcwd:winctrl2.obj
 0002:001501c0       ?GetTextMode@CRichEditCtrl@@QBEIXZ 006b21c0 f   uafxcwd:winctrl2.obj
 0002:00150220       ?GetRect@CRichEditCtrl@@QBEXPAUtagRECT@@@Z 006b2220 f   uafxcwd:winctrl2.obj
 0002:00150280       ?GetCharPos@CRichEditCtrl@@QBE?AVCPoint@@J@Z 006b2280 f   uafxcwd:winctrl2.obj
 0002:00150310       ?GetOptions@CRichEditCtrl@@QBEIXZ 006b2310 f   uafxcwd:winctrl2.obj
 0002:00150370       ?SetOptions@CRichEditCtrl@@QAEXGK@Z 006b2370 f   uafxcwd:winctrl2.obj
 0002:001503e0       ?SetAutoURLDetect@CRichEditCtrl@@QAEHH@Z 006b23e0 f   uafxcwd:winctrl2.obj
 0002:00150440       ?EmptyUndoBuffer@CRichEditCtrl@@QAEXXZ 006b2440 f   uafxcwd:winctrl2.obj
 0002:001504a0       ?SetUndoLimit@CRichEditCtrl@@QAEII@Z 006b24a0 f   uafxcwd:winctrl2.obj
 0002:00150500       ?ReplaceSel@CRichEditCtrl@@QAEXPB_WH@Z 006b2500 f   uafxcwd:winctrl2.obj
 0002:00150570       ?SetRect@CRichEditCtrl@@QAEXPBUtagRECT@@@Z 006b2570 f   uafxcwd:winctrl2.obj
 0002:001505d0       ?StopGroupTyping@CRichEditCtrl@@QAEXXZ 006b25d0 f   uafxcwd:winctrl2.obj
 0002:00150630       ?Redo@CRichEditCtrl@@QAEHXZ 006b2630 f   uafxcwd:winctrl2.obj
 0002:00150690       ?Undo@CRichEditCtrl@@QAEHXZ 006b2690 f   uafxcwd:winctrl2.obj
 0002:001506f0       ?Clear@CRichEditCtrl@@QAEXXZ 006b26f0 f   uafxcwd:winctrl2.obj
 0002:00150750       ?Copy@CRichEditCtrl@@QAEXXZ 006b2750 f   uafxcwd:winctrl2.obj
 0002:001507b0       ?Cut@CRichEditCtrl@@QAEXXZ 006b27b0 f   uafxcwd:winctrl2.obj
 0002:00150810       ?Paste@CRichEditCtrl@@QAEXXZ 006b2810 f   uafxcwd:winctrl2.obj
 0002:00150870       ?SetReadOnly@CRichEditCtrl@@QAEHH@Z 006b2870 f   uafxcwd:winctrl2.obj
 0002:001508d0       ?GetFirstVisibleLine@CRichEditCtrl@@QBEHXZ 006b28d0 f   uafxcwd:winctrl2.obj
 0002:00150930       ?DisplayBand@CRichEditCtrl@@QAEHPAUtagRECT@@@Z 006b2930 f   uafxcwd:winctrl2.obj
 0002:00150990       ?GetSel@CRichEditCtrl@@QBEXAAU_charrange@@@Z 006b2990 f   uafxcwd:winctrl2.obj
 0002:001509f0       ?GetPunctuation@CRichEditCtrl@@QBEHIPAU_punctuation@@@Z 006b29f0 f   uafxcwd:winctrl2.obj
 0002:00150a60       ?SetPunctuation@CRichEditCtrl@@QAEHIPAU_punctuation@@@Z 006b2a60 f   uafxcwd:winctrl2.obj
 0002:00150ad0       ?LimitText@CRichEditCtrl@@QAEXJ@Z 006b2ad0 f   uafxcwd:winctrl2.obj
 0002:00150b30       ?LineFromChar@CRichEditCtrl@@QBEJJ@Z 006b2b30 f   uafxcwd:winctrl2.obj
 0002:00150b90       ?PosFromChar@CRichEditCtrl@@QBE?AVCPoint@@I@Z 006b2b90 f   uafxcwd:winctrl2.obj
 0002:00150c10       ?CharFromPos@CRichEditCtrl@@QBEHVCPoint@@@Z 006b2c10 f   uafxcwd:winctrl2.obj
 0002:00150c80       ?SetSel@CRichEditCtrl@@QAEXAAU_charrange@@@Z 006b2c80 f   uafxcwd:winctrl2.obj
 0002:00150ce0       ?FindWordBreak@CRichEditCtrl@@QBEKIK@Z 006b2ce0 f   uafxcwd:winctrl2.obj
 0002:00150d50       ?FindTextW@CRichEditCtrl@@QBEJKPAU_findtextexw@@@Z 006b2d50 f   uafxcwd:winctrl2.obj
 0002:00150dc0       ?FormatRange@CRichEditCtrl@@QAEJPAU_formatrange@@H@Z 006b2dc0 f   uafxcwd:winctrl2.obj
 0002:00150e30       ?GetEventMask@CRichEditCtrl@@QBEJXZ 006b2e30 f   uafxcwd:winctrl2.obj
 0002:00150e90       ?GetLimitText@CRichEditCtrl@@QBEJXZ 006b2e90 f   uafxcwd:winctrl2.obj
 0002:00150ef0       ?GetSelText@CRichEditCtrl@@QBEJPAD@Z 006b2ef0 f   uafxcwd:winctrl2.obj
 0002:00150f50       ?HideSelection@CRichEditCtrl@@QAEXHH@Z 006b2f50 f   uafxcwd:winctrl2.obj
 0002:00150fc0       ?RequestResize@CRichEditCtrl@@QAEXXZ 006b2fc0 f   uafxcwd:winctrl2.obj
 0002:00151020       ?GetSelectionType@CRichEditCtrl@@QBEGXZ 006b3020 f   uafxcwd:winctrl2.obj
 0002:00151080       ?GetWordWrapMode@CRichEditCtrl@@QBEIXZ 006b3080 f   uafxcwd:winctrl2.obj
 0002:001510e0       ?SetWordWrapMode@CRichEditCtrl@@QBEII@Z 006b30e0 f   uafxcwd:winctrl2.obj
 0002:00151140       ?SetBackgroundColor@CRichEditCtrl@@QAEKHK@Z 006b3140 f   uafxcwd:winctrl2.obj
 0002:001511b0       ?SetEventMask@CRichEditCtrl@@QAEKK@Z 006b31b0 f   uafxcwd:winctrl2.obj
 0002:00151210       ?SetOLECallback@CRichEditCtrl@@QAEHPAUIRichEditOleCallback@@@Z 006b3210 f   uafxcwd:winctrl2.obj
 0002:00151270       ?SetTargetDevice@CRichEditCtrl@@QAEHPAUHDC__@@J@Z 006b3270 f   uafxcwd:winctrl2.obj
 0002:001512e0       ?SetTargetDevice@CRichEditCtrl@@QAEHAAVCDC@@J@Z 006b32e0 f   uafxcwd:winctrl2.obj
 0002:00151350       ?StreamIn@CRichEditCtrl@@QAEJHAAU_editstream@@@Z 006b3350 f   uafxcwd:winctrl2.obj
 0002:001513c0       ?StreamOut@CRichEditCtrl@@QAEJHAAU_editstream@@@Z 006b33c0 f   uafxcwd:winctrl2.obj
 0002:00151430       ?GetTextLength@CRichEditCtrl@@QBEJXZ 006b3430 f   uafxcwd:winctrl2.obj
 0002:00151490       ?GetRuntimeClass@CDragListBox@@UBEPAUCRuntimeClass@@XZ 006b3490 f   uafxcwd:winctrl2.obj
 0002:001514b0       ?GetRuntimeClass@CSpinButtonCtrl@@UBEPAUCRuntimeClass@@XZ 006b34b0 f   uafxcwd:winctrl2.obj
 0002:001514d0       ?GetRuntimeClass@CSliderCtrl@@UBEPAUCRuntimeClass@@XZ 006b34d0 f   uafxcwd:winctrl2.obj
 0002:001514f0       ?GetRuntimeClass@CProgressCtrl@@UBEPAUCRuntimeClass@@XZ 006b34f0 f   uafxcwd:winctrl2.obj
 0002:00151510       ?GetRuntimeClass@CComboBoxEx@@UBEPAUCRuntimeClass@@XZ 006b3510 f   uafxcwd:winctrl2.obj
 0002:00151530       ?GetRuntimeClass@CHeaderCtrl@@UBEPAUCRuntimeClass@@XZ 006b3530 f   uafxcwd:winctrl2.obj
 0002:00151550       ?GetRuntimeClass@CHotKeyCtrl@@UBEPAUCRuntimeClass@@XZ 006b3550 f   uafxcwd:winctrl2.obj
 0002:00151570       ?GetRuntimeClass@CAnimateCtrl@@UBEPAUCRuntimeClass@@XZ 006b3570 f   uafxcwd:winctrl2.obj
 0002:00151590       ?GetRuntimeClass@CTabCtrl@@UBEPAUCRuntimeClass@@XZ 006b3590 f   uafxcwd:winctrl2.obj
 0002:001515b0       ?GetRuntimeClass@CTreeCtrl@@UBEPAUCRuntimeClass@@XZ 006b35b0 f   uafxcwd:winctrl2.obj
 0002:001515d0       ?GetRuntimeClass@CListCtrl@@UBEPAUCRuntimeClass@@XZ 006b35d0 f   uafxcwd:winctrl2.obj
 0002:001515f0       ?GetRuntimeClass@CToolBarCtrl@@UBEPAUCRuntimeClass@@XZ 006b35f0 f   uafxcwd:winctrl2.obj
 0002:00151610       ?GetRuntimeClass@CStatusBarCtrl@@UBEPAUCRuntimeClass@@XZ 006b3610 f   uafxcwd:winctrl2.obj
 0002:00151630       ?CreateObject@CImageList@@SGPAVCObject@@XZ 006b3630 f   uafxcwd:winctrl2.obj
 0002:001516d0       ?GetRuntimeClass@CImageList@@UBEPAUCRuntimeClass@@XZ 006b36d0 f   uafxcwd:winctrl2.obj
 0002:001516f0       ?GetRuntimeClass@CRichEditCtrl@@UBEPAUCRuntimeClass@@XZ 006b36f0 f   uafxcwd:winctrl2.obj
 0002:00151710       ?Construct@?$ConstructDestruct@VCImageList@@@@SGXPAVCObject@@@Z 006b3710 f i uafxcwd:winctrl2.obj
 0002:001517b0       ?Destruct@?$ConstructDestruct@VCImageList@@@@SGXPAVCObject@@@Z 006b37b0 f i uafxcwd:winctrl2.obj
 0002:001517e0       ?AfxImageList_Create@@YGPAU_IMAGELIST@@HHIHH@Z 006b37e0 f i uafxcwd:winctrl2.obj
 0002:00151820       ?_ImageList_Create@CComCtlWrapper@@QAEPAU_IMAGELIST@@HHIHH@Z 006b3820 f i uafxcwd:winctrl2.obj
 0002:001519c0       ??BImageList_Create_Type@CComCtlWrapper@@QAEP6GPAU_IMAGELIST@@HHIHH@ZXZ 006b39c0 f i uafxcwd:winctrl2.obj
 0002:001519e0       ?GetProcAddress_ImageList_Create@CComCtlWrapper@@QAE?AUImageList_Create_Type@1@XZ 006b39e0 f i uafxcwd:winctrl2.obj
 0002:00151a50       ??4ImageList_Create_Type@CComCtlWrapper@@QAEXP6GPAU_IMAGELIST@@HHIHH@Z@Z 006b3a50 f i uafxcwd:winctrl2.obj
 0002:00151a70       ??7ImageList_Create_Type@CComCtlWrapper@@QBE_NXZ 006b3a70 f i uafxcwd:winctrl2.obj
 0002:00151a90       ?AfxImageList_Destroy@@YGHPAU_IMAGELIST@@@Z 006b3a90 f i uafxcwd:winctrl2.obj
 0002:00151ac0       ?_ImageList_Destroy@CComCtlWrapper@@QAEHPAU_IMAGELIST@@@Z 006b3ac0 f i uafxcwd:winctrl2.obj
 0002:00151c50       ??BImageList_Destroy_Type@CComCtlWrapper@@QAEP6GHPAU_IMAGELIST@@@ZXZ 006b3c50 f i uafxcwd:winctrl2.obj
 0002:00151c70       ?GetProcAddress_ImageList_Destroy@CComCtlWrapper@@QAE?AUImageList_Destroy_Type@1@XZ 006b3c70 f i uafxcwd:winctrl2.obj
 0002:00151ce0       ??4ImageList_Destroy_Type@CComCtlWrapper@@QAEXP6GHPAU_IMAGELIST@@@Z@Z 006b3ce0 f i uafxcwd:winctrl2.obj
 0002:00151d00       ??7ImageList_Destroy_Type@CComCtlWrapper@@QBE_NXZ 006b3d00 f i uafxcwd:winctrl2.obj
 0002:00151d20       ?AfxImageList_LoadImageW@@YGPAU_IMAGELIST@@PAUHINSTANCE__@@PB_WHHKII@Z 006b3d20 f i uafxcwd:winctrl2.obj
 0002:00151d70       ?_ImageList_LoadImageW@CComCtlWrapper@@QAEPAU_IMAGELIST@@PAUHINSTANCE__@@PB_WHHKII@Z 006b3d70 f i uafxcwd:winctrl2.obj
 0002:00151f20       ??BImageList_LoadImageW_Type@CComCtlWrapper@@QAEP6GPAU_IMAGELIST@@PAUHINSTANCE__@@PB_WHHKII@ZXZ 006b3f20 f i uafxcwd:winctrl2.obj
 0002:00151f40       ?GetProcAddress_ImageList_LoadImageW@CComCtlWrapper@@QAE?AUImageList_LoadImageW_Type@1@XZ 006b3f40 f i uafxcwd:winctrl2.obj
 0002:00151fb0       ??4ImageList_LoadImageW_Type@CComCtlWrapper@@QAEXP6GPAU_IMAGELIST@@PAUHINSTANCE__@@PB_WHHKII@Z@Z 006b3fb0 f i uafxcwd:winctrl2.obj
 0002:00151fd0       ??7ImageList_LoadImageW_Type@CComCtlWrapper@@QBE_NXZ 006b3fd0 f i uafxcwd:winctrl2.obj
 0002:00151ff0       ?AfxImageList_Read@@YGPAU_IMAGELIST@@PAUIStream@@@Z 006b3ff0 f i uafxcwd:winctrl2.obj
 0002:00152020       ?_ImageList_Read@CComCtlWrapper@@QAEPAU_IMAGELIST@@PAUIStream@@@Z 006b4020 f i uafxcwd:winctrl2.obj
 0002:001521b0       ??BImageList_Read_Type@CComCtlWrapper@@QAEP6GPAU_IMAGELIST@@PAUIStream@@@ZXZ 006b41b0 f i uafxcwd:winctrl2.obj
 0002:001521d0       ?GetProcAddress_ImageList_Read@CComCtlWrapper@@QAE?AUImageList_Read_Type@1@XZ 006b41d0 f i uafxcwd:winctrl2.obj
 0002:00152240       ??4ImageList_Read_Type@CComCtlWrapper@@QAEXP6GPAU_IMAGELIST@@PAUIStream@@@Z@Z 006b4240 f i uafxcwd:winctrl2.obj
 0002:00152260       ??7ImageList_Read_Type@CComCtlWrapper@@QBE_NXZ 006b4260 f i uafxcwd:winctrl2.obj
 0002:00152280       ?AfxImageList_Write@@YGHPAU_IMAGELIST@@PAUIStream@@@Z 006b4280 f i uafxcwd:winctrl2.obj
 0002:001522b0       ?_ImageList_Write@CComCtlWrapper@@QAEHPAU_IMAGELIST@@PAUIStream@@@Z 006b42b0 f i uafxcwd:winctrl2.obj
 0002:00152450       ??BImageList_Write_Type@CComCtlWrapper@@QAEP6GHPAU_IMAGELIST@@PAUIStream@@@ZXZ 006b4450 f i uafxcwd:winctrl2.obj
 0002:00152470       ?GetProcAddress_ImageList_Write@CComCtlWrapper@@QAE?AUImageList_Write_Type@1@XZ 006b4470 f i uafxcwd:winctrl2.obj
 0002:001524e0       ??4ImageList_Write_Type@CComCtlWrapper@@QAEXP6GHPAU_IMAGELIST@@PAUIStream@@@Z@Z 006b44e0 f i uafxcwd:winctrl2.obj
 0002:00152500       ??7ImageList_Write_Type@CComCtlWrapper@@QBE_NXZ 006b4500 f i uafxcwd:winctrl2.obj
 0002:00152520       ?AfxImageList_Merge@@YGPAU_IMAGELIST@@PAU1@H0HHH@Z 006b4520 f i uafxcwd:winctrl2.obj
 0002:00152560       ?_ImageList_Merge@CComCtlWrapper@@QAEPAU_IMAGELIST@@PAU2@H0HHH@Z 006b4560 f i uafxcwd:winctrl2.obj
 0002:00152710       ??BImageList_Merge_Type@CComCtlWrapper@@QAEP6GPAU_IMAGELIST@@PAU2@H0HHH@ZXZ 006b4710 f i uafxcwd:winctrl2.obj
 0002:00152730       ?GetProcAddress_ImageList_Merge@CComCtlWrapper@@QAE?AUImageList_Merge_Type@1@XZ 006b4730 f i uafxcwd:winctrl2.obj
 0002:001527a0       ??4ImageList_Merge_Type@CComCtlWrapper@@QAEXP6GPAU_IMAGELIST@@PAU2@H0HHH@Z@Z 006b47a0 f i uafxcwd:winctrl2.obj
 0002:001527c0       ??7ImageList_Merge_Type@CComCtlWrapper@@QBE_NXZ 006b47c0 f i uafxcwd:winctrl2.obj
 0002:001527e0       ?AfxMakeDragList@@YGHPAUHWND__@@@Z 006b47e0 f i uafxcwd:winctrl2.obj
 0002:00152810       ?_MakeDragList@CComCtlWrapper@@QAEHPAUHWND__@@@Z 006b4810 f i uafxcwd:winctrl2.obj
 0002:001529a0       ??BMakeDragList_Type@CComCtlWrapper@@QAEP6GHPAUHWND__@@@ZXZ 006b49a0 f i uafxcwd:winctrl2.obj
 0002:001529c0       ?GetProcAddress_MakeDragList@CComCtlWrapper@@QAE?AUMakeDragList_Type@1@XZ 006b49c0 f i uafxcwd:winctrl2.obj
 0002:00152a30       ??4MakeDragList_Type@CComCtlWrapper@@QAEXP6GHPAUHWND__@@@Z@Z 006b4a30 f i uafxcwd:winctrl2.obj
 0002:00152a50       ??7MakeDragList_Type@CComCtlWrapper@@QBE_NXZ 006b4a50 f i uafxcwd:winctrl2.obj
 0002:00152a70       ?AfxLBItemFromPt@@YGHPAUHWND__@@UtagPOINT@@H@Z 006b4a70 f i uafxcwd:winctrl2.obj
 0002:00152ab0       ?_LBItemFromPt@CComCtlWrapper@@QAEHPAUHWND__@@UtagPOINT@@H@Z 006b4ab0 f i uafxcwd:winctrl2.obj
 0002:00152c50       ??BLBItemFromPt_Type@CComCtlWrapper@@QAEP6GHPAUHWND__@@UtagPOINT@@H@ZXZ 006b4c50 f i uafxcwd:winctrl2.obj
 0002:00152c70       ?GetProcAddress_LBItemFromPt@CComCtlWrapper@@QAE?AULBItemFromPt_Type@1@XZ 006b4c70 f i uafxcwd:winctrl2.obj
 0002:00152ce0       ??4LBItemFromPt_Type@CComCtlWrapper@@QAEXP6GHPAUHWND__@@UtagPOINT@@H@Z@Z 006b4ce0 f i uafxcwd:winctrl2.obj
 0002:00152d00       ??7LBItemFromPt_Type@CComCtlWrapper@@QBE_NXZ 006b4d00 f i uafxcwd:winctrl2.obj
 0002:00152d20       ??6@YGAAVCDumpContext@@AAV0@UtagSIZE@@@Z 006b4d20 f   uafxcwd:wingdi.obj
 0002:00152d80       ??6@YGAAVCDumpContext@@AAV0@UtagPOINT@@@Z 006b4d80 f   uafxcwd:wingdi.obj
 0002:00152de0       ??6@YGAAVCDumpContext@@AAV0@ABUtagRECT@@@Z 006b4de0 f   uafxcwd:wingdi.obj
 0002:00152e80       ??0CDC@@QAE@XZ             006b4e80 f   uafxcwd:wingdi.obj
 0002:00152ed0       ??_GCDC@@UAEPAXI@Z         006b4ed0 f i uafxcwd:wingdi.obj
 0002:00152ed0       ??_ECDC@@UAEPAXI@Z         006b4ed0 f i uafxcwd:wingdi.obj
 0002:00152f10       ?AssertValid@CDC@@UBEXXZ   006b4f10 f   uafxcwd:wingdi.obj
 0002:00152f30       ?Dump@CDC@@UBEXAAVCDumpContext@@@Z 006b4f30 f   uafxcwd:wingdi.obj
 0002:00152fd0       ?afxMapHDC@@YGPAVCHandleMap@@H@Z 006b4fd0 f   uafxcwd:wingdi.obj
 0002:001530f0       ?FromHandle@CDC@@SGPAV1@PAUHDC__@@@Z 006b50f0 f   uafxcwd:wingdi.obj
 0002:00153170       ?Attach@CDC@@QAEHPAUHDC__@@@Z 006b5170 f   uafxcwd:wingdi.obj
 0002:00153240       ?Detach@CDC@@QAEPAUHDC__@@XZ 006b5240 f   uafxcwd:wingdi.obj
 0002:001532b0       ?DeleteDC@CDC@@QAEHXZ      006b52b0 f   uafxcwd:wingdi.obj
 0002:001532f0       ??1CDC@@UAE@XZ             006b52f0 f   uafxcwd:wingdi.obj
 0002:00153380       ?SetAttribDC@CDC@@UAEXPAUHDC__@@@Z 006b5380 f   uafxcwd:wingdi.obj
 0002:001533a0       ?SetOutputDC@CDC@@UAEXPAUHDC__@@@Z 006b53a0 f   uafxcwd:wingdi.obj
 0002:00153450       ?ReleaseAttribDC@CDC@@UAEXXZ 006b5450 f   uafxcwd:wingdi.obj
 0002:00153470       ?ReleaseOutputDC@CDC@@UAEXXZ 006b5470 f   uafxcwd:wingdi.obj
 0002:00153520       ?StartDocW@CDC@@QAEHPB_W@Z 006b5520 f   uafxcwd:wingdi.obj
 0002:00153570       ?SaveDC@CDC@@UAEHXZ        006b5570 f   uafxcwd:wingdi.obj
 0002:00153610       ?RestoreDC@CDC@@UAEHH@Z    006b5610 f   uafxcwd:wingdi.obj
 0002:00153700       ?SelectGdiObject@CDC@@KGPAVCGdiObject@@PAUHDC__@@PAX@Z 006b5700 f   uafxcwd:wingdi.obj
 0002:00153730       ?SelectStockObject@CDC@@UAEPAVCGdiObject@@H@Z 006b5730 f   uafxcwd:wingdi.obj
 0002:00153800       ?SelectObject@CDC@@QAEPAVCPen@@PAV2@@Z 006b5800 f   uafxcwd:wingdi.obj
 0002:001538b0       ?SelectObject@CDC@@QAEPAVCBrush@@PAV2@@Z 006b58b0 f   uafxcwd:wingdi.obj
 0002:00153960       ?SelectObject@CDC@@UAEPAVCFont@@PAV2@@Z 006b5960 f   uafxcwd:wingdi.obj
 0002:00153a10       ?SelectObject@CDC@@QAEHPAVCRgn@@@Z 006b5a10 f   uafxcwd:wingdi.obj
 0002:00153ac0       ?SelectPalette@CDC@@QAEPAVCPalette@@PAV2@H@Z 006b5ac0 f   uafxcwd:wingdi.obj
 0002:00153b20       ?SetBkColor@CDC@@UAEKK@Z   006b5b20 f   uafxcwd:wingdi.obj
 0002:00153bc0       ?SetBkMode@CDC@@QAEHH@Z    006b5bc0 f   uafxcwd:wingdi.obj
 0002:00153c60       ?SetPolyFillMode@CDC@@QAEHH@Z 006b5c60 f   uafxcwd:wingdi.obj
 0002:00153d00       ?SetROP2@CDC@@QAEHH@Z      006b5d00 f   uafxcwd:wingdi.obj
 0002:00153da0       ?SetStretchBltMode@CDC@@QAEHH@Z 006b5da0 f   uafxcwd:wingdi.obj
 0002:00153e40       ?SetTextColor@CDC@@UAEKK@Z 006b5e40 f   uafxcwd:wingdi.obj
 0002:00153ee0       ?SetGraphicsMode@CDC@@QAEHH@Z 006b5ee0 f   uafxcwd:wingdi.obj
 0002:00153f80       ?SetWorldTransform@CDC@@QAEHPBUtagXFORM@@@Z 006b5f80 f   uafxcwd:wingdi.obj
 0002:00154020       ?ModifyWorldTransform@CDC@@QAEHPBUtagXFORM@@K@Z 006b6020 f   uafxcwd:wingdi.obj
 0002:001540c0       ?SetMapMode@CDC@@UAEHH@Z   006b60c0 f   uafxcwd:wingdi.obj
 0002:00154160       ?SetViewportOrg@CDC@@UAE?AVCPoint@@HH@Z 006b6160 f   uafxcwd:wingdi.obj
 0002:00154250       ?OffsetViewportOrg@CDC@@UAE?AVCPoint@@HH@Z 006b6250 f   uafxcwd:wingdi.obj
 0002:00154340       ?SetViewportExt@CDC@@UAE?AVCSize@@HH@Z 006b6340 f   uafxcwd:wingdi.obj
 0002:00154430       ?ScaleViewportExt@CDC@@UAE?AVCSize@@HHHH@Z 006b6430 f   uafxcwd:wingdi.obj
 0002:00154540       ?SetWindowOrg@CDC@@QAE?AVCPoint@@HH@Z 006b6540 f   uafxcwd:wingdi.obj
 0002:00154630       ?OffsetWindowOrg@CDC@@QAE?AVCPoint@@HH@Z 006b6630 f   uafxcwd:wingdi.obj
 0002:00154720       ?SetWindowExt@CDC@@UAE?AVCSize@@HH@Z 006b6720 f   uafxcwd:wingdi.obj
 0002:00154810       ?ScaleWindowExt@CDC@@UAE?AVCSize@@HHHH@Z 006b6810 f   uafxcwd:wingdi.obj
 0002:00154920       ?GetClipBox@CDC@@UBEHPAUtagRECT@@@Z 006b6920 f   uafxcwd:wingdi.obj
 0002:00154970       ?SelectClipRgn@CDC@@QAEHPAVCRgn@@@Z 006b6970 f   uafxcwd:wingdi.obj
 0002:00154a20       ?ExcludeClipRect@CDC@@QAEHHHHH@Z 006b6a20 f   uafxcwd:wingdi.obj
 0002:00154ae0       ?ExcludeClipRect@CDC@@QAEHPBUtagRECT@@@Z 006b6ae0 f   uafxcwd:wingdi.obj
 0002:00154bb0       ?IntersectClipRect@CDC@@QAEHHHHH@Z 006b6bb0 f   uafxcwd:wingdi.obj
 0002:00154c70       ?IntersectClipRect@CDC@@QAEHPBUtagRECT@@@Z 006b6c70 f   uafxcwd:wingdi.obj
 0002:00154d40       ?OffsetClipRgn@CDC@@QAEHHH@Z 006b6d40 f   uafxcwd:wingdi.obj
 0002:00154de0       ?OffsetClipRgn@CDC@@QAEHUtagSIZE@@@Z 006b6de0 f   uafxcwd:wingdi.obj
 0002:00154e80       ?MoveTo@CDC@@QAE?AVCPoint@@HH@Z 006b6e80 f   uafxcwd:wingdi.obj
 0002:00154f70       ?LineTo@CDC@@QAEHHH@Z      006b6f70 f   uafxcwd:wingdi.obj
 0002:00155000       ?SetTextAlign@CDC@@QAEII@Z 006b7000 f   uafxcwd:wingdi.obj
 0002:001550a0       ?SetTextJustification@CDC@@QAEHHH@Z 006b70a0 f   uafxcwd:wingdi.obj
 0002:00155140       ?SetTextCharacterExtra@CDC@@QAEHH@Z 006b7140 f   uafxcwd:wingdi.obj
 0002:001551e0       ?SetMapperFlags@CDC@@QAEKK@Z 006b71e0 f   uafxcwd:wingdi.obj
 0002:00155280       ?GetLayout@CDC@@QBEKXZ     006b7280 f   uafxcwd:wingdi.obj
 0002:00155340       ?SetLayout@CDC@@QAEKK@Z    006b7340 f   uafxcwd:wingdi.obj
 0002:00155410       ?ScreenToClient@CWnd@@QBEXPAUtagRECT@@@Z 006b7410 f   uafxcwd:wingdi.obj
 0002:001554a0       ?ClientToScreen@CWnd@@QBEXPAUtagRECT@@@Z 006b74a0 f   uafxcwd:wingdi.obj
 0002:00155530       ?ArcTo@CDC@@QAEHHHHHHHHH@Z 006b7530 f   uafxcwd:wingdi.obj
 0002:00155640       ?SetArcDirection@CDC@@QAEHH@Z 006b7640 f   uafxcwd:wingdi.obj
 0002:001556e0       ?PolyDraw@CDC@@QAEHPBUtagPOINT@@PBEH@Z 006b76e0 f   uafxcwd:wingdi.obj
 0002:001557d0       ?PolylineTo@CDC@@QAEHPBUtagPOINT@@H@Z 006b77d0 f   uafxcwd:wingdi.obj
 0002:001558c0       ?SetColorAdjustment@CDC@@QAEHPBUtagCOLORADJUSTMENT@@@Z 006b78c0 f   uafxcwd:wingdi.obj
 0002:00155960       ?PolyBezierTo@CDC@@QAEHPBUtagPOINT@@H@Z 006b7960 f   uafxcwd:wingdi.obj
 0002:00155a50       ?SelectClipPath@CDC@@QAEHH@Z 006b7a50 f   uafxcwd:wingdi.obj
 0002:00155b70       ?SelectClipRgn@CDC@@QAEHPAVCRgn@@H@Z 006b7b70 f   uafxcwd:wingdi.obj
 0002:00155c20       ?AfxEnumMetaFileProc@@YGHPAUHDC__@@PAUtagHANDLETABLE@@PAUtagMETARECORD@@HJ@Z 006b7c20 f   uafxcwd:wingdi.obj
 0002:00156070       ?PlayMetaFile@CDC@@QAEHPAUHMETAFILE__@@@Z 006b8070 f   uafxcwd:wingdi.obj
 0002:001560e0       ?LPtoDP@CDC@@QBEXPAUtagSIZE@@@Z 006b80e0 f   uafxcwd:wingdi.obj
 0002:001561b0       ?DPtoLP@CDC@@QBEXPAUtagSIZE@@@Z 006b81b0 f   uafxcwd:wingdi.obj
 0002:00156280       ?AssertValid@CClientDC@@UBEXXZ 006b8280 f   uafxcwd:wingdi.obj
 0002:001562e0       ?Dump@CClientDC@@UBEXAAVCDumpContext@@@Z 006b82e0 f   uafxcwd:wingdi.obj
 0002:00156340       ??0CClientDC@@QAE@PAVCWnd@@@Z 006b8340 f   uafxcwd:wingdi.obj
 0002:00156420       ??_GCClientDC@@UAEPAXI@Z   006b8420 f i uafxcwd:wingdi.obj
 0002:00156420       ??_ECClientDC@@UAEPAXI@Z   006b8420 f i uafxcwd:wingdi.obj
 0002:00156460       ??1CClientDC@@UAE@XZ       006b8460 f   uafxcwd:wingdi.obj
 0002:00156510       ?AssertValid@CWindowDC@@UBEXXZ 006b8510 f   uafxcwd:wingdi.obj
 0002:00156570       ?Dump@CWindowDC@@UBEXAAVCDumpContext@@@Z 006b8570 f   uafxcwd:wingdi.obj
 0002:001565d0       ??0CWindowDC@@QAE@PAVCWnd@@@Z 006b85d0 f   uafxcwd:wingdi.obj
 0002:001566b0       ??_ECWindowDC@@UAEPAXI@Z   006b86b0 f i uafxcwd:wingdi.obj
 0002:001566b0       ??_GCWindowDC@@UAEPAXI@Z   006b86b0 f i uafxcwd:wingdi.obj
 0002:001566f0       ??1CWindowDC@@UAE@XZ       006b86f0 f   uafxcwd:wingdi.obj
 0002:001567a0       ?AssertValid@CPaintDC@@UBEXXZ 006b87a0 f   uafxcwd:wingdi.obj
 0002:001567f0       ?Dump@CPaintDC@@UBEXAAVCDumpContext@@@Z 006b87f0 f   uafxcwd:wingdi.obj
 0002:001568c0       ??0CPaintDC@@QAE@PAVCWnd@@@Z 006b88c0 f   uafxcwd:wingdi.obj
 0002:001569c0       ??_ECPaintDC@@UAEPAXI@Z    006b89c0 f i uafxcwd:wingdi.obj
 0002:001569c0       ??_GCPaintDC@@UAEPAXI@Z    006b89c0 f i uafxcwd:wingdi.obj
 0002:00156a00       ??1CPaintDC@@UAE@XZ        006b8a00 f   uafxcwd:wingdi.obj
 0002:00156af0       ?Dump@CGdiObject@@UBEXAAVCDumpContext@@@Z 006b8af0 f   uafxcwd:wingdi.obj
 0002:00156b50       ?AssertValid@CGdiObject@@UBEXXZ 006b8b50 f   uafxcwd:wingdi.obj
 0002:00156bb0       ?afxMapHGDIOBJ@@YGPAVCHandleMap@@H@Z 006b8bb0 f   uafxcwd:wingdi.obj
 0002:00156cd0       ?FromHandle@CGdiObject@@SGPAV1@PAX@Z 006b8cd0 f   uafxcwd:wingdi.obj
 0002:00156d60       ?Attach@CGdiObject@@QAEHPAX@Z 006b8d60 f   uafxcwd:wingdi.obj
 0002:00156e00       ?Detach@CGdiObject@@QAEPAXXZ 006b8e00 f   uafxcwd:wingdi.obj
 0002:00156e60       ?DeleteObject@CGdiObject@@QAEHXZ 006b8e60 f   uafxcwd:wingdi.obj
 0002:00156ea0       ??0CPen@@QAE@HHK@Z         006b8ea0 f   uafxcwd:wingdi.obj
 0002:00156f40       ??_ECPen@@UAEPAXI@Z        006b8f40 f i uafxcwd:wingdi.obj
 0002:00156f40       ??_GCPen@@UAEPAXI@Z        006b8f40 f i uafxcwd:wingdi.obj
 0002:00156f80       ??0CPen@@QAE@HHPBUtagLOGBRUSH@@HPBK@Z 006b8f80 f   uafxcwd:wingdi.obj
 0002:00157030       ?Dump@CPen@@UBEXAAVCDumpContext@@@Z 006b9030 f   uafxcwd:wingdi.obj
 0002:00157130       ??0CBrush@@QAE@K@Z         006b9130 f   uafxcwd:wingdi.obj
 0002:001571d0       ??_GCBrush@@UAEPAXI@Z      006b91d0 f i uafxcwd:wingdi.obj
 0002:001571d0       ??_ECBrush@@UAEPAXI@Z      006b91d0 f i uafxcwd:wingdi.obj
 0002:00157210       ??0CBrush@@QAE@HK@Z        006b9210 f   uafxcwd:wingdi.obj
 0002:001572b0       ??0CBrush@@QAE@PAVCBitmap@@@Z 006b92b0 f   uafxcwd:wingdi.obj
 0002:00157360       ?CreateDIBPatternBrush@CBrush@@QAEHPAXI@Z 006b9360 f   uafxcwd:wingdi.obj
 0002:00157400       ?Dump@CBrush@@UBEXAAVCDumpContext@@@Z 006b9400 f   uafxcwd:wingdi.obj
 0002:00157500       ?Dump@CFont@@UBEXAAVCDumpContext@@@Z 006b9500 f   uafxcwd:wingdi.obj
 0002:00157770       ?Dump@CBitmap@@UBEXAAVCDumpContext@@@Z 006b9770 f   uafxcwd:wingdi.obj
 0002:001578d0       ?GetRuntimeClass@CResourceException@@UBEPAUCRuntimeClass@@XZ 006b98d0 f   uafxcwd:wingdi.obj
 0002:001578f0       ?GetRuntimeClass@CUserException@@UBEPAUCRuntimeClass@@XZ 006b98f0 f   uafxcwd:wingdi.obj
 0002:00157910       ?CreateObject@CDC@@SGPAVCObject@@XZ 006b9910 f   uafxcwd:wingdi.obj
 0002:001579a0       ?GetRuntimeClass@CDC@@UBEPAUCRuntimeClass@@XZ 006b99a0 f   uafxcwd:wingdi.obj
 0002:001579c0       ?GetRuntimeClass@CClientDC@@UBEPAUCRuntimeClass@@XZ 006b99c0 f   uafxcwd:wingdi.obj
 0002:001579e0       ?GetRuntimeClass@CWindowDC@@UBEPAUCRuntimeClass@@XZ 006b99e0 f   uafxcwd:wingdi.obj
 0002:00157a00       ?GetRuntimeClass@CPaintDC@@UBEPAUCRuntimeClass@@XZ 006b9a00 f   uafxcwd:wingdi.obj
 0002:00157a20       ?CreateObject@CGdiObject@@SGPAVCObject@@XZ 006b9a20 f   uafxcwd:wingdi.obj
 0002:00157ab0       ?GetRuntimeClass@CGdiObject@@UBEPAUCRuntimeClass@@XZ 006b9ab0 f   uafxcwd:wingdi.obj
 0002:00157ad0       ?GetRuntimeClass@CPen@@UBEPAUCRuntimeClass@@XZ 006b9ad0 f   uafxcwd:wingdi.obj
 0002:00157af0       ?GetRuntimeClass@CBrush@@UBEPAUCRuntimeClass@@XZ 006b9af0 f   uafxcwd:wingdi.obj
 0002:00157b10       ?GetRuntimeClass@CFont@@UBEPAUCRuntimeClass@@XZ 006b9b10 f   uafxcwd:wingdi.obj
 0002:00157b30       ?GetRuntimeClass@CBitmap@@UBEPAUCRuntimeClass@@XZ 006b9b30 f   uafxcwd:wingdi.obj
 0002:00157b50       ?GetRuntimeClass@CPalette@@UBEPAUCRuntimeClass@@XZ 006b9b50 f   uafxcwd:wingdi.obj
 0002:00157b70       ?GetRuntimeClass@CRgn@@UBEPAUCRuntimeClass@@XZ 006b9b70 f   uafxcwd:wingdi.obj
 0002:00157b90       ?AfxThrowResourceException@@YGXXZ 006b9b90 f   uafxcwd:wingdi.obj
 0002:00157bc0       ?AfxThrowUserException@@YGXXZ 006b9bc0 f   uafxcwd:wingdi.obj
 0002:00157bf0       ?AfxGetGrayBitmap@@YGXABVCBitmap@@PAV1@K@Z 006b9bf0 f   uafxcwd:wingdi.obj
 0002:00158010       ?AfxDrawGrayBitmap@@YGXPAVCDC@@HHABVCBitmap@@K@Z 006ba010 f   uafxcwd:wingdi.obj
 0002:00158400       ?AfxGetDitheredBitmap@@YGXABVCBitmap@@PAV1@KK@Z 006ba400 f   uafxcwd:wingdi.obj
 0002:001588c0       ?AfxDrawDitheredBitmap@@YGXPAVCDC@@HHABVCBitmap@@KK@Z 006ba8c0 f   uafxcwd:wingdi.obj
 0002:00158cf0       ?Construct@?$ConstructDestruct@VCDC@@@@SGXPAVCObject@@@Z 006bacf0 f i uafxcwd:wingdi.obj
 0002:00158d90       ?Destruct@?$ConstructDestruct@VCDC@@@@SGXPAVCObject@@@Z 006bad90 f i uafxcwd:wingdi.obj
 0002:00158dc0       ?Construct@?$ConstructDestruct@VCGdiObject@@@@SGXPAVCObject@@@Z 006badc0 f i uafxcwd:wingdi.obj
 0002:00158e60       ?Destruct@?$ConstructDestruct@VCGdiObject@@@@SGXPAVCObject@@@Z 006bae60 f i uafxcwd:wingdi.obj
 0002:00158e90       ?AfxGetApp@@YGPAVCWinApp@@XZ 006bae90 f   uafxcwd:afxinl2.obj
 0002:00158eb0       ?AfxGetInstanceHandle@@YGPAUHINSTANCE__@@XZ 006baeb0 f   uafxcwd:afxinl2.obj
 0002:00158ef0       ?AfxGetResourceHandle@@YGPAUHINSTANCE__@@XZ 006baef0 f   uafxcwd:afxinl2.obj
 0002:00158f30       ?AfxSetResourceHandle@@YGXPAUHINSTANCE__@@@Z 006baf30 f   uafxcwd:afxinl2.obj
 0002:00158f70       ?AfxGetAppName@@YGPB_WXZ   006baf70 f   uafxcwd:afxinl2.obj
 0002:00158fb0       ?AfxOleGetMessageFilter@@YGPAVCOleMessageFilter@@XZ 006bafb0 f   uafxcwd:afxinl2.obj
 0002:00158fe0       ?AfxGetMainWnd@@YGPAVCWnd@@XZ 006bafe0 f   uafxcwd:afxinl2.obj
 0002:00159030       ?AfxGetAmbientActCtx@@YGHXZ 006bb030 f   uafxcwd:afxinl2.obj
 0002:00159050       ?AfxSetAmbientActCtx@@YGXH@Z 006bb050 f   uafxcwd:afxinl2.obj
 0002:00159070       ??1AFX_MAINTAIN_STATE2@@QAE@XZ 006bb070 f   uafxcwd:afxinl2.obj
 0002:001590c0       ??6@YGAAVCArchive@@AAV0@UtagSIZE@@@Z 006bb0c0 f   uafxcwd:afxinl2.obj
 0002:001590e0       ??6@YGAAVCArchive@@AAV0@UtagPOINT@@@Z 006bb0e0 f   uafxcwd:afxinl2.obj
 0002:00159100       ??6@YGAAVCArchive@@AAV0@ABUtagRECT@@@Z 006bb100 f   uafxcwd:afxinl2.obj
 0002:00159120       ??5@YGAAVCArchive@@AAV0@AAUtagSIZE@@@Z 006bb120 f   uafxcwd:afxinl2.obj
 0002:00159140       ??5@YGAAVCArchive@@AAV0@AAUtagPOINT@@@Z 006bb140 f   uafxcwd:afxinl2.obj
 0002:00159160       ??5@YGAAVCArchive@@AAV0@AAUtagRECT@@@Z 006bb160 f   uafxcwd:afxinl2.obj
 0002:00159180       ??0CResourceException@@QAE@XZ 006bb180 f   uafxcwd:afxinl2.obj
 0002:001591b0       ??_ECResourceException@@UAEPAXI@Z 006bb1b0 f i uafxcwd:afxinl2.obj
 0002:001591b0       ??_GCResourceException@@UAEPAXI@Z 006bb1b0 f i uafxcwd:afxinl2.obj
 0002:001591f0       ??0CResourceException@@QAE@HI@Z 006bb1f0 f   uafxcwd:afxinl2.obj
 0002:00159230       ??1CResourceException@@UAE@XZ 006bb230 f   uafxcwd:afxinl2.obj
 0002:00159260       ??0CUserException@@QAE@XZ  006bb260 f   uafxcwd:afxinl2.obj
 0002:00159290       ??_GCUserException@@UAEPAXI@Z 006bb290 f i uafxcwd:afxinl2.obj
 0002:00159290       ??_ECUserException@@UAEPAXI@Z 006bb290 f i uafxcwd:afxinl2.obj
 0002:001592d0       ??0CUserException@@QAE@HI@Z 006bb2d0 f   uafxcwd:afxinl2.obj
 0002:00159310       ??1CUserException@@UAE@XZ  006bb310 f   uafxcwd:afxinl2.obj
 0002:00159340       ??BCGdiObject@@QBEPAXXZ    006bb340 f   uafxcwd:afxinl2.obj
 0002:00159380       ?GetSafeHandle@CGdiObject@@QBEPAXXZ 006bb380 f   uafxcwd:afxinl2.obj
 0002:001593c0       ??0CGdiObject@@QAE@XZ      006bb3c0 f   uafxcwd:afxinl2.obj
 0002:00159400       ??_ECGdiObject@@UAEPAXI@Z  006bb400 f i uafxcwd:afxinl2.obj
 0002:00159400       ??_GCGdiObject@@UAEPAXI@Z  006bb400 f i uafxcwd:afxinl2.obj
 0002:00159440       ??1CGdiObject@@UAE@XZ      006bb440 f   uafxcwd:afxinl2.obj
 0002:00159650       ?GetObjectW@CGdiObject@@QBEHHPAX@Z 006bb650 f   uafxcwd:afxinl2.obj
 0002:001596a0       ?GetObject@CGdiObject@@QBEHHPAX@Z 006bb6a0 f   uafxcwd:afxinl2.obj
 0002:001596d0       ?CreateStockObject@CGdiObject@@QAEHH@Z 006bb6d0 f   uafxcwd:afxinl2.obj
 0002:00159710       ?UnrealizeObject@CGdiObject@@QAEHXZ 006bb710 f   uafxcwd:afxinl2.obj
 0002:00159760       ?GetObjectType@CGdiObject@@QBEIXZ 006bb760 f   uafxcwd:afxinl2.obj
 0002:00159780       ??8CGdiObject@@QBEHABV0@@Z 006bb780 f   uafxcwd:afxinl2.obj
 0002:001597b0       ??9CGdiObject@@QBEHABV0@@Z 006bb7b0 f   uafxcwd:afxinl2.obj
 0002:001597e0       ??BCPen@@QBEPAUHPEN__@@XZ  006bb7e0 f   uafxcwd:afxinl2.obj
 0002:00159820       ?FromHandle@CPen@@SGPAV1@PAUHPEN__@@@Z 006bb820 f   uafxcwd:afxinl2.obj
 0002:00159840       ??0CPen@@QAE@XZ            006bb840 f   uafxcwd:afxinl2.obj
 0002:00159870       ??1CPen@@UAE@XZ            006bb870 f   uafxcwd:afxinl2.obj
 0002:001598a0       ?CreatePen@CPen@@QAEHHHK@Z 006bb8a0 f   uafxcwd:afxinl2.obj
 0002:001598e0       ?CreatePenIndirect@CPen@@QAEHPAUtagLOGPEN@@@Z 006bb8e0 f   uafxcwd:afxinl2.obj
 0002:00159910       ?CreatePen@CPen@@QAEHHHPBUtagLOGBRUSH@@HPBK@Z 006bb910 f   uafxcwd:afxinl2.obj
 0002:00159950       ?GetExtLogPen@CPen@@QAEHPAUtagEXTLOGPEN@@@Z 006bb950 f   uafxcwd:afxinl2.obj
 0002:001599a0       ?GetLogPen@CPen@@QAEHPAUtagLOGPEN@@@Z 006bb9a0 f   uafxcwd:afxinl2.obj
 0002:001599f0       ??BCBrush@@QBEPAUHBRUSH__@@XZ 006bb9f0 f   uafxcwd:afxinl2.obj
 0002:00159a30       ?FromHandle@CBrush@@SGPAV1@PAUHBRUSH__@@@Z 006bba30 f   uafxcwd:afxinl2.obj
 0002:00159a50       ??0CBrush@@QAE@XZ          006bba50 f   uafxcwd:afxinl2.obj
 0002:00159a80       ??1CBrush@@UAE@XZ          006bba80 f   uafxcwd:afxinl2.obj
 0002:00159ab0       ?CreateSolidBrush@CBrush@@QAEHK@Z 006bbab0 f   uafxcwd:afxinl2.obj
 0002:00159ae0       ?CreateHatchBrush@CBrush@@QAEHHK@Z 006bbae0 f   uafxcwd:afxinl2.obj
 0002:00159b10       ?CreateBrushIndirect@CBrush@@QAEHPBUtagLOGBRUSH@@@Z 006bbb10 f   uafxcwd:afxinl2.obj
 0002:00159b40       ?CreatePatternBrush@CBrush@@QAEHPAVCBitmap@@@Z 006bbb40 f   uafxcwd:afxinl2.obj
 0002:00159b70       ?CreateDIBPatternBrush@CBrush@@QAEHPBXI@Z 006bbb70 f   uafxcwd:afxinl2.obj
 0002:00159ba0       ?CreateSysColorBrush@CBrush@@QAEHH@Z 006bbba0 f   uafxcwd:afxinl2.obj
 0002:00159bd0       ?GetLogBrush@CBrush@@QAEHPAUtagLOGBRUSH@@@Z 006bbbd0 f   uafxcwd:afxinl2.obj
 0002:00159c20       ??BCFont@@QBEPAUHFONT__@@XZ 006bbc20 f   uafxcwd:afxinl2.obj
 0002:00159c60       ?FromHandle@CFont@@SGPAV1@PAUHFONT__@@@Z 006bbc60 f   uafxcwd:afxinl2.obj
 0002:00159c80       ??0CFont@@QAE@XZ           006bbc80 f   uafxcwd:afxinl2.obj
 0002:00159cb0       ??_GCFont@@UAEPAXI@Z       006bbcb0 f i uafxcwd:afxinl2.obj
 0002:00159cb0       ??_ECFont@@UAEPAXI@Z       006bbcb0 f i uafxcwd:afxinl2.obj
 0002:00159cf0       ??1CFont@@UAE@XZ           006bbcf0 f   uafxcwd:afxinl2.obj
 0002:00159d20       ?CreateFontIndirectW@CFont@@QAEHPBUtagLOGFONTW@@@Z 006bbd20 f   uafxcwd:afxinl2.obj
 0002:00159d50       ?CreateFontW@CFont@@QAEHHHHHHEEEEEEEEPB_W@Z 006bbd50 f   uafxcwd:afxinl2.obj
 0002:00159dd0       ?GetLogFont@CFont@@QAEHPAUtagLOGFONTW@@@Z 006bbdd0 f   uafxcwd:afxinl2.obj
 0002:00159e20       ??BCBitmap@@QBEPAUHBITMAP__@@XZ 006bbe20 f   uafxcwd:afxinl2.obj
 0002:00159e60       ?FromHandle@CBitmap@@SGPAV1@PAUHBITMAP__@@@Z 006bbe60 f   uafxcwd:afxinl2.obj
 0002:00159e80       ??0CBitmap@@QAE@XZ         006bbe80 f   uafxcwd:afxinl2.obj
 0002:00159eb0       ??_ECBitmap@@UAEPAXI@Z     006bbeb0 f i uafxcwd:afxinl2.obj
 0002:00159eb0       ??_GCBitmap@@UAEPAXI@Z     006bbeb0 f i uafxcwd:afxinl2.obj
 0002:00159ef0       ??1CBitmap@@UAE@XZ         006bbef0 f   uafxcwd:afxinl2.obj
 0002:00159f20       ?CreateBitmap@CBitmap@@QAEHHHIIPBX@Z 006bbf20 f   uafxcwd:afxinl2.obj
 0002:00159f60       ?CreateBitmapIndirect@CBitmap@@QAEHPAUtagBITMAP@@@Z 006bbf60 f   uafxcwd:afxinl2.obj
 0002:00159f90       ?SetBitmapBits@CBitmap@@QAEKKPBX@Z 006bbf90 f   uafxcwd:afxinl2.obj
 0002:00159fc0       ?GetBitmapBits@CBitmap@@QBEKKPAX@Z 006bbfc0 f   uafxcwd:afxinl2.obj
 0002:00159ff0       ?LoadBitmapW@CBitmap@@QAEHPB_W@Z 006bbff0 f   uafxcwd:afxinl2.obj
 0002:0015a030       ?LoadMappedBitmap@CBitmap@@QAEHIIPAU_COLORMAP@@H@Z 006bc030 f   uafxcwd:afxinl2.obj
 0002:0015a080       ?SetBitmapDimension@CBitmap@@QAE?AVCSize@@HH@Z 006bc080 f   uafxcwd:afxinl2.obj
 0002:0015a0f0       ?GetBitmapDimension@CBitmap@@QBE?AVCSize@@XZ 006bc0f0 f   uafxcwd:afxinl2.obj
 0002:0015a150       ?LoadBitmapW@CBitmap@@QAEHI@Z 006bc150 f   uafxcwd:afxinl2.obj
 0002:0015a190       ?LoadOEMBitmap@CBitmap@@QAEHI@Z 006bc190 f   uafxcwd:afxinl2.obj
 0002:0015a1c0       ?CreateCompatibleBitmap@CBitmap@@QAEHPAVCDC@@HH@Z 006bc1c0 f   uafxcwd:afxinl2.obj
 0002:0015a200       ?CreateDiscardableBitmap@CBitmap@@QAEHPAVCDC@@HH@Z 006bc200 f   uafxcwd:afxinl2.obj
 0002:0015a240       ?GetBitmap@CBitmap@@QAEHPAUtagBITMAP@@@Z 006bc240 f   uafxcwd:afxinl2.obj
 0002:0015a290       ??BCPalette@@QBEPAUHPALETTE__@@XZ 006bc290 f   uafxcwd:afxinl2.obj
 0002:0015a2d0       ?FromHandle@CPalette@@SGPAV1@PAUHPALETTE__@@@Z 006bc2d0 f   uafxcwd:afxinl2.obj
 0002:0015a2f0       ??0CPalette@@QAE@XZ        006bc2f0 f   uafxcwd:afxinl2.obj
 0002:0015a320       ??_GCPalette@@UAEPAXI@Z    006bc320 f i uafxcwd:afxinl2.obj
 0002:0015a320       ??_ECPalette@@UAEPAXI@Z    006bc320 f i uafxcwd:afxinl2.obj
 0002:0015a360       ??1CPalette@@UAE@XZ        006bc360 f   uafxcwd:afxinl2.obj
 0002:0015a390       ?CreatePalette@CPalette@@QAEHPAUtagLOGPALETTE@@@Z 006bc390 f   uafxcwd:afxinl2.obj
 0002:0015a3c0       ?CreateHalftonePalette@CPalette@@QAEHPAVCDC@@@Z 006bc3c0 f   uafxcwd:afxinl2.obj
 0002:0015a420       ?GetPaletteEntries@CPalette@@QBEIIIPAUtagPALETTEENTRY@@@Z 006bc420 f   uafxcwd:afxinl2.obj
 0002:0015a480       ?SetPaletteEntries@CPalette@@QAEIIIPAUtagPALETTEENTRY@@@Z 006bc480 f   uafxcwd:afxinl2.obj
 0002:0015a4e0       ?AnimatePalette@CPalette@@QAEXIIPAUtagPALETTEENTRY@@@Z 006bc4e0 f   uafxcwd:afxinl2.obj
 0002:0015a540       ?GetNearestPaletteIndex@CPalette@@QBEIK@Z 006bc540 f   uafxcwd:afxinl2.obj
 0002:0015a590       ?ResizePalette@CPalette@@QAEHI@Z 006bc590 f   uafxcwd:afxinl2.obj
 0002:0015a5e0       ?GetEntryCount@CPalette@@QAEHXZ 006bc5e0 f   uafxcwd:afxinl2.obj
 0002:0015a640       ??BCRgn@@QBEPAUHRGN__@@XZ  006bc640 f   uafxcwd:afxinl2.obj
 0002:0015a680       ?FromHandle@CRgn@@SGPAV1@PAUHRGN__@@@Z 006bc680 f   uafxcwd:afxinl2.obj
 0002:0015a6a0       ??0CRgn@@QAE@XZ            006bc6a0 f   uafxcwd:afxinl2.obj
 0002:0015a6d0       ??_GCRgn@@UAEPAXI@Z        006bc6d0 f i uafxcwd:afxinl2.obj
 0002:0015a6d0       ??_ECRgn@@UAEPAXI@Z        006bc6d0 f i uafxcwd:afxinl2.obj
 0002:0015a710       ??1CRgn@@UAE@XZ            006bc710 f   uafxcwd:afxinl2.obj
 0002:0015a740       ?CreateRectRgn@CRgn@@QAEHHHHH@Z 006bc740 f   uafxcwd:afxinl2.obj
 0002:0015a780       ?CreateRectRgnIndirect@CRgn@@QAEHPBUtagRECT@@@Z 006bc780 f   uafxcwd:afxinl2.obj
 0002:0015a7b0       ?CreateEllipticRgn@CRgn@@QAEHHHHH@Z 006bc7b0 f   uafxcwd:afxinl2.obj
 0002:0015a7f0       ?CreateEllipticRgnIndirect@CRgn@@QAEHPBUtagRECT@@@Z 006bc7f0 f   uafxcwd:afxinl2.obj
 0002:0015a820       ?CreatePolygonRgn@CRgn@@QAEHPAUtagPOINT@@HH@Z 006bc820 f   uafxcwd:afxinl2.obj
 0002:0015a860       ?CreatePolyPolygonRgn@CRgn@@QAEHPAUtagPOINT@@PAHHH@Z 006bc860 f   uafxcwd:afxinl2.obj
 0002:0015a8a0       ?CreateRoundRectRgn@CRgn@@QAEHHHHHHH@Z 006bc8a0 f   uafxcwd:afxinl2.obj
 0002:0015a8f0       ?CreateFromPath@CRgn@@QAEHPAVCDC@@@Z 006bc8f0 f   uafxcwd:afxinl2.obj
 0002:0015a940       ?CreateFromData@CRgn@@QAEHPBUtagXFORM@@HPBU_RGNDATA@@@Z 006bc940 f   uafxcwd:afxinl2.obj
 0002:0015a980       ?GetRegionData@CRgn@@QBEHPAU_RGNDATA@@H@Z 006bc980 f   uafxcwd:afxinl2.obj
 0002:0015a9e0       ?SetRectRgn@CRgn@@QAEXHHHH@Z 006bc9e0 f   uafxcwd:afxinl2.obj
 0002:0015aa40       ?SetRectRgn@CRgn@@QAEXPBUtagRECT@@@Z 006bca40 f   uafxcwd:afxinl2.obj
 0002:0015aab0       ?CombineRgn@CRgn@@QAEHPBV1@0H@Z 006bcab0 f   uafxcwd:afxinl2.obj
 0002:0015ab20       ?CopyRgn@CRgn@@QAEHPBV1@@Z 006bcb20 f   uafxcwd:afxinl2.obj
 0002:0015ab80       ?EqualRgn@CRgn@@QBEHPBV1@@Z 006bcb80 f   uafxcwd:afxinl2.obj
 0002:0015abe0       ?OffsetRgn@CRgn@@QAEHHH@Z  006bcbe0 f   uafxcwd:afxinl2.obj
 0002:0015ac40       ?OffsetRgn@CRgn@@QAEHUtagPOINT@@@Z 006bcc40 f   uafxcwd:afxinl2.obj
 0002:0015aca0       ?GetRgnBox@CRgn@@QBEHPAUtagRECT@@@Z 006bcca0 f   uafxcwd:afxinl2.obj
 0002:0015acf0       ?PtInRegion@CRgn@@QBEHHH@Z 006bccf0 f   uafxcwd:afxinl2.obj
 0002:0015ad50       ?PtInRegion@CRgn@@QBEHUtagPOINT@@@Z 006bcd50 f   uafxcwd:afxinl2.obj
 0002:0015adb0       ?RectInRegion@CRgn@@QBEHPBUtagRECT@@@Z 006bcdb0 f   uafxcwd:afxinl2.obj
 0002:0015ae00       ??BCDC@@QBEPAUHDC__@@XZ    006bce00 f   uafxcwd:afxinl2.obj
 0002:0015ae40       ?GetSafeHdc@CDC@@QBEPAUHDC__@@XZ 006bce40 f   uafxcwd:afxinl2.obj
 0002:0015ae80       ?GetWindow@CDC@@QBEPAVCWnd@@XZ 006bce80 f   uafxcwd:afxinl2.obj
 0002:0015aed0       ?IsPrinting@CDC@@QBEHXZ    006bced0 f   uafxcwd:afxinl2.obj
 0002:0015aef0       ?CreateDCW@CDC@@QAEHPB_W00PBX@Z 006bcef0 f   uafxcwd:afxinl2.obj
 0002:0015af30       ?CreateICW@CDC@@QAEHPB_W00PBX@Z 006bcf30 f   uafxcwd:afxinl2.obj
 0002:0015af70       ?CreateCompatibleDC@CDC@@QAEHPAV1@@Z 006bcf70 f   uafxcwd:afxinl2.obj
 0002:0015afa0       ?ExcludeUpdateRgn@CDC@@QAEHPAVCWnd@@@Z 006bcfa0 f   uafxcwd:afxinl2.obj
 0002:0015aff0       ?GetDeviceCaps@CDC@@QBEHH@Z 006bcff0 f   uafxcwd:afxinl2.obj
 0002:0015b040       ?GetBrushOrg@CDC@@QBE?AVCPoint@@XZ 006bd040 f   uafxcwd:afxinl2.obj
 0002:0015b0d0       ?SetBrushOrg@CDC@@QAE?AVCPoint@@HH@Z 006bd0d0 f   uafxcwd:afxinl2.obj
 0002:0015b160       ?SetBrushOrg@CDC@@QAE?AVCPoint@@UtagPOINT@@@Z 006bd160 f   uafxcwd:afxinl2.obj
 0002:0015b1f0       ?EnumObjects@CDC@@QAEHHP6GHPAXJ@ZJ@Z 006bd1f0 f   uafxcwd:afxinl2.obj
 0002:0015b250       ?SelectObject@CDC@@QAEPAVCBitmap@@PAV2@@Z 006bd250 f   uafxcwd:afxinl2.obj
 0002:0015b2b0       ?SelectObject@CDC@@QAEPAVCGdiObject@@PAV2@@Z 006bd2b0 f   uafxcwd:afxinl2.obj
 0002:0015b310       ?SelectObject@CDC@@QAEPAXPAX@Z 006bd310 f   uafxcwd:afxinl2.obj
 0002:0015b380       ?GetNearestColor@CDC@@QBEKK@Z 006bd380 f   uafxcwd:afxinl2.obj
 0002:0015b3d0       ?RealizePalette@CDC@@QAEIXZ 006bd3d0 f   uafxcwd:afxinl2.obj
 0002:0015b420       ?UpdateColors@CDC@@QAEXXZ  006bd420 f   uafxcwd:afxinl2.obj
 0002:0015b470       ?GetBkColor@CDC@@QBEKXZ    006bd470 f   uafxcwd:afxinl2.obj
 0002:0015b4c0       ?GetBkMode@CDC@@QBEHXZ     006bd4c0 f   uafxcwd:afxinl2.obj
 0002:0015b510       ?GetPolyFillMode@CDC@@QBEHXZ 006bd510 f   uafxcwd:afxinl2.obj
 0002:0015b560       ?GetROP2@CDC@@QBEHXZ       006bd560 f   uafxcwd:afxinl2.obj
 0002:0015b5b0       ?GetStretchBltMode@CDC@@QBEHXZ 006bd5b0 f   uafxcwd:afxinl2.obj
 0002:0015b600       ?GetTextColor@CDC@@QBEKXZ  006bd600 f   uafxcwd:afxinl2.obj
 0002:0015b650       ?GetMapMode@CDC@@QBEHXZ    006bd650 f   uafxcwd:afxinl2.obj
 0002:0015b6a0       ?GetGraphicsMode@CDC@@QBEHXZ 006bd6a0 f   uafxcwd:afxinl2.obj
 0002:0015b6f0       ?GetWorldTransform@CDC@@QBEHPAUtagXFORM@@@Z 006bd6f0 f   uafxcwd:afxinl2.obj
 0002:0015b740       ?GetViewportOrg@CDC@@QBE?AVCPoint@@XZ 006bd740 f   uafxcwd:afxinl2.obj
 0002:0015b7d0       ?GetViewportExt@CDC@@QBE?AVCSize@@XZ 006bd7d0 f   uafxcwd:afxinl2.obj
 0002:0015b860       ?GetWindowOrg@CDC@@QBE?AVCPoint@@XZ 006bd860 f   uafxcwd:afxinl2.obj
 0002:0015b8f0       ?GetWindowExt@CDC@@QBE?AVCSize@@XZ 006bd8f0 f   uafxcwd:afxinl2.obj
 0002:0015b980       ?SetViewportOrg@CDC@@QAE?AVCPoint@@UtagPOINT@@@Z 006bd980 f   uafxcwd:afxinl2.obj
 0002:0015b9e0       ?SetViewportExt@CDC@@QAE?AVCSize@@UtagSIZE@@@Z 006bd9e0 f   uafxcwd:afxinl2.obj
 0002:0015ba40       ?SetWindowOrg@CDC@@QAE?AVCPoint@@UtagPOINT@@@Z 006bda40 f   uafxcwd:afxinl2.obj
 0002:0015baa0       ?SetWindowExt@CDC@@QAE?AVCSize@@UtagSIZE@@@Z 006bdaa0 f   uafxcwd:afxinl2.obj
 0002:0015bb00       ?DPtoLP@CDC@@QBEXPAUtagPOINT@@H@Z 006bdb00 f   uafxcwd:afxinl2.obj
 0002:0015bb70       ?DPtoLP@CDC@@QBEXPAUtagRECT@@@Z 006bdb70 f   uafxcwd:afxinl2.obj
 0002:0015bbe0       ?LPtoDP@CDC@@QBEXPAUtagPOINT@@H@Z 006bdbe0 f   uafxcwd:afxinl2.obj
 0002:0015bc50       ?LPtoDP@CDC@@QBEXPAUtagRECT@@@Z 006bdc50 f   uafxcwd:afxinl2.obj
 0002:0015bcc0       ?FillRgn@CDC@@QAEHPAVCRgn@@PAVCBrush@@@Z 006bdcc0 f   uafxcwd:afxinl2.obj
 0002:0015bd20       ?FrameRgn@CDC@@QAEHPAVCRgn@@PAVCBrush@@HH@Z 006bdd20 f   uafxcwd:afxinl2.obj
 0002:0015bd90       ?InvertRgn@CDC@@QAEHPAVCRgn@@@Z 006bdd90 f   uafxcwd:afxinl2.obj
 0002:0015bdf0       ?PaintRgn@CDC@@QAEHPAVCRgn@@@Z 006bddf0 f   uafxcwd:afxinl2.obj
 0002:0015be50       ?PtVisible@CDC@@UBEHHH@Z   006bde50 f   uafxcwd:afxinl2.obj
 0002:0015beb0       ?PtVisible@CDC@@QBEHUtagPOINT@@@Z 006bdeb0 f   uafxcwd:afxinl2.obj
 0002:0015bf10       ?RectVisible@CDC@@UBEHPBUtagRECT@@@Z 006bdf10 f   uafxcwd:afxinl2.obj
 0002:0015bf60       ?GetCurrentPosition@CDC@@QBE?AVCPoint@@XZ 006bdf60 f   uafxcwd:afxinl2.obj
 0002:0015bff0       ?MoveTo@CDC@@QAE?AVCPoint@@UtagPOINT@@@Z 006bdff0 f   uafxcwd:afxinl2.obj
 0002:0015c050       ?LineTo@CDC@@QAEHUtagPOINT@@@Z 006be050 f   uafxcwd:afxinl2.obj
 0002:0015c0a0       ?Arc@CDC@@QAEHHHHHHHHH@Z   006be0a0 f   uafxcwd:afxinl2.obj
 0002:0015c110       ?Arc@CDC@@QAEHPBUtagRECT@@UtagPOINT@@1@Z 006be110 f   uafxcwd:afxinl2.obj
 0002:0015c190       ?Polyline@CDC@@QAEHPBUtagPOINT@@H@Z 006be190 f   uafxcwd:afxinl2.obj
 0002:0015c1f0       ?FillRect@CDC@@QAEXPBUtagRECT@@PAVCBrush@@@Z 006be1f0 f   uafxcwd:afxinl2.obj
 0002:0015c250       ?FrameRect@CDC@@QAEXPBUtagRECT@@PAVCBrush@@@Z 006be250 f   uafxcwd:afxinl2.obj
 0002:0015c2b0       ?InvertRect@CDC@@QAEXPBUtagRECT@@@Z 006be2b0 f   uafxcwd:afxinl2.obj
 0002:0015c300       ?DrawIcon@CDC@@QAEHHHPAUHICON__@@@Z 006be300 f   uafxcwd:afxinl2.obj
 0002:0015c360       ?DrawIcon@CDC@@QAEHUtagPOINT@@PAUHICON__@@@Z 006be360 f   uafxcwd:afxinl2.obj
 0002:0015c3c0       ?DrawState@CDC@@QAEHVCPoint@@VCSize@@PAUHBITMAP__@@IPAUHBRUSH__@@@Z 006be3c0 f   uafxcwd:afxinl2.obj
 0002:0015c440       ?DrawState@@YGHPAUHDC__@@PAUHBRUSH__@@P6GH0JIHH@ZJIHHHHI@Z 006be440 f i uafxcwd:afxinl2.obj
 0002:0015c490       ?DrawState@CDC@@QAEHVCPoint@@VCSize@@PAVCBitmap@@IPAVCBrush@@@Z 006be490 f   uafxcwd:afxinl2.obj
 0002:0015c510       ?DrawState@CDC@@QAEHVCPoint@@VCSize@@PAUHICON__@@IPAUHBRUSH__@@@Z 006be510 f   uafxcwd:afxinl2.obj
 0002:0015c590       ?DrawState@CDC@@QAEHVCPoint@@VCSize@@PAUHICON__@@IPAVCBrush@@@Z 006be590 f   uafxcwd:afxinl2.obj
 0002:0015c610       ?DrawState@CDC@@QAEHVCPoint@@VCSize@@PB_WIHHPAUHBRUSH__@@@Z 006be610 f   uafxcwd:afxinl2.obj
 0002:0015c690       ?DrawState@CDC@@QAEHVCPoint@@VCSize@@PB_WIHHPAVCBrush@@@Z 006be690 f   uafxcwd:afxinl2.obj
 0002:0015c720       ?DrawState@CDC@@QAEHVCPoint@@VCSize@@P6GHPAUHDC__@@JIHH@ZJIPAUHBRUSH__@@@Z 006be720 f   uafxcwd:afxinl2.obj
 0002:0015c790       ?DrawState@CDC@@QAEHVCPoint@@VCSize@@P6GHPAUHDC__@@JIHH@ZJIPAVCBrush@@@Z 006be790 f   uafxcwd:afxinl2.obj
 0002:0015c810       ?DrawEdge@CDC@@QAEHPAUtagRECT@@II@Z 006be810 f   uafxcwd:afxinl2.obj
 0002:0015c870       ?DrawFrameControl@CDC@@QAEHPAUtagRECT@@II@Z 006be870 f   uafxcwd:afxinl2.obj
 0002:0015c8d0       ?Chord@CDC@@QAEHHHHHHHHH@Z 006be8d0 f   uafxcwd:afxinl2.obj
 0002:0015c940       ?Chord@CDC@@QAEHPBUtagRECT@@UtagPOINT@@1@Z 006be940 f   uafxcwd:afxinl2.obj
 0002:0015c9c0       ?DrawFocusRect@CDC@@QAEXPBUtagRECT@@@Z 006be9c0 f   uafxcwd:afxinl2.obj
 0002:0015ca10       ?Ellipse@CDC@@QAEHHHHH@Z   006bea10 f   uafxcwd:afxinl2.obj
 0002:0015ca70       ?Ellipse@CDC@@QAEHPBUtagRECT@@@Z 006bea70 f   uafxcwd:afxinl2.obj
 0002:0015cae0       ?Pie@CDC@@QAEHHHHHHHHH@Z   006beae0 f   uafxcwd:afxinl2.obj
 0002:0015cb50       ?Pie@CDC@@QAEHPBUtagRECT@@UtagPOINT@@1@Z 006beb50 f   uafxcwd:afxinl2.obj
 0002:0015cbd0       ?Polygon@CDC@@QAEHPBUtagPOINT@@H@Z 006bebd0 f   uafxcwd:afxinl2.obj
 0002:0015cc30       ?PolyPolygon@CDC@@QAEHPBUtagPOINT@@PBHH@Z 006bec30 f   uafxcwd:afxinl2.obj
 0002:0015cc90       ?Rectangle@CDC@@QAEHHHHH@Z 006bec90 f   uafxcwd:afxinl2.obj
 0002:0015ccf0       ?Rectangle@CDC@@QAEHPBUtagRECT@@@Z 006becf0 f   uafxcwd:afxinl2.obj
 0002:0015cd60       ?RoundRect@CDC@@QAEHHHHHHH@Z 006bed60 f   uafxcwd:afxinl2.obj
 0002:0015cdd0       ?RoundRect@CDC@@QAEHPBUtagRECT@@UtagPOINT@@@Z 006bedd0 f   uafxcwd:afxinl2.obj
 0002:0015ce50       ?PatBlt@CDC@@QAEHHHHHK@Z   006bee50 f   uafxcwd:afxinl2.obj
 0002:0015ceb0       ?BitBlt@CDC@@QAEHHHHHPAV1@HHK@Z 006beeb0 f   uafxcwd:afxinl2.obj
 0002:0015cf30       ?StretchBlt@CDC@@QAEHHHHHPAV1@HHHHK@Z 006bef30 f   uafxcwd:afxinl2.obj
 0002:0015cfb0       ?GetPixel@CDC@@QBEKHH@Z    006befb0 f   uafxcwd:afxinl2.obj
 0002:0015d010       ?GetPixel@CDC@@QBEKUtagPOINT@@@Z 006bf010 f   uafxcwd:afxinl2.obj
 0002:0015d070       ?SetPixel@CDC@@QAEKHHK@Z   006bf070 f   uafxcwd:afxinl2.obj
 0002:0015d0d0       ?SetPixel@CDC@@QAEKUtagPOINT@@K@Z 006bf0d0 f   uafxcwd:afxinl2.obj
 0002:0015d130       ?FloodFill@CDC@@QAEHHHK@Z  006bf130 f   uafxcwd:afxinl2.obj
 0002:0015d190       ?ExtFloodFill@CDC@@QAEHHHKI@Z 006bf190 f   uafxcwd:afxinl2.obj
 0002:0015d1f0       ?TextOutW@CDC@@UAEHHHPB_WH@Z 006bf1f0 f   uafxcwd:afxinl2.obj
 0002:0015d250       ?TextOutW@CDC@@QAEHHHABV?$CStringT@_WV?$StrTraitMFC@_WV?$ChTraitsCRT@_W@ATL@@@@@ATL@@@Z 006bf250 f   uafxcwd:afxinl2.obj
 0002:0015d2c0       ?ExtTextOutW@CDC@@UAEHHHIPBUtagRECT@@PB_WIPAH@Z 006bf2c0 f   uafxcwd:afxinl2.obj
 0002:0015d330       ?ExtTextOutW@CDC@@QAEHHHIPBUtagRECT@@ABV?$CStringT@_WV?$StrTraitMFC@_WV?$ChTraitsCRT@_W@ATL@@@@@ATL@@PAH@Z 006bf330 f   uafxcwd:afxinl2.obj
 0002:0015d3b0       ?TabbedTextOutW@CDC@@UAE?AVCSize@@HHPB_WHHPAHH@Z 006bf3b0 f   uafxcwd:afxinl2.obj
 0002:0015d430       ?TabbedTextOutW@CDC@@QAE?AVCSize@@HHABV?$CStringT@_WV?$StrTraitMFC@_WV?$ChTraitsCRT@_W@ATL@@@@@ATL@@HPAHH@Z 006bf430 f   uafxcwd:afxinl2.obj
 0002:0015d4c0       ?DrawTextW@CDC@@UAEHPB_WHPAUtagRECT@@I@Z 006bf4c0 f   uafxcwd:afxinl2.obj
 0002:0015d520       ?DrawTextW@CDC@@QAEHABV?$CStringT@_WV?$StrTraitMFC@_WV?$ChTraitsCRT@_W@ATL@@@@@ATL@@PAUtagRECT@@I@Z 006bf520 f   uafxcwd:afxinl2.obj
 0002:0015d5f0       ?DrawTextExW@CDC@@UAEHPA_WHPAUtagRECT@@IPAUtagDRAWTEXTPARAMS@@@Z 006bf5f0 f   uafxcwd:afxinl2.obj
 0002:0015d650       ?DrawTextExW@CDC@@QAEHABV?$CStringT@_WV?$StrTraitMFC@_WV?$ChTraitsCRT@_W@ATL@@@@@ATL@@PAUtagRECT@@IPAUtagDRAWTEXTPARAMS@@@Z 006bf650 f   uafxcwd:afxinl2.obj
 0002:0015d720       ?DrawText@CDC@@QAEHPB_WHPAUtagRECT@@I@Z 006bf720 f   uafxcwd:afxinl2.obj
 0002:0015d760       ?DrawText@CDC@@QAEHABV?$CStringT@_WV?$StrTraitMFC@_WV?$ChTraitsCRT@_W@ATL@@@@@ATL@@PAUtagRECT@@I@Z 006bf760 f   uafxcwd:afxinl2.obj
 0002:0015d790       ?DrawTextEx@CDC@@QAEHPA_WHPAUtagRECT@@IPAUtagDRAWTEXTPARAMS@@@Z 006bf790 f   uafxcwd:afxinl2.obj
 0002:0015d7d0       ?DrawTextEx@CDC@@QAEHABV?$CStringT@_WV?$StrTraitMFC@_WV?$ChTraitsCRT@_W@ATL@@@@@ATL@@PAUtagRECT@@IPAUtagDRAWTEXTPARAMS@@@Z 006bf7d0 f   uafxcwd:afxinl2.obj
 0002:0015d800       ?GetTextExtent@CDC@@QBE?AVCSize@@PB_WH@Z 006bf800 f   uafxcwd:afxinl2.obj
 0002:0015d890       ?GetTextExtent@CDC@@QBE?AVCSize@@ABV?$CStringT@_WV?$StrTraitMFC@_WV?$ChTraitsCRT@_W@ATL@@@@@ATL@@@Z 006bf890 f   uafxcwd:afxinl2.obj
 0002:0015d930       ?GetOutputTextExtent@CDC@@QBE?AVCSize@@PB_WH@Z 006bf930 f   uafxcwd:afxinl2.obj
 0002:0015d9c0       ?GetOutputTextExtent@CDC@@QBE?AVCSize@@ABV?$CStringT@_WV?$StrTraitMFC@_WV?$ChTraitsCRT@_W@ATL@@@@@ATL@@@Z 006bf9c0 f   uafxcwd:afxinl2.obj
 0002:0015da60       ?GetTabbedTextExtentW@CDC@@QBE?AVCSize@@PB_WHHPAH@Z 006bfa60 f   uafxcwd:afxinl2.obj
 0002:0015dad0       ?GetTabbedTextExtentW@CDC@@QBE?AVCSize@@ABV?$CStringT@_WV?$StrTraitMFC@_WV?$ChTraitsCRT@_W@ATL@@@@@ATL@@HPAH@Z 006bfad0 f   uafxcwd:afxinl2.obj
 0002:0015db50       ?GetOutputTabbedTextExtent@CDC@@QBE?AVCSize@@PB_WHHPAH@Z 006bfb50 f   uafxcwd:afxinl2.obj
 0002:0015dbc0       ?GetOutputTabbedTextExtent@CDC@@QBE?AVCSize@@ABV?$CStringT@_WV?$StrTraitMFC@_WV?$ChTraitsCRT@_W@ATL@@@@@ATL@@HPAH@Z 006bfbc0 f   uafxcwd:afxinl2.obj
 0002:0015dc40       ?GrayStringW@CDC@@UAEHPAVCBrush@@P6GHPAUHDC__@@JH@ZJHHHHH@Z 006bfc40 f   uafxcwd:afxinl2.obj
 0002:0015dcc0       ?GetTextAlign@CDC@@QBEIXZ  006bfcc0 f   uafxcwd:afxinl2.obj
 0002:0015dd10       ?GetTextFaceW@CDC@@QBEHHPA_W@Z 006bfd10 f   uafxcwd:afxinl2.obj
 0002:0015dd70       ?GetTextFaceW@CDC@@QBEHAAV?$CStringT@_WV?$StrTraitMFC@_WV?$ChTraitsCRT@_W@ATL@@@@@ATL@@@Z 006bfd70 f   uafxcwd:afxinl2.obj
 0002:0015ddf0       ?GetTextMetricsW@CDC@@QBEHPAUtagTEXTMETRICW@@@Z 006bfdf0 f   uafxcwd:afxinl2.obj
 0002:0015de40       ?GetTextMetrics@CDC@@QBEHPAUtagTEXTMETRICW@@@Z 006bfe40 f   uafxcwd:afxinl2.obj
 0002:0015de70       ?GetOutputTextMetrics@CDC@@QBEHPAUtagTEXTMETRICW@@@Z 006bfe70 f   uafxcwd:afxinl2.obj
 0002:0015dec0       ?GetTextCharacterExtra@CDC@@QBEHXZ 006bfec0 f   uafxcwd:afxinl2.obj
 0002:0015df10       ?GetCharWidthW@CDC@@QBEHIIPAH@Z 006bff10 f   uafxcwd:afxinl2.obj
 0002:0015df70       ?GetOutputCharWidth@CDC@@QBEHIIPAH@Z 006bff70 f   uafxcwd:afxinl2.obj
 0002:0015dfd0       ?GetFontLanguageInfo@CDC@@QBEKXZ 006bffd0 f   uafxcwd:afxinl2.obj
 0002:0015e020       ?GetCharacterPlacementW@CDC@@QBEKPB_WHHPAUtagGCP_RESULTSW@@K@Z 006c0020 f   uafxcwd:afxinl2.obj
 0002:0015e080       ?GetCharacterPlacementW@CDC@@QBEKAAV?$CStringT@_WV?$StrTraitMFC@_WV?$ChTraitsCRT@_W@ATL@@@@@ATL@@HPAUtagGCP_RESULTSW@@K@Z 006c0080 f   uafxcwd:afxinl2.obj
 0002:0015e0f0       ?GetAspectRatioFilter@CDC@@QBE?AVCSize@@XZ 006c00f0 f   uafxcwd:afxinl2.obj
 0002:0015e180       ?ScrollDC@CDC@@QAEHHHPBUtagRECT@@0PAVCRgn@@PAU2@@Z 006c0180 f   uafxcwd:afxinl2.obj
 0002:0015e1f0       ?Escape@CDC@@UAEHHHPBDPAX@Z 006c01f0 f   uafxcwd:afxinl2.obj
 0002:0015e250       ?SetBoundsRect@CDC@@QAEIPBUtagRECT@@I@Z 006c0250 f   uafxcwd:afxinl2.obj
 0002:0015e2b0       ?GetBoundsRect@CDC@@QAEIPAUtagRECT@@I@Z 006c02b0 f   uafxcwd:afxinl2.obj
 0002:0015e310       ?ResetDCW@CDC@@QAEHPBU_devicemodeW@@@Z 006c0310 f   uafxcwd:afxinl2.obj
 0002:0015e370       ?GetOutlineTextMetricsW@CDC@@QBEIIPAU_OUTLINETEXTMETRICW@@@Z 006c0370 f   uafxcwd:afxinl2.obj
 0002:0015e3d0       ?GetCharABCWidthsW@CDC@@QBEHIIPAU_ABC@@@Z 006c03d0 f   uafxcwd:afxinl2.obj
 0002:0015e430       ?GetFontData@CDC@@QBEKKKPAXK@Z 006c0430 f   uafxcwd:afxinl2.obj
 0002:0015e490       ?GetKerningPairsW@CDC@@QBEHHPAUtagKERNINGPAIR@@@Z 006c0490 f   uafxcwd:afxinl2.obj
 0002:0015e4f0       ?GetGlyphOutlineW@CDC@@QBEKIIPAU_GLYPHMETRICS@@KPAXPBU_MAT2@@@Z 006c04f0 f   uafxcwd:afxinl2.obj
 0002:0015e560       ?StartDocW@CDC@@QAEHPAU_DOCINFOW@@@Z 006c0560 f   uafxcwd:afxinl2.obj
 0002:0015e5b0       ?StartPage@CDC@@QAEHXZ     006c05b0 f   uafxcwd:afxinl2.obj
 0002:0015e600       ?EndPage@CDC@@QAEHXZ       006c0600 f   uafxcwd:afxinl2.obj
 0002:0015e650       ?SetAbortProc@CDC@@QAEHP6GHPAUHDC__@@H@Z@Z 006c0650 f   uafxcwd:afxinl2.obj
 0002:0015e6a0       ?AbortDoc@CDC@@QAEHXZ      006c06a0 f   uafxcwd:afxinl2.obj
 0002:0015e6f0       ?EndDoc@CDC@@QAEHXZ        006c06f0 f   uafxcwd:afxinl2.obj
 0002:0015e740       ?MaskBlt@CDC@@QAEHHHHHPAV1@HHAAVCBitmap@@HHK@Z 006c0740 f   uafxcwd:afxinl2.obj
 0002:0015e7d0       ?PlgBlt@CDC@@QAEHPAUtagPOINT@@PAV1@HHHHAAVCBitmap@@HH@Z 006c07d0 f   uafxcwd:afxinl2.obj
 0002:0015e850       ?SetPixelV@CDC@@QAEHHHK@Z  006c0850 f   uafxcwd:afxinl2.obj
 0002:0015e8b0       ?SetPixelV@CDC@@QAEHUtagPOINT@@K@Z 006c08b0 f   uafxcwd:afxinl2.obj
 0002:0015e910       ?AngleArc@CDC@@QAEHHHHMM@Z 006c0910 f   uafxcwd:afxinl2.obj
 0002:0015e980       ?ArcTo@CDC@@QAEHPBUtagRECT@@UtagPOINT@@1@Z 006c0980 f   uafxcwd:afxinl2.obj
 0002:0015ea00       ?GetArcDirection@CDC@@QBEHXZ 006c0a00 f   uafxcwd:afxinl2.obj
 0002:0015ea50       ?PolyPolyline@CDC@@QAEHPBUtagPOINT@@PBKH@Z 006c0a50 f   uafxcwd:afxinl2.obj
 0002:0015eab0       ?GetColorAdjustment@CDC@@QBEHPAUtagCOLORADJUSTMENT@@@Z 006c0ab0 f   uafxcwd:afxinl2.obj
 0002:0015eb00       ?GetCurrentPen@CDC@@QBEPAVCPen@@XZ 006c0b00 f   uafxcwd:afxinl2.obj
 0002:0015eb50       ?GetCurrentBrush@CDC@@QBEPAVCBrush@@XZ 006c0b50 f   uafxcwd:afxinl2.obj
 0002:0015eba0       ?GetCurrentPalette@CDC@@QBEPAVCPalette@@XZ 006c0ba0 f   uafxcwd:afxinl2.obj
 0002:0015ebf0       ?GetCurrentFont@CDC@@QBEPAVCFont@@XZ 006c0bf0 f   uafxcwd:afxinl2.obj
 0002:0015ec40       ?GetCurrentBitmap@CDC@@QBEPAVCBitmap@@XZ 006c0c40 f   uafxcwd:afxinl2.obj
 0002:0015ec90       ?PolyBezier@CDC@@QAEHPBUtagPOINT@@H@Z 006c0c90 f   uafxcwd:afxinl2.obj
 0002:0015ecf0       ?DrawEscape@CDC@@QAEHHHPBD@Z 006c0cf0 f   uafxcwd:afxinl2.obj
 0002:0015ed50       ?Escape@CDC@@QAEHHHPBDHPAD@Z 006c0d50 f   uafxcwd:afxinl2.obj
 0002:0015edb0       ?GetCharABCWidthsW@CDC@@QBEHIIPAU_ABCFLOAT@@@Z 006c0db0 f   uafxcwd:afxinl2.obj
 0002:0015ee10       ?GetCharWidthW@CDC@@QBEHIIPAM@Z 006c0e10 f   uafxcwd:afxinl2.obj
 0002:0015ee70       ?AbortPath@CDC@@QAEHXZ     006c0e70 f   uafxcwd:afxinl2.obj
 0002:0015eec0       ?BeginPath@CDC@@QAEHXZ     006c0ec0 f   uafxcwd:afxinl2.obj
 0002:0015ef10       ?CloseFigure@CDC@@QAEHXZ   006c0f10 f   uafxcwd:afxinl2.obj
 0002:0015ef60       ?EndPath@CDC@@QAEHXZ       006c0f60 f   uafxcwd:afxinl2.obj
 0002:0015efb0       ?FillPath@CDC@@QAEHXZ      006c0fb0 f   uafxcwd:afxinl2.obj
 0002:0015f000       ?FlattenPath@CDC@@QAEHXZ   006c1000 f   uafxcwd:afxinl2.obj
 0002:0015f050       ?GetMiterLimit@CDC@@QBEMXZ 006c1050 f   uafxcwd:afxinl2.obj
 0002:0015f0c0       ?GetPath@CDC@@QBEHPAUtagPOINT@@PAEH@Z 006c10c0 f   uafxcwd:afxinl2.obj
 0002:0015f120       ?SetMiterLimit@CDC@@QAEHM@Z 006c1120 f   uafxcwd:afxinl2.obj
 0002:0015f180       ?StrokeAndFillPath@CDC@@QAEHXZ 006c1180 f   uafxcwd:afxinl2.obj
 0002:0015f1d0       ?StrokePath@CDC@@QAEHXZ    006c11d0 f   uafxcwd:afxinl2.obj
 0002:0015f220       ?WidenPath@CDC@@QAEHXZ     006c1220 f   uafxcwd:afxinl2.obj
 0002:0015f270       ?AddMetaFileComment@CDC@@QAEHIPBE@Z 006c1270 f   uafxcwd:afxinl2.obj
 0002:0015f2d0       ?PlayMetaFile@CDC@@QAEHPAUHENHMETAFILE__@@PBUtagRECT@@@Z 006c12d0 f   uafxcwd:afxinl2.obj
 0002:0015f330       ??BCImageList@@QBEPAU_IMAGELIST@@XZ 006c1330 f   uafxcwd:afxinl2.obj
 0002:0015f350       ?GetSafeHandle@CImageList@@QBEPAU_IMAGELIST@@XZ 006c1350 f   uafxcwd:afxinl2.obj
 0002:0015f390       ?GetImageCount@CImageList@@QBEHXZ 006c1390 f   uafxcwd:afxinl2.obj
 0002:0015f3e0       ?Add@CImageList@@QAEHPAVCBitmap@@0@Z 006c13e0 f   uafxcwd:afxinl2.obj
 0002:0015f440       ?Add@CImageList@@QAEHPAVCBitmap@@K@Z 006c1440 f   uafxcwd:afxinl2.obj
 0002:0015f4a0       ?Remove@CImageList@@QAEHH@Z 006c14a0 f   uafxcwd:afxinl2.obj
 0002:0015f4f0       ?Replace@CImageList@@QAEHHPAVCBitmap@@0@Z 006c14f0 f   uafxcwd:afxinl2.obj
 0002:0015f560       ?Add@CImageList@@QAEHPAUHICON__@@@Z 006c1560 f   uafxcwd:afxinl2.obj
 0002:0015f5b0       ?Replace@CImageList@@QAEHHPAUHICON__@@@Z 006c15b0 f   uafxcwd:afxinl2.obj
 0002:0015f600       ?ExtractIconW@CImageList@@QAEPAUHICON__@@H@Z 006c1600 f   uafxcwd:afxinl2.obj
 0002:0015f650       ?Draw@CImageList@@QAEHPAVCDC@@HUtagPOINT@@I@Z 006c1650 f   uafxcwd:afxinl2.obj
 0002:0015f6e0       ?DrawEx@CImageList@@QAEHPAVCDC@@HUtagPOINT@@UtagSIZE@@KKI@Z 006c16e0 f   uafxcwd:afxinl2.obj
 0002:0015f780       ?SetBkColor@CImageList@@QAEKK@Z 006c1780 f   uafxcwd:afxinl2.obj
 0002:0015f7d0       ?GetBkColor@CImageList@@QBEKXZ 006c17d0 f   uafxcwd:afxinl2.obj
 0002:0015f820       ?SetOverlayImage@CImageList@@QAEHHH@Z 006c1820 f   uafxcwd:afxinl2.obj
 0002:0015f870       ?GetImageInfo@CImageList@@QBEHHPAU_IMAGEINFO@@@Z 006c1870 f   uafxcwd:afxinl2.obj
 0002:0015f8c0       ?BeginDrag@CImageList@@QAEHHVCPoint@@@Z 006c18c0 f   uafxcwd:afxinl2.obj
 0002:0015f920       ?EndDrag@CImageList@@SGXXZ 006c1920 f   uafxcwd:afxinl2.obj
 0002:0015f930       ?DragMove@CImageList@@SGHVCPoint@@@Z 006c1930 f   uafxcwd:afxinl2.obj
 0002:0015f950       ?SetDragCursorImage@CImageList@@QAEHHVCPoint@@@Z 006c1950 f   uafxcwd:afxinl2.obj
 0002:0015f9b0       ?DragShowNolock@CImageList@@SGHH@Z 006c19b0 f   uafxcwd:afxinl2.obj
 0002:0015f9d0       ?GetDragImage@CImageList@@SGPAV1@PAUtagPOINT@@0@Z 006c19d0 f   uafxcwd:afxinl2.obj
 0002:0015fa00       ?DragEnter@CImageList@@SGHPAVCWnd@@VCPoint@@@Z 006c1a00 f   uafxcwd:afxinl2.obj
 0002:0015fa30       ?DragLeave@CImageList@@SGHPAVCWnd@@@Z 006c1a30 f   uafxcwd:afxinl2.obj
 0002:0015fa50       ??0CMenu@@QAE@XZ           006c1a50 f   uafxcwd:afxinl2.obj
 0002:0015fa90       ??_GCMenu@@UAEPAXI@Z       006c1a90 f i uafxcwd:afxinl2.obj
 0002:0015fa90       ??_ECMenu@@UAEPAXI@Z       006c1a90 f i uafxcwd:afxinl2.obj
 0002:0015fad0       ??1CMenu@@UAE@XZ           006c1ad0 f   uafxcwd:afxinl2.obj
 0002:0015fb50       ?CreateMenu@CMenu@@QAEHXZ  006c1b50 f   uafxcwd:afxinl2.obj
 0002:0015fb80       ?CreatePopupMenu@CMenu@@QAEHXZ 006c1b80 f   uafxcwd:afxinl2.obj
 0002:0015fbb0       ??BCMenu@@QBEPAUHMENU__@@XZ 006c1bb0 f   uafxcwd:afxinl2.obj
 0002:0015fc30       ??8CMenu@@QBEHABV0@@Z      006c1c30 f   uafxcwd:afxinl2.obj
 0002:0015fc60       ??9CMenu@@QBEHABV0@@Z      006c1c60 f   uafxcwd:afxinl2.obj
 0002:0015fc90       ?GetSafeHmenu@CMenu@@QBEPAUHMENU__@@XZ 006c1c90 f   uafxcwd:afxinl2.obj
 0002:0015fd10       ?DeleteMenu@CMenu@@QAEHII@Z 006c1d10 f   uafxcwd:afxinl2.obj
 0002:0015fd70       ?AppendMenuW@CMenu@@QAEHIIPB_W@Z 006c1d70 f   uafxcwd:afxinl2.obj
 0002:0015fdd0       ?AppendMenuW@CMenu@@QAEHIIPBVCBitmap@@@Z 006c1dd0 f   uafxcwd:afxinl2.obj
 0002:0015fe40       ?CheckMenuItem@CMenu@@QAEIII@Z 006c1e40 f   uafxcwd:afxinl2.obj
 0002:0015fea0       ?EnableMenuItem@CMenu@@QAEIII@Z 006c1ea0 f   uafxcwd:afxinl2.obj
 0002:0015ff00       ?SetDefaultItem@CMenu@@QAEHIH@Z 006c1f00 f   uafxcwd:afxinl2.obj
 0002:0015ff60       ?GetDefaultItem@CMenu@@QAEIIH@Z 006c1f60 f   uafxcwd:afxinl2.obj
 0002:0015ffc0       ?GetMenuItemCount@CMenu@@QBEIXZ 006c1fc0 f   uafxcwd:afxinl2.obj
 0002:00160010       ?GetMenuItemID@CMenu@@QBEIH@Z 006c2010 f   uafxcwd:afxinl2.obj
 0002:00160070       ?GetMenuState@CMenu@@QBEIII@Z 006c2070 f   uafxcwd:afxinl2.obj
 0002:001600d0       ?GetMenuStringW@CMenu@@QBEHIPA_WHI@Z 006c20d0 f   uafxcwd:afxinl2.obj
 0002:00160140       ?GetMenuItemInfoW@CMenu@@QAEHIPAUtagMENUITEMINFOW@@H@Z 006c2140 f   uafxcwd:afxinl2.obj
 0002:001601e0       ?SetMenuItemInfoW@CMenu@@QAEHIPAUtagMENUITEMINFOW@@H@Z 006c21e0 f   uafxcwd:afxinl2.obj
 0002:00160280       ?GetSubMenu@CMenu@@QBEPAV1@H@Z 006c2280 f   uafxcwd:afxinl2.obj
 0002:001602e0       ?InsertMenuW@CMenu@@QAEHIIIPB_W@Z 006c22e0 f   uafxcwd:afxinl2.obj
 0002:00160350       ?InsertMenuW@CMenu@@QAEHIIIPBVCBitmap@@@Z 006c2350 f   uafxcwd:afxinl2.obj
 0002:001603c0       ?InsertMenuItemW@CMenu@@QAEHIPAUtagMENUITEMINFOW@@H@Z 006c23c0 f   uafxcwd:afxinl2.obj
 0002:00160460       ?ModifyMenuW@CMenu@@QAEHIIIPB_W@Z 006c2460 f   uafxcwd:afxinl2.obj
 0002:001604d0       ?ModifyMenuW@CMenu@@QAEHIIIPBVCBitmap@@@Z 006c24d0 f   uafxcwd:afxinl2.obj
 0002:00160540       ?RemoveMenu@CMenu@@QAEHII@Z 006c2540 f   uafxcwd:afxinl2.obj
 0002:001605a0       ?SetMenuItemBitmaps@CMenu@@QAEHIIPBVCBitmap@@0@Z 006c25a0 f   uafxcwd:afxinl2.obj
 0002:00160620       ?LoadMenuW@CMenu@@QAEHPB_W@Z 006c2620 f   uafxcwd:afxinl2.obj
 0002:00160660       ?LoadMenuW@CMenu@@QAEHI@Z  006c2660 f   uafxcwd:afxinl2.obj
 0002:001606a0       ?LoadMenuIndirectW@CMenu@@QAEHPBX@Z 006c26a0 f   uafxcwd:afxinl2.obj
 0002:001606d0       ?SetMenuContextHelpId@CMenu@@QAEHK@Z 006c26d0 f   uafxcwd:afxinl2.obj
 0002:00160700       ?GetMenuContextHelpId@CMenu@@QBEKXZ 006c2700 f   uafxcwd:afxinl2.obj
 0002:00160720       ?CheckMenuRadioItem@CMenu@@QAEHIIII@Z 006c2720 f   uafxcwd:afxinl2.obj
 0002:00160760       ?ContinueRouting@CCmdUI@@QAEXXZ 006c2760 f   uafxcwd:afxinl2.obj
 0002:00160780       ?AfxImageList_GetImageCount@@YGHPAU_IMAGELIST@@@Z 006c2780 f i uafxcwd:afxinl2.obj
 0002:001607b0       ?_ImageList_GetImageCount@CComCtlWrapper@@QAEHPAU_IMAGELIST@@@Z 006c27b0 f i uafxcwd:afxinl2.obj
 0002:00160940       ??BImageList_GetImageCount_Type@CComCtlWrapper@@QAEP6GHPAU_IMAGELIST@@@ZXZ 006c2940 f i uafxcwd:afxinl2.obj
 0002:00160960       ?GetProcAddress_ImageList_GetImageCount@CComCtlWrapper@@QAE?AUImageList_GetImageCount_Type@1@XZ 006c2960 f i uafxcwd:afxinl2.obj
 0002:001609d0       ??4ImageList_GetImageCount_Type@CComCtlWrapper@@QAEXP6GHPAU_IMAGELIST@@@Z@Z 006c29d0 f i uafxcwd:afxinl2.obj
 0002:001609f0       ??7ImageList_GetImageCount_Type@CComCtlWrapper@@QBE_NXZ 006c29f0 f i uafxcwd:afxinl2.obj
 0002:00160a10       ?AfxImageList_Add@@YGHPAU_IMAGELIST@@PAUHBITMAP__@@1@Z 006c2a10 f i uafxcwd:afxinl2.obj
 0002:00160a40       ?_ImageList_Add@CComCtlWrapper@@QAEHPAU_IMAGELIST@@PAUHBITMAP__@@1@Z 006c2a40 f i uafxcwd:afxinl2.obj
 0002:00160be0       ??BImageList_Add_Type@CComCtlWrapper@@QAEP6GHPAU_IMAGELIST@@PAUHBITMAP__@@1@ZXZ 006c2be0 f i uafxcwd:afxinl2.obj
 0002:00160c00       ?GetProcAddress_ImageList_Add@CComCtlWrapper@@QAE?AUImageList_Add_Type@1@XZ 006c2c00 f i uafxcwd:afxinl2.obj
 0002:00160c70       ??4ImageList_Add_Type@CComCtlWrapper@@QAEXP6GHPAU_IMAGELIST@@PAUHBITMAP__@@1@Z@Z 006c2c70 f i uafxcwd:afxinl2.obj
 0002:00160c90       ??7ImageList_Add_Type@CComCtlWrapper@@QBE_NXZ 006c2c90 f i uafxcwd:afxinl2.obj
 0002:00160cb0       ?AfxImageList_ReplaceIcon@@YGHPAU_IMAGELIST@@HPAUHICON__@@@Z 006c2cb0 f i uafxcwd:afxinl2.obj
 0002:00160ce0       ?_ImageList_ReplaceIcon@CComCtlWrapper@@QAEHPAU_IMAGELIST@@HPAUHICON__@@@Z 006c2ce0 f i uafxcwd:afxinl2.obj
 0002:00160e80       ??BImageList_ReplaceIcon_Type@CComCtlWrapper@@QAEP6GHPAU_IMAGELIST@@HPAUHICON__@@@ZXZ 006c2e80 f i uafxcwd:afxinl2.obj
 0002:00160ea0       ?GetProcAddress_ImageList_ReplaceIcon@CComCtlWrapper@@QAE?AUImageList_ReplaceIcon_Type@1@XZ 006c2ea0 f i uafxcwd:afxinl2.obj
 0002:00160f10       ??4ImageList_ReplaceIcon_Type@CComCtlWrapper@@QAEXP6GHPAU_IMAGELIST@@HPAUHICON__@@@Z@Z 006c2f10 f i uafxcwd:afxinl2.obj
 0002:00160f30       ??7ImageList_ReplaceIcon_Type@CComCtlWrapper@@QBE_NXZ 006c2f30 f i uafxcwd:afxinl2.obj
 0002:00160f50       ?AfxImageList_SetBkColor@@YGKPAU_IMAGELIST@@K@Z 006c2f50 f i uafxcwd:afxinl2.obj
 0002:00160f80       ?_ImageList_SetBkColor@CComCtlWrapper@@QAEKPAU_IMAGELIST@@K@Z 006c2f80 f i uafxcwd:afxinl2.obj
 0002:00161110       ??BImageList_SetBkColor_Type@CComCtlWrapper@@QAEP6GKPAU_IMAGELIST@@K@ZXZ 006c3110 f i uafxcwd:afxinl2.obj
 0002:00161130       ?GetProcAddress_ImageList_SetBkColor@CComCtlWrapper@@QAE?AUImageList_SetBkColor_Type@1@XZ 006c3130 f i uafxcwd:afxinl2.obj
 0002:001611a0       ??4ImageList_SetBkColor_Type@CComCtlWrapper@@QAEXP6GKPAU_IMAGELIST@@K@Z@Z 006c31a0 f i uafxcwd:afxinl2.obj
 0002:001611c0       ??7ImageList_SetBkColor_Type@CComCtlWrapper@@QBE_NXZ 006c31c0 f i uafxcwd:afxinl2.obj
 0002:001611e0       ?AfxImageList_GetBkColor@@YGKPAU_IMAGELIST@@@Z 006c31e0 f i uafxcwd:afxinl2.obj
 0002:00161210       ?_ImageList_GetBkColor@CComCtlWrapper@@QAEKPAU_IMAGELIST@@@Z 006c3210 f i uafxcwd:afxinl2.obj
 0002:001613a0       ??BImageList_GetBkColor_Type@CComCtlWrapper@@QAEP6GKPAU_IMAGELIST@@@ZXZ 006c33a0 f i uafxcwd:afxinl2.obj
 0002:001613c0       ?GetProcAddress_ImageList_GetBkColor@CComCtlWrapper@@QAE?AUImageList_GetBkColor_Type@1@XZ 006c33c0 f i uafxcwd:afxinl2.obj
 0002:00161430       ??4ImageList_GetBkColor_Type@CComCtlWrapper@@QAEXP6GKPAU_IMAGELIST@@@Z@Z 006c3430 f i uafxcwd:afxinl2.obj
 0002:00161450       ??7ImageList_GetBkColor_Type@CComCtlWrapper@@QBE_NXZ 006c3450 f i uafxcwd:afxinl2.obj
 0002:00161470       ?AfxImageList_SetOverlayImage@@YGHPAU_IMAGELIST@@HH@Z 006c3470 f i uafxcwd:afxinl2.obj
 0002:001614a0       ?_ImageList_SetOverlayImage@CComCtlWrapper@@QAEHPAU_IMAGELIST@@HH@Z 006c34a0 f i uafxcwd:afxinl2.obj
 0002:00161640       ??BImageList_SetOverlayImage_Type@CComCtlWrapper@@QAEP6GHPAU_IMAGELIST@@HH@ZXZ 006c3640 f i uafxcwd:afxinl2.obj
 0002:00161660       ?GetProcAddress_ImageList_SetOverlayImage@CComCtlWrapper@@QAE?AUImageList_SetOverlayImage_Type@1@XZ 006c3660 f i uafxcwd:afxinl2.obj
 0002:001616d0       ??4ImageList_SetOverlayImage_Type@CComCtlWrapper@@QAEXP6GHPAU_IMAGELIST@@HH@Z@Z 006c36d0 f i uafxcwd:afxinl2.obj
 0002:001616f0       ??7ImageList_SetOverlayImage_Type@CComCtlWrapper@@QBE_NXZ 006c36f0 f i uafxcwd:afxinl2.obj
 0002:00161710       ?AfxImageList_Draw@@YGHPAU_IMAGELIST@@HPAUHDC__@@HHI@Z 006c3710 f i uafxcwd:afxinl2.obj
 0002:00161750       ?_ImageList_Draw@CComCtlWrapper@@QAEHPAU_IMAGELIST@@HPAUHDC__@@HHI@Z 006c3750 f i uafxcwd:afxinl2.obj
 0002:00161900       ??BImageList_Draw_Type@CComCtlWrapper@@QAEP6GHPAU_IMAGELIST@@HPAUHDC__@@HHI@ZXZ 006c3900 f i uafxcwd:afxinl2.obj
 0002:00161920       ?GetProcAddress_ImageList_Draw@CComCtlWrapper@@QAE?AUImageList_Draw_Type@1@XZ 006c3920 f i uafxcwd:afxinl2.obj
 0002:00161990       ??4ImageList_Draw_Type@CComCtlWrapper@@QAEXP6GHPAU_IMAGELIST@@HPAUHDC__@@HHI@Z@Z 006c3990 f i uafxcwd:afxinl2.obj
 0002:001619b0       ??7ImageList_Draw_Type@CComCtlWrapper@@QBE_NXZ 006c39b0 f i uafxcwd:afxinl2.obj
 0002:001619d0       ?AfxImageList_Replace@@YGHPAU_IMAGELIST@@HPAUHBITMAP__@@1@Z 006c39d0 f i uafxcwd:afxinl2.obj
 0002:00161a10       ?_ImageList_Replace@CComCtlWrapper@@QAEHPAU_IMAGELIST@@HPAUHBITMAP__@@1@Z 006c3a10 f i uafxcwd:afxinl2.obj
 0002:00161bb0       ??BImageList_Replace_Type@CComCtlWrapper@@QAEP6GHPAU_IMAGELIST@@HPAUHBITMAP__@@1@ZXZ 006c3bb0 f i uafxcwd:afxinl2.obj
 0002:00161bd0       ?GetProcAddress_ImageList_Replace@CComCtlWrapper@@QAE?AUImageList_Replace_Type@1@XZ 006c3bd0 f i uafxcwd:afxinl2.obj
 0002:00161c40       ??4ImageList_Replace_Type@CComCtlWrapper@@QAEXP6GHPAU_IMAGELIST@@HPAUHBITMAP__@@1@Z@Z 006c3c40 f i uafxcwd:afxinl2.obj
 0002:00161c60       ??7ImageList_Replace_Type@CComCtlWrapper@@QBE_NXZ 006c3c60 f i uafxcwd:afxinl2.obj
 0002:00161c80       ?AfxImageList_AddMasked@@YGHPAU_IMAGELIST@@PAUHBITMAP__@@K@Z 006c3c80 f i uafxcwd:afxinl2.obj
 0002:00161cb0       ?_ImageList_AddMasked@CComCtlWrapper@@QAEHPAU_IMAGELIST@@PAUHBITMAP__@@K@Z 006c3cb0 f i uafxcwd:afxinl2.obj
 0002:00161e50       ??BImageList_AddMasked_Type@CComCtlWrapper@@QAEP6GHPAU_IMAGELIST@@PAUHBITMAP__@@K@ZXZ 006c3e50 f i uafxcwd:afxinl2.obj
 0002:00161e70       ?GetProcAddress_ImageList_AddMasked@CComCtlWrapper@@QAE?AUImageList_AddMasked_Type@1@XZ 006c3e70 f i uafxcwd:afxinl2.obj
 0002:00161ee0       ??4ImageList_AddMasked_Type@CComCtlWrapper@@QAEXP6GHPAU_IMAGELIST@@PAUHBITMAP__@@K@Z@Z 006c3ee0 f i uafxcwd:afxinl2.obj
 0002:00161f00       ??7ImageList_AddMasked_Type@CComCtlWrapper@@QBE_NXZ 006c3f00 f i uafxcwd:afxinl2.obj
 0002:00161f20       ?AfxImageList_DrawEx@@YGHPAU_IMAGELIST@@HPAUHDC__@@HHHHKKI@Z 006c3f20 f i uafxcwd:afxinl2.obj
 0002:00161f70       ?_ImageList_DrawEx@CComCtlWrapper@@QAEHPAU_IMAGELIST@@HPAUHDC__@@HHHHKKI@Z 006c3f70 f i uafxcwd:afxinl2.obj
 0002:00162130       ??BImageList_DrawEx_Type@CComCtlWrapper@@QAEP6GHPAU_IMAGELIST@@HPAUHDC__@@HHHHKKI@ZXZ 006c4130 f i uafxcwd:afxinl2.obj
 0002:00162150       ?GetProcAddress_ImageList_DrawEx@CComCtlWrapper@@QAE?AUImageList_DrawEx_Type@1@XZ 006c4150 f i uafxcwd:afxinl2.obj
 0002:001621c0       ??4ImageList_DrawEx_Type@CComCtlWrapper@@QAEXP6GHPAU_IMAGELIST@@HPAUHDC__@@HHHHKKI@Z@Z 006c41c0 f i uafxcwd:afxinl2.obj
 0002:001621e0       ??7ImageList_DrawEx_Type@CComCtlWrapper@@QBE_NXZ 006c41e0 f i uafxcwd:afxinl2.obj
 0002:00162200       ?AfxImageList_Remove@@YGHPAU_IMAGELIST@@H@Z 006c4200 f i uafxcwd:afxinl2.obj
 0002:00162230       ?_ImageList_Remove@CComCtlWrapper@@QAEHPAU_IMAGELIST@@H@Z 006c4230 f i uafxcwd:afxinl2.obj
 0002:001623c0       ??BImageList_Remove_Type@CComCtlWrapper@@QAEP6GHPAU_IMAGELIST@@H@ZXZ 006c43c0 f i uafxcwd:afxinl2.obj
 0002:001623e0       ?GetProcAddress_ImageList_Remove@CComCtlWrapper@@QAE?AUImageList_Remove_Type@1@XZ 006c43e0 f i uafxcwd:afxinl2.obj
 0002:00162450       ??4ImageList_Remove_Type@CComCtlWrapper@@QAEXP6GHPAU_IMAGELIST@@H@Z@Z 006c4450 f i uafxcwd:afxinl2.obj
 0002:00162470       ??7ImageList_Remove_Type@CComCtlWrapper@@QBE_NXZ 006c4470 f i uafxcwd:afxinl2.obj
 0002:00162490       ?AfxImageList_GetIcon@@YGPAUHICON__@@PAU_IMAGELIST@@HI@Z 006c4490 f i uafxcwd:afxinl2.obj
 0002:001624c0       ?_ImageList_GetIcon@CComCtlWrapper@@QAEPAUHICON__@@PAU_IMAGELIST@@HI@Z 006c44c0 f i uafxcwd:afxinl2.obj
 0002:00162660       ??BImageList_GetIcon_Type@CComCtlWrapper@@QAEP6GPAUHICON__@@PAU_IMAGELIST@@HI@ZXZ 006c4660 f i uafxcwd:afxinl2.obj
 0002:00162680       ?GetProcAddress_ImageList_GetIcon@CComCtlWrapper@@QAE?AUImageList_GetIcon_Type@1@XZ 006c4680 f i uafxcwd:afxinl2.obj
 0002:001626f0       ??4ImageList_GetIcon_Type@CComCtlWrapper@@QAEXP6GPAUHICON__@@PAU_IMAGELIST@@HI@Z@Z 006c46f0 f i uafxcwd:afxinl2.obj
 0002:00162710       ??7ImageList_GetIcon_Type@CComCtlWrapper@@QBE_NXZ 006c4710 f i uafxcwd:afxinl2.obj
 0002:00162730       ?AfxImageList_BeginDrag@@YGHPAU_IMAGELIST@@HHH@Z 006c4730 f i uafxcwd:afxinl2.obj
 0002:00162770       ?_ImageList_BeginDrag@CComCtlWrapper@@QAEHPAU_IMAGELIST@@HHH@Z 006c4770 f i uafxcwd:afxinl2.obj
 0002:00162910       ??BImageList_BeginDrag_Type@CComCtlWrapper@@QAEP6GHPAU_IMAGELIST@@HHH@ZXZ 006c4910 f i uafxcwd:afxinl2.obj
 0002:00162930       ?GetProcAddress_ImageList_BeginDrag@CComCtlWrapper@@QAE?AUImageList_BeginDrag_Type@1@XZ 006c4930 f i uafxcwd:afxinl2.obj
 0002:001629a0       ??4ImageList_BeginDrag_Type@CComCtlWrapper@@QAEXP6GHPAU_IMAGELIST@@HHH@Z@Z 006c49a0 f i uafxcwd:afxinl2.obj
 0002:001629c0       ??7ImageList_BeginDrag_Type@CComCtlWrapper@@QBE_NXZ 006c49c0 f i uafxcwd:afxinl2.obj
 0002:001629e0       ?AfxImageList_EndDrag@@YGXXZ 006c49e0 f i uafxcwd:afxinl2.obj
 0002:00162a00       ?_ImageList_EndDrag@CComCtlWrapper@@QAEXXZ 006c4a00 f i uafxcwd:afxinl2.obj
 0002:00162b20       ??BImageList_EndDrag_Type@CComCtlWrapper@@QAEP6GXXZXZ 006c4b20 f i uafxcwd:afxinl2.obj
 0002:00162b40       ?GetProcAddress_ImageList_EndDrag@CComCtlWrapper@@QAE?AUImageList_EndDrag_Type@1@XZ 006c4b40 f i uafxcwd:afxinl2.obj
 0002:00162bb0       ??4ImageList_EndDrag_Type@CComCtlWrapper@@QAEXP6GXXZ@Z 006c4bb0 f i uafxcwd:afxinl2.obj
 0002:00162bd0       ??7ImageList_EndDrag_Type@CComCtlWrapper@@QBE_NXZ 006c4bd0 f i uafxcwd:afxinl2.obj
 0002:00162bf0       ?AfxImageList_DragEnter@@YGHPAUHWND__@@HH@Z 006c4bf0 f i uafxcwd:afxinl2.obj
 0002:00162c20       ?_ImageList_DragEnter@CComCtlWrapper@@QAEHPAUHWND__@@HH@Z 006c4c20 f i uafxcwd:afxinl2.obj
 0002:00162dc0       ??BImageList_DragEnter_Type@CComCtlWrapper@@QAEP6GHPAUHWND__@@HH@ZXZ 006c4dc0 f i uafxcwd:afxinl2.obj
 0002:00162de0       ?GetProcAddress_ImageList_DragEnter@CComCtlWrapper@@QAE?AUImageList_DragEnter_Type@1@XZ 006c4de0 f i uafxcwd:afxinl2.obj
 0002:00162e50       ??4ImageList_DragEnter_Type@CComCtlWrapper@@QAEXP6GHPAUHWND__@@HH@Z@Z 006c4e50 f i uafxcwd:afxinl2.obj
 0002:00162e70       ??7ImageList_DragEnter_Type@CComCtlWrapper@@QBE_NXZ 006c4e70 f i uafxcwd:afxinl2.obj
 0002:00162e90       ?AfxImageList_DragLeave@@YGHPAUHWND__@@@Z 006c4e90 f i uafxcwd:afxinl2.obj
 0002:00162ec0       ?_ImageList_DragLeave@CComCtlWrapper@@QAEHPAUHWND__@@@Z 006c4ec0 f i uafxcwd:afxinl2.obj
 0002:00163050       ??BImageList_DragLeave_Type@CComCtlWrapper@@QAEP6GHPAUHWND__@@@ZXZ 006c5050 f i uafxcwd:afxinl2.obj
 0002:00163070       ?GetProcAddress_ImageList_DragLeave@CComCtlWrapper@@QAE?AUImageList_DragLeave_Type@1@XZ 006c5070 f i uafxcwd:afxinl2.obj
 0002:001630e0       ??4ImageList_DragLeave_Type@CComCtlWrapper@@QAEXP6GHPAUHWND__@@@Z@Z 006c50e0 f i uafxcwd:afxinl2.obj
 0002:00163100       ??7ImageList_DragLeave_Type@CComCtlWrapper@@QBE_NXZ 006c5100 f i uafxcwd:afxinl2.obj
 0002:00163120       ?AfxImageList_DragMove@@YGHHH@Z 006c5120 f i uafxcwd:afxinl2.obj
 0002:00163150       ?_ImageList_DragMove@CComCtlWrapper@@QAEHHH@Z 006c5150 f i uafxcwd:afxinl2.obj
 0002:001632e0       ??BImageList_DragMove_Type@CComCtlWrapper@@QAEP6GHHH@ZXZ 006c52e0 f i uafxcwd:afxinl2.obj
 0002:00163300       ?GetProcAddress_ImageList_DragMove@CComCtlWrapper@@QAE?AUImageList_DragMove_Type@1@XZ 006c5300 f i uafxcwd:afxinl2.obj
 0002:00163370       ??4ImageList_DragMove_Type@CComCtlWrapper@@QAEXP6GHHH@Z@Z 006c5370 f i uafxcwd:afxinl2.obj
 0002:00163390       ??7ImageList_DragMove_Type@CComCtlWrapper@@QBE_NXZ 006c5390 f i uafxcwd:afxinl2.obj
 0002:001633b0       ?AfxImageList_SetDragCursorImage@@YGHPAU_IMAGELIST@@HHH@Z 006c53b0 f i uafxcwd:afxinl2.obj
 0002:001633f0       ?_ImageList_SetDragCursorImage@CComCtlWrapper@@QAEHPAU_IMAGELIST@@HHH@Z 006c53f0 f i uafxcwd:afxinl2.obj
 0002:00163590       ??BImageList_SetDragCursorImage_Type@CComCtlWrapper@@QAEP6GHPAU_IMAGELIST@@HHH@ZXZ 006c5590 f i uafxcwd:afxinl2.obj
 0002:001635b0       ?GetProcAddress_ImageList_SetDragCursorImage@CComCtlWrapper@@QAE?AUImageList_SetDragCursorImage_Type@1@XZ 006c55b0 f i uafxcwd:afxinl2.obj
 0002:00163620       ??4ImageList_SetDragCursorImage_Type@CComCtlWrapper@@QAEXP6GHPAU_IMAGELIST@@HHH@Z@Z 006c5620 f i uafxcwd:afxinl2.obj
 0002:00163640       ??7ImageList_SetDragCursorImage_Type@CComCtlWrapper@@QBE_NXZ 006c5640 f i uafxcwd:afxinl2.obj
 0002:00163660       ?AfxImageList_DragShowNolock@@YGHH@Z 006c5660 f i uafxcwd:afxinl2.obj
 0002:00163690       ?_ImageList_DragShowNolock@CComCtlWrapper@@QAEHH@Z 006c5690 f i uafxcwd:afxinl2.obj
 0002:00163820       ??BImageList_DragShowNolock_Type@CComCtlWrapper@@QAEP6GHH@ZXZ 006c5820 f i uafxcwd:afxinl2.obj
 0002:00163840       ?GetProcAddress_ImageList_DragShowNolock@CComCtlWrapper@@QAE?AUImageList_DragShowNolock_Type@1@XZ 006c5840 f i uafxcwd:afxinl2.obj
 0002:001638b0       ??4ImageList_DragShowNolock_Type@CComCtlWrapper@@QAEXP6GHH@Z@Z 006c58b0 f i uafxcwd:afxinl2.obj
 0002:001638d0       ??7ImageList_DragShowNolock_Type@CComCtlWrapper@@QBE_NXZ 006c58d0 f i uafxcwd:afxinl2.obj
 0002:001638f0       ?AfxImageList_GetDragImage@@YGPAU_IMAGELIST@@PAUtagPOINT@@0@Z 006c58f0 f i uafxcwd:afxinl2.obj
 0002:00163920       ?_ImageList_GetDragImage@CComCtlWrapper@@QAEPAU_IMAGELIST@@PAUtagPOINT@@0@Z 006c5920 f i uafxcwd:afxinl2.obj
 0002:00163ac0       ??BImageList_GetDragImage_Type@CComCtlWrapper@@QAEP6GPAU_IMAGELIST@@PAUtagPOINT@@0@ZXZ 006c5ac0 f i uafxcwd:afxinl2.obj
 0002:00163ae0       ?GetProcAddress_ImageList_GetDragImage@CComCtlWrapper@@QAE?AUImageList_GetDragImage_Type@1@XZ 006c5ae0 f i uafxcwd:afxinl2.obj
 0002:00163b50       ??4ImageList_GetDragImage_Type@CComCtlWrapper@@QAEXP6GPAU_IMAGELIST@@PAUtagPOINT@@0@Z@Z 006c5b50 f i uafxcwd:afxinl2.obj
 0002:00163b70       ??7ImageList_GetDragImage_Type@CComCtlWrapper@@QBE_NXZ 006c5b70 f i uafxcwd:afxinl2.obj
 0002:00163b90       ?AfxImageList_GetImageInfo@@YGHPAU_IMAGELIST@@HPAU_IMAGEINFO@@@Z 006c5b90 f i uafxcwd:afxinl2.obj
 0002:00163bc0       ?_ImageList_GetImageInfo@CComCtlWrapper@@QAEHPAU_IMAGELIST@@HPAU_IMAGEINFO@@@Z 006c5bc0 f i uafxcwd:afxinl2.obj
 0002:00163d60       ??BImageList_GetImageInfo_Type@CComCtlWrapper@@QAEP6GHPAU_IMAGELIST@@HPAU_IMAGEINFO@@@ZXZ 006c5d60 f i uafxcwd:afxinl2.obj
 0002:00163d80       ?GetProcAddress_ImageList_GetImageInfo@CComCtlWrapper@@QAE?AUImageList_GetImageInfo_Type@1@XZ 006c5d80 f i uafxcwd:afxinl2.obj
 0002:00163df0       ??4ImageList_GetImageInfo_Type@CComCtlWrapper@@QAEXP6GHPAU_IMAGELIST@@HPAU_IMAGEINFO@@@Z@Z 006c5df0 f i uafxcwd:afxinl2.obj
 0002:00163e10       ??7ImageList_GetImageInfo_Type@CComCtlWrapper@@QBE_NXZ 006c5e10 f i uafxcwd:afxinl2.obj
 0002:00163e30       ?AfxCreateMappedBitmap@@YGPAUHBITMAP__@@PAUHINSTANCE__@@HIPAU_COLORMAP@@H@Z 006c5e30 f i uafxcwd:afxinl2.obj
 0002:00163e70       ?_CreateMappedBitmap@CComCtlWrapper@@QAEPAUHBITMAP__@@PAUHINSTANCE__@@HIPAU_COLORMAP@@H@Z 006c5e70 f i uafxcwd:afxinl2.obj
 0002:00164020       ??BCreateMappedBitmap_Type@CComCtlWrapper@@QAEP6GPAUHBITMAP__@@PAUHINSTANCE__@@HIPAU_COLORMAP@@H@ZXZ 006c6020 f i uafxcwd:afxinl2.obj
 0002:00164040       ?GetProcAddress_CreateMappedBitmap@CComCtlWrapper@@QAE?AUCreateMappedBitmap_Type@1@XZ 006c6040 f i uafxcwd:afxinl2.obj
 0002:001640b0       ??4CreateMappedBitmap_Type@CComCtlWrapper@@QAEXP6GPAUHBITMAP__@@PAUHINSTANCE__@@HIPAU_COLORMAP@@H@Z@Z 006c60b0 f i uafxcwd:afxinl2.obj
 0002:001640d0       ??7CreateMappedBitmap_Type@CComCtlWrapper@@QBE_NXZ 006c60d0 f i uafxcwd:afxinl2.obj
 0002:001640f0       ?AfxWingdixTerm@@YAXXZ     006c60f0 f   uafxcwd:wingdix.obj
 0002:00164110       ?DPtoHIMETRIC@CDC@@QBEXPAUtagSIZE@@@Z 006c6110 f   uafxcwd:wingdix.obj
 0002:00164290       ?HIMETRICtoDP@CDC@@QBEXPAUtagSIZE@@@Z 006c6290 f   uafxcwd:wingdix.obj
 0002:00164410       ?LPtoHIMETRIC@CDC@@QBEXPAUtagSIZE@@@Z 006c6410 f   uafxcwd:wingdix.obj
 0002:00164470       ?HIMETRICtoLP@CDC@@QBEXPAUtagSIZE@@@Z 006c6470 f   uafxcwd:wingdix.obj
 0002:001644d0       ?GetHalftoneBrush@CDC@@SGPAVCBrush@@XZ 006c64d0 f   uafxcwd:wingdix.obj
 0002:001645d0       ?DrawDragRect@CDC@@QAEXPBUtagRECT@@UtagSIZE@@01PAVCBrush@@2@Z 006c65d0 f   uafxcwd:wingdix.obj
 0002:00164a30       ?FillSolidRect@CDC@@QAEXPBUtagRECT@@K@Z 006c6a30 f   uafxcwd:wingdix.obj
 0002:00164b40       ?FillSolidRect@CDC@@QAEXHHHHK@Z 006c6b40 f   uafxcwd:wingdix.obj
 0002:00164bf0       ?Draw3dRect@CDC@@QAEXPBUtagRECT@@KK@Z 006c6bf0 f   uafxcwd:wingdix.obj
 0002:00164c50       ?Draw3dRect@CDC@@QAEXHHHHKK@Z 006c6c50 f   uafxcwd:wingdix.obj
 0002:00164d00       ?CreatePointFont@CFont@@QAEHHPB_WPAVCDC@@@Z 006c6d00 f   uafxcwd:wingdix.obj
 0002:00164db0       ?CreatePointFontIndirect@CFont@@QAEHPBUtagLOGFONTW@@PAVCDC@@@Z 006c6db0 f   uafxcwd:wingdix.obj
 0002:00164f30       ?SetRegistryKey@CWinApp@@IAEXPB_W@Z 006c6f30 f   uafxcwd:appui3.obj
 0002:00165020       ?SetRegistryKey@CWinApp@@IAEXI@Z 006c7020 f   uafxcwd:appui3.obj
 0002:001650d0       ?GetAppRegistryKey@CWinApp@@QAEPAUHKEY__@@XZ 006c70d0 f   uafxcwd:appui3.obj
 0002:00165200       ?GetSectionKey@CWinApp@@QAEPAUHKEY__@@PB_W@Z 006c7200 f   uafxcwd:appui3.obj
 0002:001652a0       ?GetProfileIntW@CWinApp@@QAEIPB_W0H@Z 006c72a0 f   uafxcwd:appui3.obj
 0002:001653f0       ?GetProfileStringW@CWinApp@@QAE?AV?$CStringT@_WV?$StrTraitMFC@_WV?$ChTraitsCRT@_W@ATL@@@@@ATL@@PB_W00@Z 006c73f0 f   uafxcwd:appui3.obj
 0002:00165730       ?GetProfileBinary@CWinApp@@QAEHPB_W0PAPAEPAI@Z 006c7730 f   uafxcwd:appui3.obj
 0002:00165b30       ?WriteProfileInt@CWinApp@@QAEHPB_W0H@Z 006c7b30 f   uafxcwd:appui3.obj
 0002:00165c70       ?WriteProfileStringW@CWinApp@@QAEHPB_W00@Z 006c7c70 f   uafxcwd:appui3.obj
 0002:00165e40       ?WriteProfileBinary@CWinApp@@QAEHPB_W0PAEI@Z 006c7e40 f   uafxcwd:appui3.obj
 0002:00166000       ??0CRegKey@ATL@@QAE@PAUHKEY__@@@Z 006c8000 f i uafxcwd:appui3.obj
 0002:00166030       ??1CRegKey@ATL@@QAE@XZ     006c8030 f i uafxcwd:appui3.obj
 0002:00166050       ?Close@CRegKey@ATL@@QAEJXZ 006c8050 f i uafxcwd:appui3.obj
 0002:001660b0       ?AfxLoadString@@YGHIPADI@Z 006c80b0 f   uafxcwd:winstr.obj
 0002:001661a0       ?AfxLoadString@@YGHIPA_WI@Z 006c81a0 f   uafxcwd:winstr.obj
 0002:001662c0       ?AfxFindStringResourceHandle@@YGPAUHINSTANCE__@@I@Z 006c82c0 f   uafxcwd:winstr.obj
 0002:001662e0       ?AfxExtractSubString@@YGHAAV?$CStringT@_WV?$StrTraitMFC@_WV?$ChTraitsCRT@_W@ATL@@@@@ATL@@PB_WH_W@Z 006c82e0 f   uafxcwd:winstr.obj
 0002:00166400       ?GetRuntimeClass@CObject@@UBEPAUCRuntimeClass@@XZ 006c8400 f   uafxcwd:objcore.obj
 0002:00166420       ?IsKindOf@CObject@@QBEHPBUCRuntimeClass@@@Z 006c8420 f   uafxcwd:objcore.obj
 0002:00166500       ?AfxDynamicDownCast@@YAPAVCObject@@PAUCRuntimeClass@@PAV1@@Z 006c8500 f   uafxcwd:objcore.obj
 0002:00166530       ?AfxStaticDownCast@@YAPAVCObject@@PAUCRuntimeClass@@PAV1@@Z 006c8530 f   uafxcwd:objcore.obj
 0002:00166570       ?AfxAssertValidObject@@YGXPBVCObject@@PBDH@Z 006c8570 f   uafxcwd:objcore.obj
 0002:00166730       ?AssertValid@CObject@@UBEXXZ 006c8730 f   uafxcwd:objcore.obj
 0002:00166760       ?Dump@CObject@@UBEXAAVCDumpContext@@@Z 006c8760 f   uafxcwd:objcore.obj
 0002:001667d0       ?CreateObject@CRuntimeClass@@QAEPAVCObject@@XZ 006c87d0 f   uafxcwd:objcore.obj
 0002:00166940       ?IsSerializable@CObject@@QBEHXZ 006c8940 f   uafxcwd:objcore.obj
 0002:00166970       ?AfxClassInit@@YGXPAUCRuntimeClass@@@Z 006c8970 f   uafxcwd:objcore.obj
 0002:001669b0       ?IsDerivedFrom@CRuntimeClass@@QBEHPBU1@@Z 006c89b0 f   uafxcwd:objcore.obj
 0002:00166ae0       ?AfxDoForAllClasses@@YGXP6AXPBUCRuntimeClass@@PAX@Z1@Z 006c8ae0 f   uafxcwd:objcore.obj
 0002:00166b50       ?AddHead@?$CTypedSimpleList@PAUCRuntimeClass@@@@QAEXPAUCRuntimeClass@@@Z 006c8b50 f i uafxcwd:objcore.obj
 0002:00166b80       ??B?$CTypedSimpleList@PAUCRuntimeClass@@@@QAEPAUCRuntimeClass@@XZ 006c8b80 f i uafxcwd:objcore.obj
 0002:00166ba0       ?GetHead@CSimpleList@@QBEPAXXZ 006c8ba0 f i uafxcwd:objcore.obj
 0002:00166bc0       ?AfxAssertFailedLine@@YGHPBDH@Z 006c8bc0 f   uafxcwd:afxasert.obj
 0002:00166c30       ?AfxReadStringLength@@YGIAAVCArchive@@AAH@Z 006c8c30 f   uafxcwd:arccore.obj
 0002:00166d40       ?AfxWriteStringLength@@YGXAAVCArchive@@IH@Z 006c8d40 f   uafxcwd:arccore.obj
 0002:00166e40       ?CreateObject@CRuntimeClass@@SGPAVCObject@@PBD@Z 006c8e40 f   uafxcwd:arccore.obj
 0002:00166f00       ?CreateObject@CRuntimeClass@@SGPAVCObject@@PB_W@Z 006c8f00 f   uafxcwd:arccore.obj
 0002:00166fb0       ?FromName@CRuntimeClass@@SGPAU1@PBD@Z 006c8fb0 f   uafxcwd:arccore.obj
 0002:00167080       ?FromName@CRuntimeClass@@SGPAU1@PB_W@Z 006c9080 f   uafxcwd:arccore.obj
 0002:00167140       ?Load@CRuntimeClass@@SGPAU1@AAVCArchive@@PAI@Z 006c9140 f   uafxcwd:arccore.obj
 0002:00167240       ?Store@CRuntimeClass@@QBEXAAVCArchive@@@Z 006c9240 f   uafxcwd:arccore.obj
 0002:001672b0       ??0CArchive@@QAE@PAVCFile@@IHPAX@Z 006c92b0 f   uafxcwd:arccore.obj
 0002:00167610       ??1CArchive@@QAE@XZ        006c9610 f   uafxcwd:arccore.obj
 0002:001676b0       ?Abort@CArchive@@QAEXXZ    006c96b0 f   uafxcwd:arccore.obj
 0002:00167920       ?Close@CArchive@@QAEXXZ    006c9920 f   uafxcwd:arccore.obj
 0002:00167970       ?Read@CArchive@@QAEIPAXI@Z 006c9970 f   uafxcwd:arccore.obj
 0002:00167ef0       ?Write@CArchive@@QAEXPBXI@Z 006c9ef0 f   uafxcwd:arccore.obj
 0002:00168330       ?Flush@CArchive@@QAEXXZ    006ca330 f   uafxcwd:arccore.obj
 0002:00168600       ?FillBuffer@CArchive@@QAEXI@Z 006ca600 f   uafxcwd:arccore.obj
 0002:00168a50       ?WriteCount@CArchive@@QAEXK@Z 006caa50 f   uafxcwd:arccore.obj
 0002:00168aa0       ?ReadCount@CArchive@@QAEKXZ 006caaa0 f   uafxcwd:arccore.obj
 0002:00168af0       ?WriteString@CArchive@@QAEXPB_W@Z 006caaf0 f   uafxcwd:arccore.obj
 0002:00168b50       ?ReadString@CArchive@@QAEPA_WPA_WI@Z 006cab50 f   uafxcwd:arccore.obj
 0002:00168d70       ?ReadString@CArchive@@QAEHAAV?$CStringT@_WV?$StrTraitMFC@_WV?$ChTraitsCRT@_W@ATL@@@@@ATL@@@Z 006cad70 f   uafxcwd:arccore.obj
 0002:00168ea0       ??0?$CStringT@DV?$StrTraitMFC@DV?$ChTraitsCRT@D@ATL@@@@@ATL@@QAE@PB_W@Z 006caea0 f i uafxcwd:arccore.obj
 0002:00168f40       ?CheckImplicitLoad@?$CStringT@DV?$StrTraitMFC@DV?$ChTraitsCRT@D@ATL@@@@@ATL@@AAE_NPBX@Z 006caf40 f i uafxcwd:arccore.obj
 0002:00168fe0       ?LoadStringW@?$CStringT@DV?$StrTraitMFC@DV?$ChTraitsCRT@D@ATL@@@@@ATL@@QAEHI@Z 006cafe0 f i uafxcwd:arccore.obj
 0002:00169030       ?LoadStringW@?$CStringT@DV?$StrTraitMFC@DV?$ChTraitsCRT@D@ATL@@@@@ATL@@QAEHPAUHINSTANCE__@@I@Z 006cb030 f i uafxcwd:arccore.obj
 0002:001690e0       ?FindStringResourceInstance@?$StrTraitMFC@DV?$ChTraitsCRT@D@ATL@@@@SAPAUHINSTANCE__@@I@Z 006cb0e0 f i uafxcwd:arccore.obj
 0002:00169100       ??4?$CStringT@DV?$StrTraitMFC@DV?$ChTraitsCRT@D@ATL@@@@@ATL@@QAEAAV01@PB_W@Z 006cb100 f i uafxcwd:arccore.obj
 0002:001691a0       ?GetBaseTypeLength@?$ChTraitsCRT@D@ATL@@SAHPB_W@Z 006cb1a0 f i uafxcwd:arccore.obj
 0002:001691d0       ?OutputString@CDumpContext@@IAEXPB_W@Z 006cb1d0 f   uafxcwd:dumpcont.obj
 0002:00169290       ??0CDumpContext@@QAE@PAVCFile@@@Z 006cb290 f   uafxcwd:dumpcont.obj
 0002:001692e0       ?Flush@CDumpContext@@QAEXXZ 006cb2e0 f   uafxcwd:dumpcont.obj
 0002:00169320       ??6CDumpContext@@QAEAAV0@PB_W@Z 006cb320 f   uafxcwd:dumpcont.obj
 0002:001694c0       ??6CDumpContext@@QAEAAV0@E@Z 006cb4c0 f   uafxcwd:dumpcont.obj
 0002:00169520       ?DumpAsHex@CDumpContext@@QAEAAV1@E@Z 006cb520 f   uafxcwd:dumpcont.obj
 0002:00169580       ??6CDumpContext@@QAEAAV0@G@Z 006cb580 f   uafxcwd:dumpcont.obj
 0002:001695e0       ?DumpAsHex@CDumpContext@@QAEAAV1@G@Z 006cb5e0 f   uafxcwd:dumpcont.obj
 0002:00169640       ??6CDumpContext@@QAEAAV0@I@Z 006cb640 f   uafxcwd:dumpcont.obj
 0002:001696a0       ??6CDumpContext@@QAEAAV0@J@Z 006cb6a0 f   uafxcwd:dumpcont.obj
 0002:00169700       ??6CDumpContext@@QAEAAV0@K@Z 006cb700 f   uafxcwd:dumpcont.obj
 0002:00169760       ??6CDumpContext@@QAEAAV0@H@Z 006cb760 f   uafxcwd:dumpcont.obj
 0002:001697c0       ?DumpAsHex@CDumpContext@@QAEAAV1@I@Z 006cb7c0 f   uafxcwd:dumpcont.obj
 0002:00169820       ?DumpAsHex@CDumpContext@@QAEAAV1@J@Z 006cb820 f   uafxcwd:dumpcont.obj
 0002:00169880       ?DumpAsHex@CDumpContext@@QAEAAV1@K@Z 006cb880 f   uafxcwd:dumpcont.obj
 0002:001698e0       ?DumpAsHex@CDumpContext@@QAEAAV1@H@Z 006cb8e0 f   uafxcwd:dumpcont.obj
 0002:00169940       ??6CDumpContext@@QAEAAV0@_J@Z 006cb940 f   uafxcwd:dumpcont.obj
 0002:001699b0       ??6CDumpContext@@QAEAAV0@_K@Z 006cb9b0 f   uafxcwd:dumpcont.obj
 0002:00169a20       ?DumpAsHex@CDumpContext@@QAEAAV1@_J@Z 006cba20 f   uafxcwd:dumpcont.obj
 0002:00169a90       ?DumpAsHex@CDumpContext@@QAEAAV1@_K@Z 006cba90 f   uafxcwd:dumpcont.obj
 0002:00169b00       ??6CDumpContext@@QAEAAV0@PBVCObject@@@Z 006cbb00 f   uafxcwd:dumpcont.obj
 0002:00169b50       ??6CDumpContext@@QAEAAV0@ABVCObject@@@Z 006cbb50 f   uafxcwd:dumpcont.obj
 0002:00169b80       ??6CDumpContext@@QAEAAV0@PBX@Z 006cbb80 f   uafxcwd:dumpcont.obj
 0002:00169be0       ??6CDumpContext@@QAEAAV0@PAUHWND__@@@Z 006cbbe0 f   uafxcwd:dumpcont.obj
 0002:00169c10       ??6CDumpContext@@QAEAAV0@PAUHDC__@@@Z 006cbc10 f   uafxcwd:dumpcont.obj
 0002:00169c40       ??6CDumpContext@@QAEAAV0@PAUHMENU__@@@Z 006cbc40 f   uafxcwd:dumpcont.obj
 0002:00169c70       ??6CDumpContext@@QAEAAV0@PAUHACCEL__@@@Z 006cbc70 f   uafxcwd:dumpcont.obj
 0002:00169ca0       ??6CDumpContext@@QAEAAV0@PAUHFONT__@@@Z 006cbca0 f   uafxcwd:dumpcont.obj
 0002:00169cd0       ?HexDump@CDumpContext@@QAEXPB_WPAEHH@Z 006cbcd0 f   uafxcwd:dumpcont.obj
 0002:00169ec0       ??6CDumpContext@@QAEAAV0@PBD@Z 006cbec0 f   uafxcwd:dumpcont.obj
 0002:00169f60       ?_mbstowcsz@ATL@@YAHPA_WPBDK@Z 006cbf60 f i uafxcwd:dumpcont.obj
 0002:0016a050       ?AfxIsValidString@@YGHPB_WH@Z 006cc050 f   uafxcwd:validadd.obj
 0002:0016a070       ?AfxIsValidString@@YGHPBDH@Z 006cc070 f   uafxcwd:validadd.obj
 0002:0016a090       ?AfxIsValidAddress@@YGHPBXIH@Z 006cc090 f   uafxcwd:validadd.obj
 0002:0016a0c0       ?AfxIsValidAtom@@YAHG@Z    006cc0c0 f   uafxcwd:validadd.obj
 0002:0016a1b0       ?AfxIsValidAtom@@YAHPB_W@Z 006cc1b0 f   uafxcwd:validadd.obj
 0002:0016a210       ?AtlIsValidString@ATL@@YAHPBDI@Z 006cc210 f i uafxcwd:validadd.obj
 0002:0016a230       ?CreateControl@CWnd@@QAEHPB_W0KABUtagRECT@@PAV1@IPAVCFile@@HPA_W@Z 006cc230 f   uafxcwd:occcont.obj
 0002:0016a2e0       ?CreateControl@CWnd@@QAEHABU_GUID@@PB_WKABUtagRECT@@PAV1@IPAVCFile@@HPA_W@Z 006cc2e0 f   uafxcwd:occcont.obj
 0002:0016a390       ?CreateControl@CWnd@@QAEHABU_GUID@@PB_WKPBUtagPOINT@@PBUtagSIZE@@PAV1@IPAVCFile@@HPA_W@Z 006cc390 f   uafxcwd:occcont.obj
 0002:0016a4a0       ?CreateControl@CWnd@@QAEHABVCControlCreationInfo@@KPBUtagPOINT@@PBUtagSIZE@@PAV1@I@Z 006cc4a0 f   uafxcwd:occcont.obj
 0002:0016a5a0       ?InitControlContainer@CWnd@@IAEHH@Z 006cc5a0 f   uafxcwd:occcont.obj
 0002:0016a790       ?GetInterfaceMap@COleControlContainer@@MBEPBUAFX_INTERFACEMAP@@XZ 006cc790 f   uafxcwd:occcont.obj
 0002:0016a7b0       ?GetDispatchMap@COleControlContainer@@MBEPBUAFX_DISPMAP@@XZ 006cc7b0 f   uafxcwd:occcont.obj
 0002:0016a7d0       ??0COleControlSiteOrWnd@@QAE@XZ 006cc7d0 f   uafxcwd:occcont.obj
 0002:0016a810       ??0COleControlSiteOrWnd@@QAE@PAVCOleControlSite@@@Z 006cc810 f   uafxcwd:occcont.obj
 0002:0016a850       ??0COleControlSiteOrWnd@@QAE@PAUHWND__@@H@Z 006cc850 f   uafxcwd:occcont.obj
 0002:0016a890       ??1COleControlSiteOrWnd@@QAE@XZ 006cc890 f   uafxcwd:occcont.obj
 0002:0016a8e0       ??0COleControlContainer@@QAE@PAVCWnd@@@Z 006cc8e0 f   uafxcwd:occcont.obj
 0002:0016aa00       ??_GCOleControlContainer@@UAEPAXI@Z 006cca00 f i uafxcwd:occcont.obj
 0002:0016aa00       ??_ECOleControlContainer@@UAEPAXI@Z 006cca00 f i uafxcwd:occcont.obj
 0002:0016aa40       ??0XOleIPFrame@COleControlContainer@@QAE@XZ 006cca40 f i uafxcwd:occcont.obj
 0002:0016aa70       ??0XOleContainer@COleControlContainer@@QAE@XZ 006cca70 f i uafxcwd:occcont.obj
 0002:0016aaa0       ??0IOleInPlaceFrame@@QAE@XZ 006ccaa0 f i uafxcwd:occcont.obj
 0002:0016aac0       ??0IOleContainer@@QAE@XZ   006ccac0 f i uafxcwd:occcont.obj
 0002:0016aae0       ??0IOleInPlaceUIWindow@@QAE@XZ 006ccae0 f i uafxcwd:occcont.obj
 0002:0016ab00       ??0IParseDisplayName@@QAE@XZ 006ccb00 f i uafxcwd:occcont.obj
 0002:0016ab20       ??1COleControlContainer@@UAE@XZ 006ccb20 f   uafxcwd:occcont.obj
 0002:0016ada0       ??1?$CComPtr@UIUnknown@@@ATL@@QAE@XZ 006ccda0 f i uafxcwd:occcont.obj
 0002:0016adc0       ??1?$CTypedPtrList@VCPtrList@@PAUCOleControlSiteOrWnd@@@@UAE@XZ 006ccdc0 f i uafxcwd:occcont.obj
 0002:0016ade0       ??1?$_CTypedPtrList@VCPtrList@@PAUCOleControlSiteOrWnd@@@@UAE@XZ 006ccde0 f i uafxcwd:occcont.obj
 0002:0016ae00       ??_GCOleControlSiteOrWnd@@QAEPAXI@Z 006cce00 f i uafxcwd:occcont.obj
 0002:0016ae40       ?BroadcastAmbientPropertyChange@COleControlContainer@@UAEXJ@Z 006cce40 f   uafxcwd:occcont.obj
 0002:0016af30       ?CreateControl@COleControlContainer@@QAEHPAVCWnd@@ABU_GUID@@PB_WKABUtagRECT@@IPAVCFile@@HPA_WPAPAVCOleControlSite@@@Z 006ccf30 f   uafxcwd:occcont.obj
 0002:0016afe0       ?CreateControl@COleControlContainer@@QAEHPAVCWnd@@ABVCControlCreationInfo@@KPBUtagPOINT@@PBUtagSIZE@@I@Z 006ccfe0 f   uafxcwd:occcont.obj
 0002:0016b030       ?CreateControlCommon@COleControlContainer@@QAEHPAVCWnd@@ABU_GUID@@ABVCControlCreationInfo@@PB_WKPBUtagPOINT@@PBUtagSIZE@@IPAVCFile@@HPA_WPAPAVCOleControlSite@@@Z 006cd030 f   uafxcwd:occcont.obj
 0002:0016b3b0       ?CreateControl@COleControlContainer@@QAEHPAVCWnd@@ABU_GUID@@PB_WKPBUtagPOINT@@PBUtagSIZE@@IPAVCFile@@HPA_WPAPAVCOleControlSite@@@Z 006cd3b0 f   uafxcwd:occcont.obj
 0002:0016b450       ?FindItem@COleControlContainer@@UBEPAVCOleControlSite@@I@Z 006cd450 f   uafxcwd:occcont.obj
 0002:0016b520       ?GetAmbientProp@COleControlContainer@@UAEHPAVCOleControlSite@@JPAUtagVARIANT@@@Z 006cd520 f   uafxcwd:occcont.obj
 0002:0016b8e0       ?CreateOleFont@COleControlContainer@@QAEXPAVCFont@@@Z 006cd8e0 f   uafxcwd:occcont.obj
 0002:0016bb80       ?FreezeAllEvents@COleControlContainer@@QAEXH@Z 006cdb80 f   uafxcwd:occcont.obj
 0002:0016bc10       ?ScrollChildren@COleControlContainer@@UAEXHH@Z 006cdc10 f   uafxcwd:occcont.obj
 0002:0016bd50       ?OnUIActivate@COleControlContainer@@UAEXPAVCOleControlSite@@@Z 006cdd50 f   uafxcwd:occcont.obj
 0002:0016bdb0       ?OnUIDeactivate@COleControlContainer@@UAEXPAVCOleControlSite@@@Z 006cddb0 f   uafxcwd:occcont.obj
 0002:0016be00       ?CheckDlgButton@COleControlContainer@@UAEXHI@Z 006cde00 f   uafxcwd:occcont.obj
 0002:0016be90       ?CheckRadioButton@COleControlContainer@@UAEXHHH@Z 006cde90 f   uafxcwd:occcont.obj
 0002:0016bf40       ?GetDlgItem@COleControlContainer@@UBEPAVCWnd@@H@Z 006cdf40 f   uafxcwd:occcont.obj
 0002:0016bf80       ?GetDlgItem@COleControlContainer@@UBEXHPAPAUHWND__@@@Z 006cdf80 f   uafxcwd:occcont.obj
 0002:0016c000       ?GetDlgItemInt@COleControlContainer@@UBEIHPAHH@Z 006ce000 f   uafxcwd:occcont.obj
 0002:0016c160       ?GetDlgItemTextW@COleControlContainer@@UBEHHPA_WH@Z 006ce160 f   uafxcwd:occcont.obj
 0002:0016c1b0       ?SendDlgItemMessageW@COleControlContainer@@UAEJHIIJ@Z 006ce1b0 f   uafxcwd:occcont.obj
 0002:0016c210       ?SetDlgItemInt@COleControlContainer@@UAEXHIH@Z 006ce210 f   uafxcwd:occcont.obj
 0002:0016c2a0       ?ltot_s@Checked@ATL@@YAXJPA_WIH@Z 006ce2a0 f i uafxcwd:occcont.obj
 0002:0016c2e0       ?ultot_s@Checked@ATL@@YAXKPA_WIH@Z 006ce2e0 f i uafxcwd:occcont.obj
 0002:0016c320       ?SetDlgItemTextW@COleControlContainer@@UAEXHPB_W@Z 006ce320 f   uafxcwd:occcont.obj
 0002:0016c370       ?IsDlgButtonChecked@COleControlContainer@@UBEIH@Z 006ce370 f   uafxcwd:occcont.obj
 0002:0016c4b0       ?HandleSetFocus@COleControlContainer@@UAEHXZ 006ce4b0 f   uafxcwd:occcont.obj
 0002:0016c4e0       ?HandleWindowlessMessage@COleControlContainer@@UAEHIIJPAJ@Z 006ce4e0 f   uafxcwd:occcont.obj
 0002:0016c9a0       ?OnPaint@COleControlContainer@@UAEHPAVCDC@@@Z 006ce9a0 f   uafxcwd:occcont.obj
 0002:0016cad0       ?AfxGetDlgItemStartFromHWND@@YAPAUHWND__@@HPAU1@@Z 006cead0 f   uafxcwd:occcont.obj
 0002:0016cb20       ?FillListSitesOrWnds@COleControlContainer@@UAEHPAU_AFX_OCC_DIALOG_INFO@@@Z 006ceb20 f   uafxcwd:occcont.obj
 0002:0016ce90       ?QueryInterface@XOleIPFrame@COleControlContainer@@UAGJABU_GUID@@PAPAX@Z 006cee90 f   uafxcwd:occcont.obj
 0002:0016cec0       ?AddRef@XOleIPFrame@COleControlContainer@@UAGKXZ 006ceec0 f   uafxcwd:occcont.obj
 0002:0016cef0       ?Release@XOleIPFrame@COleControlContainer@@UAGKXZ 006ceef0 f   uafxcwd:occcont.obj
 0002:0016cf20       ?GetWindow@XOleIPFrame@COleControlContainer@@UAGJPAPAUHWND__@@@Z 006cef20 f   uafxcwd:occcont.obj
 0002:0016cf50       ?ContextSensitiveHelp@XOleIPFrame@COleControlContainer@@UAGJH@Z 006cef50 f   uafxcwd:occcont.obj
 0002:0016cf70       ?GetBorder@XOleIPFrame@COleControlContainer@@UAGJPAUtagRECT@@@Z 006cef70 f   uafxcwd:occcont.obj
 0002:0016cf90       ?RequestBorderSpace@XOleIPFrame@COleControlContainer@@UAGJPBUtagRECT@@@Z 006cef90 f   uafxcwd:occcont.obj
 0002:0016cfb0       ?SetBorderSpace@XOleIPFrame@COleControlContainer@@UAGJPBUtagRECT@@@Z 006cefb0 f   uafxcwd:occcont.obj
 0002:0016cfd0       ?SetActiveObject@XOleIPFrame@COleControlContainer@@UAGJPAUIOleInPlaceActiveObject@@PB_W@Z 006cefd0 f   uafxcwd:occcont.obj
 0002:0016d050       ?InsertMenus@XOleIPFrame@COleControlContainer@@UAGJPAUHMENU__@@PAUtagOleMenuGroupWidths@@@Z 006cf050 f   uafxcwd:occcont.obj
 0002:0016d070       ?SetMenu@XOleIPFrame@COleControlContainer@@UAGJPAUHMENU__@@PAXPAUHWND__@@@Z 006cf070 f   uafxcwd:occcont.obj
 0002:0016d090       ?RemoveMenus@XOleIPFrame@COleControlContainer@@UAGJPAUHMENU__@@@Z 006cf090 f   uafxcwd:occcont.obj
 0002:0016d0b0       ?SetStatusText@XOleIPFrame@COleControlContainer@@UAGJPB_W@Z 006cf0b0 f   uafxcwd:occcont.obj
 0002:0016d0d0       ?EnableModeless@XOleIPFrame@COleControlContainer@@UAGJH@Z 006cf0d0 f   uafxcwd:occcont.obj
 0002:0016d0e0       ?TranslateAcceleratorW@XOleIPFrame@COleControlContainer@@UAGJPAUtagMSG@@G@Z 006cf0e0 f   uafxcwd:occcont.obj
 0002:0016d100       ?GetInterfaceMap@CEnumUnknown@@MBEPBUAFX_INTERFACEMAP@@XZ 006cf100 f   uafxcwd:occcont.obj
 0002:0016d120       ??1CEnumUnknown@@UAE@XZ    006cf120 f   uafxcwd:occcont.obj
 0002:0016d220       ??_GCEnumUnknown@@UAEPAXI@Z 006cf220 f i uafxcwd:occcont.obj
 0002:0016d220       ??_ECEnumUnknown@@UAEPAXI@Z 006cf220 f i uafxcwd:occcont.obj
 0002:0016d260       ?OnNext@CEnumUnknown@@MAEHPAX@Z 006cf260 f   uafxcwd:occcont.obj
 0002:0016d2d0       ?QueryInterface@XOleContainer@COleControlContainer@@UAGJABU_GUID@@PAPAX@Z 006cf2d0 f   uafxcwd:occcont.obj
 0002:0016d300       ?Release@XOleContainer@COleControlContainer@@UAGKXZ 006cf300 f   uafxcwd:occcont.obj
 0002:0016d330       ?AddRef@XOleContainer@COleControlContainer@@UAGKXZ 006cf330 f   uafxcwd:occcont.obj
 0002:0016d360       ?ParseDisplayName@XOleContainer@COleControlContainer@@UAGJPAUIBindCtx@@PA_WPAKPAPAUIMoniker@@@Z 006cf360 f   uafxcwd:occcont.obj
 0002:0016d380       ?EnumObjects@XOleContainer@COleControlContainer@@UAGJKPAPAUIEnumUnknown@@@Z 006cf380 f   uafxcwd:occcont.obj
 0002:0016d720       ??0CEnumUnknown@@QAE@PBXI@Z 006cf720 f i uafxcwd:occcont.obj
 0002:0016d760       ?LockContainer@XOleContainer@COleControlContainer@@UAGJH@Z 006cf760 f   uafxcwd:occcont.obj
 0002:0016d780       ??0CControlCreationInfo@@QAE@XZ 006cf780 f   uafxcwd:occcont.obj
 0002:0016d7b0       ?IsManaged@CControlCreationInfo@@QBEHXZ 006cf7b0 f   uafxcwd:occcont.obj
 0002:0016d820       ??0?$CComPtr@UIUnknown@@@ATL@@QAE@H@Z 006cf820 f i uafxcwd:occcont.obj
 0002:0016d850       ??0?$CTypedPtrList@VCPtrList@@PAUCOleControlSiteOrWnd@@@@QAE@H@Z 006cf850 f i uafxcwd:occcont.obj
 0002:0016d880       ?AddTail@?$CTypedPtrList@VCPtrList@@PAUCOleControlSiteOrWnd@@@@QAEPAU__POSITION@@PAUCOleControlSiteOrWnd@@@Z 006cf880 f i uafxcwd:occcont.obj
 0002:0016d8b0       ?TransferAddTail@?$CTypedPtrList@VCPtrList@@PAUCOleControlSiteOrWnd@@@@QAEPAU__POSITION@@PAUCOleControlSiteOrWnd@@@Z 006cf8b0 f i uafxcwd:occcont.obj
 0002:0016d980       ?RemoveHead@?$_CTypedPtrList@VCPtrList@@PAUCOleControlSiteOrWnd@@@@QAEPAUCOleControlSiteOrWnd@@XZ 006cf980 f i uafxcwd:occcont.obj
 0002:0016d9a0       ?TransferInsertBefore@?$_CTypedPtrList@VCPtrList@@PAUCOleControlSiteOrWnd@@@@QAEPAU__POSITION@@PAU2@PAUCOleControlSiteOrWnd@@@Z 006cf9a0 f i uafxcwd:occcont.obj
 0002:0016da80       ??_G?$CTypedPtrList@VCPtrList@@PAUCOleControlSiteOrWnd@@@@UAEPAXI@Z 006cfa80 f i uafxcwd:occcont.obj
 0002:0016da80       ??_E?$CTypedPtrList@VCPtrList@@PAUCOleControlSiteOrWnd@@@@UAEPAXI@Z 006cfa80 f i uafxcwd:occcont.obj
 0002:0016dac0       ??0?$CComPtrBase@UIUnknown@@@ATL@@IAE@H@Z 006cfac0 f i uafxcwd:occcont.obj
 0002:0016db10       ??0?$_CTypedPtrList@VCPtrList@@PAUCOleControlSiteOrWnd@@@@QAE@H@Z 006cfb10 f i uafxcwd:occcont.obj
 0002:0016db40       ??_G?$_CTypedPtrList@VCPtrList@@PAUCOleControlSiteOrWnd@@@@UAEPAXI@Z 006cfb40 f i uafxcwd:occcont.obj
 0002:0016db40       ??_E?$_CTypedPtrList@VCPtrList@@PAUCOleControlSiteOrWnd@@@@UAEPAXI@Z 006cfb40 f i uafxcwd:occcont.obj
 0002:0016db80       ??1?$CComPtrBase@UIUnknown@@@ATL@@QAE@XZ 006cfb80 f i uafxcwd:occcont.obj
 0002:0016dbb0       ??B?$CComPtrBase@UIUnknown@@@ATL@@QBEPAUIUnknown@@XZ 006cfbb0 f i uafxcwd:occcont.obj
 0002:0016dbd0       ??I?$CComPtrBase@UIUnknown@@@ATL@@QAEPAPAUIUnknown@@XZ 006cfbd0 f i uafxcwd:occcont.obj
 0002:0016dc20       ??0CFileDialog@@QAE@HPB_W0K0PAVCWnd@@KH@Z 006cfc20 f   uafxcwd:dlgfile.obj
 0002:0016e310       ??_GCFileDialog@@UAEPAXI@Z 006d0310 f i uafxcwd:dlgfile.obj
 0002:0016e310       ??_ECFileDialog@@UAEPAXI@Z 006d0310 f i uafxcwd:dlgfile.obj
 0002:0016e350       ??0XFileDialogEvents@CFileDialog@@QAE@XZ 006d0350 f i uafxcwd:dlgfile.obj
 0002:0016e380       ??0XFileDialogControlEvents@CFileDialog@@QAE@XZ 006d0380 f i uafxcwd:dlgfile.obj
 0002:0016e3b0       ??0IFileDialogEvents@@QAE@XZ 006d03b0 f i uafxcwd:dlgfile.obj
 0002:0016e3d0       ??0IFileDialogControlEvents@@QAE@XZ 006d03d0 f i uafxcwd:dlgfile.obj
 0002:0016e3f0       ??1CFileDialog@@UAE@XZ     006d03f0 f   uafxcwd:dlgfile.obj
 0002:0016e5a0       ?wcschr@@YAPA_WPA_W_W@Z    006d05a0 f i uafxcwd:dlgfile.obj
 0002:0016e5c0       ?GetOFN@CFileDialog@@QBEABUtagOFNW@@XZ 006d05c0 f   uafxcwd:dlgfile.obj
 0002:0016e5e0       ?GetOFN@CFileDialog@@QAEAAUtagOFNW@@XZ 006d05e0 f   uafxcwd:dlgfile.obj
 0002:0016e600       ?UpdateOFNFromShellDialog@CFileDialog@@QAEXXZ 006d0600 f   uafxcwd:dlgfile.obj
 0002:0016ed20       ?ApplyOFNToShellDialog@CFileDialog@@QAEXXZ 006d0d20 f   uafxcwd:dlgfile.obj
 0002:0016fce0       ?GetIFileOpenDialog@CFileDialog@@QAEPAUIFileOpenDialog@@XZ 006d1ce0 f   uafxcwd:dlgfile.obj
 0002:0016fd70       ?GetIFileSaveDialog@CFileDialog@@QAEPAUIFileSaveDialog@@XZ 006d1d70 f   uafxcwd:dlgfile.obj
 0002:0016fe00       ?GetIFileDialogCustomize@CFileDialog@@QAEPAUIFileDialogCustomize@@XZ 006d1e00 f   uafxcwd:dlgfile.obj
 0002:0016fe90       ?GetInterfaceMap@CFileDialog@@MBEPBUAFX_INTERFACEMAP@@XZ 006d1e90 f   uafxcwd:dlgfile.obj
 0002:0016feb0       ?AddRef@XFileDialogEvents@CFileDialog@@UAGKXZ 006d1eb0 f   uafxcwd:dlgfile.obj
 0002:0016ff10       ?Release@XFileDialogEvents@CFileDialog@@UAGKXZ 006d1f10 f   uafxcwd:dlgfile.obj
 0002:0016ff70       ?QueryInterface@XFileDialogEvents@CFileDialog@@UAGJABU_GUID@@PAPAX@Z 006d1f70 f   uafxcwd:dlgfile.obj
 0002:0016ffd0       ?OnFileOk@XFileDialogEvents@CFileDialog@@UAGJPAUIFileDialog@@@Z 006d1fd0 f   uafxcwd:dlgfile.obj
 0002:00170040       ?OnFolderChange@XFileDialogEvents@CFileDialog@@UAGJPAUIFileDialog@@@Z 006d2040 f   uafxcwd:dlgfile.obj
 0002:001700b0       ?OnFolderChanging@XFileDialogEvents@CFileDialog@@UAGJPAUIFileDialog@@PAUIShellItem@@@Z 006d20b0 f   uafxcwd:dlgfile.obj
 0002:00170100       ?OnHelp@XFileDialogEvents@CFileDialog@@UAGJPAUIFileDialog@@@Z 006d2100 f   uafxcwd:dlgfile.obj
 0002:00170150       ?OnSelectionChange@XFileDialogEvents@CFileDialog@@UAGJPAUIFileDialog@@@Z 006d2150 f   uafxcwd:dlgfile.obj
 0002:001701c0       ?OnTypeChange@XFileDialogEvents@CFileDialog@@UAGJPAUIFileDialog@@@Z 006d21c0 f   uafxcwd:dlgfile.obj
 0002:00170270       ?OnOverwrite@XFileDialogEvents@CFileDialog@@UAGJPAUIFileDialog@@PAUIShellItem@@PAW4tagFDE_OVERWRITE_RESPONSE@@@Z 006d2270 f   uafxcwd:dlgfile.obj
 0002:001702c0       ?OnShareViolation@XFileDialogEvents@CFileDialog@@UAGJPAUIFileDialog@@PAUIShellItem@@PAW4tagFDE_SHAREVIOLATION_RESPONSE@@@Z 006d22c0 f   uafxcwd:dlgfile.obj
 0002:00170490       ?AddRef@XFileDialogControlEvents@CFileDialog@@UAGKXZ 006d2490 f   uafxcwd:dlgfile.obj
 0002:001704f0       ?Release@XFileDialogControlEvents@CFileDialog@@UAGKXZ 006d24f0 f   uafxcwd:dlgfile.obj
 0002:00170550       ?QueryInterface@XFileDialogControlEvents@CFileDialog@@UAGJABU_GUID@@PAPAX@Z 006d2550 f   uafxcwd:dlgfile.obj
 0002:001705f0       ?OnItemSelected@XFileDialogControlEvents@CFileDialog@@UAGJPAUIFileDialogCustomize@@KK@Z 006d25f0 f   uafxcwd:dlgfile.obj
 0002:00170640       ?OnButtonClicked@XFileDialogControlEvents@CFileDialog@@UAGJPAUIFileDialogCustomize@@K@Z 006d2640 f   uafxcwd:dlgfile.obj
 0002:00170690       ?OnCheckButtonToggled@XFileDialogControlEvents@CFileDialog@@UAGJPAUIFileDialogCustomize@@KH@Z 006d2690 f   uafxcwd:dlgfile.obj
 0002:001706e0       ?OnControlActivating@XFileDialogControlEvents@CFileDialog@@UAGJPAUIFileDialogCustomize@@K@Z 006d26e0 f   uafxcwd:dlgfile.obj
 0002:00170730       ?DoModal@CFileDialog@@UAEHXZ 006d2730 f   uafxcwd:dlgfile.obj
 0002:00170ac0       ?GetPathName@CFileDialog@@QBE?AV?$CStringT@_WV?$StrTraitMFC@_WV?$ChTraitsCRT@_W@ATL@@@@@ATL@@XZ 006d2ac0 f   uafxcwd:dlgfile.obj
 0002:00170e30       ?GetFileName@CFileDialog@@QBE?AV?$CStringT@_WV?$StrTraitMFC@_WV?$ChTraitsCRT@_W@ATL@@@@@ATL@@XZ 006d2e30 f   uafxcwd:dlgfile.obj
 0002:001710a0       ?GetFileExt@CFileDialog@@QBE?AV?$CStringT@_WV?$StrTraitMFC@_WV?$ChTraitsCRT@_W@ATL@@@@@ATL@@XZ 006d30a0 f   uafxcwd:dlgfile.obj
 0002:001714d0       ?GetFileTitle@CFileDialog@@QBE?AV?$CStringT@_WV?$StrTraitMFC@_WV?$ChTraitsCRT@_W@ATL@@@@@ATL@@XZ 006d34d0 f   uafxcwd:dlgfile.obj
 0002:001715a0       ?GetNextPathName@CFileDialog@@QBE?AV?$CStringT@_WV?$StrTraitMFC@_WV?$ChTraitsCRT@_W@ATL@@@@@ATL@@AAPAU__POSITION@@@Z 006d35a0 f   uafxcwd:dlgfile.obj
 0002:00171ba0       ?SetTemplate@CFileDialog@@QAEXPB_W0@Z 006d3ba0 f   uafxcwd:dlgfile.obj
 0002:00171c30       ?GetFolderPath@CFileDialog@@QBE?AV?$CStringT@_WV?$StrTraitMFC@_WV?$ChTraitsCRT@_W@ATL@@@@@ATL@@XZ 006d3c30 f   uafxcwd:dlgfile.obj
 0002:00171e20       ?SetControlText@CFileDialog@@QAEXHPB_W@Z 006d3e20 f   uafxcwd:dlgfile.obj
 0002:00171f40       ?SetControlText@CFileDialog@@QAEXHPBD@Z 006d3f40 f   uafxcwd:dlgfile.obj
 0002:001720f0       ?HideControl@CFileDialog@@QAEXH@Z 006d40f0 f   uafxcwd:dlgfile.obj
 0002:00172200       ?SetDefExt@CFileDialog@@QAEXPBD@Z 006d4200 f   uafxcwd:dlgfile.obj
 0002:00172380       ?OnShareViolation@CFileDialog@@MAEIPB_W@Z 006d4380 f   uafxcwd:dlgfile.obj
 0002:001723b0       ?OnFileNameOK@CFileDialog@@MAEHXZ 006d43b0 f   uafxcwd:dlgfile.obj
 0002:001723e0       ?OnLBSelChangedNotify@CFileDialog@@MAEXIII@Z 006d43e0 f   uafxcwd:dlgfile.obj
 0002:00172410       ?OnInitDone@CFileDialog@@MAEXXZ 006d4410 f   uafxcwd:dlgfile.obj
 0002:00172450       ?OnFileNameChange@CFileDialog@@MAEXXZ 006d4450 f   uafxcwd:dlgfile.obj
 0002:00172480       ?OnFolderChange@CFileDialog@@MAEXXZ 006d4480 f   uafxcwd:dlgfile.obj
 0002:001724b0       ?OnTypeChange@CFileDialog@@MAEXXZ 006d44b0 f   uafxcwd:dlgfile.obj
 0002:001724e0       ?OnNotify@CFileDialog@@MAEHIJPAJ@Z 006d44e0 f   uafxcwd:dlgfile.obj
 0002:001726b0       ?Dump@CFileDialog@@UBEXAAVCDumpContext@@@Z 006d46b0 f   uafxcwd:dlgfile.obj
 0002:00172ad0       ?GetRuntimeClass@CFileDialog@@UBEPAUCRuntimeClass@@XZ 006d4ad0 f   uafxcwd:dlgfile.obj
 0002:00172af0       ??$IID_PPV_ARGS_Helper@UIFileDialog@@@@YAPAPAXPAPAUIFileDialog@@@Z 006d4af0 f i uafxcwd:dlgfile.obj
 0002:00172b00       ??$IID_PPV_ARGS_Helper@UIFileDialogCustomize@@@@YAPAPAXPAPAUIFileDialogCustomize@@@Z 006d4b00 f i uafxcwd:dlgfile.obj
 0002:00172b10       ??$IID_PPV_ARGS_Helper@UIFileOpenDialog@@@@YAPAPAXPAPAUIFileOpenDialog@@@Z 006d4b10 f i uafxcwd:dlgfile.obj
 0002:00172b20       ??$IID_PPV_ARGS_Helper@UIShellItem@@@@YAPAPAXPAPAUIShellItem@@@Z 006d4b20 f i uafxcwd:dlgfile.obj
 0002:00172b30       ??$IID_PPV_ARGS_Helper@UIFileSaveDialog@@@@YAPAPAXPAPAUIFileSaveDialog@@@Z 006d4b30 f i uafxcwd:dlgfile.obj
